

Microchip MPLAB XC8 Assembler V2.46 build 20240104201356 
                                                                                               Fri Dec 05 09:29:13 2025

Microchip MPLAB XC8 C Compiler v2.46 (Free license) build 20240104201356 Og1 
     1                           	processor	16F1936
     2                           	pagewidth 120
     3                           	opt	flic
     4                           	psect	idataBANK0,global,class=CODE,delta=2,noexec
     5                           	psect	stringtext1,global,class=STRCODE,delta=2,noexec
     6                           	psect	cinit,global,class=CODE,merge=1,delta=2
     7                           	psect	bssBANK0,global,class=BANK0,space=1,delta=1,noexec
     8                           	psect	dataBANK0,global,class=BANK0,space=1,delta=1,noexec
     9                           	psect	bssBANK1,global,class=BANK1,space=1,delta=1,noexec
    10                           	psect	clrtext,global,class=CODE,delta=2
    11                           	psect	cstackBANK1,global,class=BANK1,space=1,delta=1,noexec
    12                           	psect	cstackCOMMON,global,class=COMMON,space=1,delta=1,noexec
    13                           	psect	cstackBANK0,global,class=BANK0,space=1,delta=1,noexec
    14                           	psect	maintext,global,class=CODE,merge=1,split=1,delta=2
    15                           	psect	text1,local,class=CODE,merge=1,delta=2
    16                           	psect	text2,local,class=CODE,merge=1,delta=2
    17                           	psect	text3,local,class=CODE,merge=1,delta=2
    18                           	psect	text4,local,class=CODE,merge=1,delta=2
    19                           	psect	text5,local,class=CODE,merge=1,delta=2
    20                           	psect	text6,local,class=CODE,merge=1,delta=2
    21                           	psect	text7,local,class=CODE,merge=1,delta=2
    22                           	psect	text8,local,class=CODE,merge=1,delta=2
    23                           	psect	text9,local,class=CODE,merge=1,delta=2
    24                           	psect	text10,local,class=CODE,merge=1,delta=2
    25                           	psect	text11,local,class=CODE,merge=1,delta=2
    26                           	psect	text12,local,class=CODE,merge=1,delta=2
    27                           	psect	text13,local,class=CODE,merge=1,delta=2
    28                           	psect	text14,local,class=CODE,merge=1,delta=2
    29                           	psect	text15,local,class=CODE,merge=1,delta=2
    30                           	psect	text16,local,class=CODE,merge=1,delta=2
    31                           	psect	text17,local,class=CODE,merge=1,delta=2
    32                           	psect	text18,local,class=CODE,merge=1,delta=2
    33                           	psect	text19,local,class=CODE,merge=1,delta=2
    34                           	psect	text20,local,class=CODE,merge=1,delta=2
    35                           	psect	text21,local,class=CODE,merge=1,delta=2,group=2
    36                           	psect	text22,local,class=CODE,merge=1,delta=2,group=2
    37                           	psect	text23,local,class=CODE,merge=1,delta=2
    38                           	psect	text24,local,class=CODE,merge=1,delta=2
    39                           	psect	text25,local,class=CODE,merge=1,delta=2
    40                           	psect	text26,local,class=CODE,merge=1,delta=2
    41                           	psect	text27,local,class=CODE,merge=1,delta=2
    42                           	psect	text28,local,class=CODE,merge=1,delta=2
    43                           	psect	text29,local,class=CODE,merge=1,delta=2
    44                           	psect	text30,local,class=CODE,merge=1,delta=2
    45                           	psect	text31,local,class=CODE,merge=1,delta=2
    46                           	psect	text32,local,class=CODE,merge=1,delta=2
    47                           	psect	text33,local,class=CODE,merge=1,delta=2
    48                           	psect	intentry,global,class=CODE,delta=2
    49                           	psect	text35,local,class=CODE,merge=1,delta=2
    50                           	psect	text36,local,class=CODE,merge=1,delta=2
    51                           	psect	text37,local,class=CODE,merge=1,delta=2
    52                           	psect	text38,local,class=CODE,merge=1,delta=2
    53                           	psect	text39,local,class=CODE,merge=1,delta=2
    54                           	psect	text40,local,class=CODE,merge=1,delta=2,group=1
    55                           	psect	text41,local,class=CODE,merge=1,delta=2
    56                           	psect	text42,local,class=CODE,merge=1,delta=2
    57                           	psect	text43,local,class=CODE,merge=1,delta=2
    58                           	psect	text44,local,class=CODE,merge=1,delta=2
    59                           	psect	text45,local,class=CODE,merge=1,delta=2
    60                           	psect	text46,local,class=CODE,merge=1,delta=2
    61                           	psect	text47,local,class=CODE,merge=1,delta=2
    62                           	psect	text48,local,class=CODE,merge=1,delta=2
    63                           	psect	text49,local,class=CODE,merge=1,delta=2
    64                           	psect	text50,local,class=CODE,merge=1,delta=2
    65                           	psect	text51,local,class=CODE,merge=1,delta=2
    66                           	psect	config,global,abs,ovrld,class=CONFIG,space=4,delta=2,noexec
    67                           	dabs	1,0x7E,2
    68     0000                     
    69                           ; Version 2.20
    70                           ; Generated 12/02/2020 GMT
    71                           ; 
    72                           ; Copyright © 2020, Microchip Technology Inc. and its subsidiaries ("Microchip")
    73                           ; All rights reserved.
    74                           ; 
    75                           ; This software is developed by Microchip Technology Inc. and its subsidiaries ("Microch
      +                          ip").
    76                           ; 
    77                           ; Redistribution and use in source and binary forms, with or without modification, are
    78                           ; permitted provided that the following conditions are met:
    79                           ; 
    80                           ;     1. Redistributions of source code must retain the above copyright notice, this lis
      +                          t of
    81                           ;        conditions and the following disclaimer.
    82                           ; 
    83                           ;     2. Redistributions in binary form must reproduce the above copyright notice, this 
      +                          list
    84                           ;        of conditions and the following disclaimer in the documentation and/or other
    85                           ;        materials provided with the distribution.
    86                           ; 
    87                           ;     3. Microchip's name may not be used to endorse or promote products derived from th
      +                          is
    88                           ;        software without specific prior written permission.
    89                           ; 
    90                           ; THIS SOFTWARE IS PROVIDED BY MICROCHIP "AS IS" AND ANY EXPRESS OR IMPLIED WARRANTIES,
    91                           ; INCLUDING, BUT NOT LIMITED TO, THE IMPLIED WARRANTIES OF MERCHANTABILITY AND FITNESS F
      +                          OR
    92                           ; PURPOSE ARE DISCLAIMED.  IN NO EVENT SHALL MICROCHIP BE LIABLE FOR ANY DIRECT, INDIREC
      +                          T,
    93                           ; INCIDENTAL, SPECIAL, EXEMPLARY, OR CONSEQUENTIAL DAMAGES (INCLUDING BUT NOT LIMITED TO
    94                           ; PROCUREMENT OF SUBSTITUTE GOODS OR SERVICES; LOSS OF USE, DATA OR PROFITS; OR BUSINESS
    95                           ; INTERRUPTION) HOWSOEVER CAUSED AND ON ANY THEORY OF LIABILITY, WHETHER IN CONTRACT, ST
      +                          RICT
    96                           ; LIABILITY, OR TORT (INCLUDING NEGLIGENCE OR OTHERWISE) ARISING IN ANY WAY OUT OF THE U
      +                          SE OF
    97                           ; THIS SOFTWARE, EVEN IF ADVISED OF THE POSSIBILITY OF SUCH DAMAGE.
    98                           ; 
    99                           ; 
   100                           ; Code-generator required, PIC16F1936 Definitions
   101                           ; 
   102                           ; SFR Addresses
   103     0000                     	;# 
   104     0001                     	;# 
   105     0002                     	;# 
   106     0003                     	;# 
   107     0004                     	;# 
   108     0005                     	;# 
   109     0006                     	;# 
   110     0007                     	;# 
   111     0008                     	;# 
   112     0009                     	;# 
   113     000A                     	;# 
   114     000B                     	;# 
   115     000C                     	;# 
   116     000D                     	;# 
   117     000E                     	;# 
   118     0010                     	;# 
   119     0011                     	;# 
   120     0012                     	;# 
   121     0013                     	;# 
   122     0015                     	;# 
   123     0016                     	;# 
   124     0016                     	;# 
   125     0017                     	;# 
   126     0018                     	;# 
   127     0019                     	;# 
   128     001A                     	;# 
   129     001B                     	;# 
   130     001C                     	;# 
   131     001E                     	;# 
   132     001F                     	;# 
   133     008C                     	;# 
   134     008D                     	;# 
   135     008E                     	;# 
   136     0090                     	;# 
   137     0091                     	;# 
   138     0092                     	;# 
   139     0093                     	;# 
   140     0095                     	;# 
   141     0096                     	;# 
   142     0097                     	;# 
   143     0098                     	;# 
   144     0099                     	;# 
   145     009A                     	;# 
   146     009B                     	;# 
   147     009B                     	;# 
   148     009C                     	;# 
   149     009D                     	;# 
   150     009E                     	;# 
   151     010C                     	;# 
   152     010D                     	;# 
   153     010E                     	;# 
   154     0110                     	;# 
   155     0111                     	;# 
   156     0112                     	;# 
   157     0113                     	;# 
   158     0114                     	;# 
   159     0115                     	;# 
   160     0116                     	;# 
   161     0117                     	;# 
   162     0118                     	;# 
   163     0119                     	;# 
   164     011A                     	;# 
   165     011B                     	;# 
   166     011D                     	;# 
   167     018C                     	;# 
   168     018D                     	;# 
   169     0191                     	;# 
   170     0191                     	;# 
   171     0192                     	;# 
   172     0193                     	;# 
   173     0193                     	;# 
   174     0193                     	;# 
   175     0194                     	;# 
   176     0195                     	;# 
   177     0196                     	;# 
   178     0199                     	;# 
   179     019A                     	;# 
   180     019B                     	;# 
   181     019B                     	;# 
   182     019B                     	;# 
   183     019B                     	;# 
   184     019C                     	;# 
   185     019C                     	;# 
   186     019D                     	;# 
   187     019E                     	;# 
   188     019F                     	;# 
   189     020D                     	;# 
   190     0210                     	;# 
   191     0211                     	;# 
   192     0212                     	;# 
   193     0213                     	;# 
   194     0214                     	;# 
   195     0215                     	;# 
   196     0215                     	;# 
   197     0216                     	;# 
   198     0217                     	;# 
   199     0291                     	;# 
   200     0291                     	;# 
   201     0292                     	;# 
   202     0293                     	;# 
   203     0294                     	;# 
   204     0295                     	;# 
   205     0295                     	;# 
   206     0296                     	;# 
   207     0298                     	;# 
   208     0298                     	;# 
   209     0299                     	;# 
   210     029A                     	;# 
   211     029B                     	;# 
   212     029C                     	;# 
   213     029C                     	;# 
   214     029D                     	;# 
   215     029E                     	;# 
   216     029F                     	;# 
   217     0311                     	;# 
   218     0311                     	;# 
   219     0312                     	;# 
   220     0313                     	;# 
   221     0314                     	;# 
   222     0315                     	;# 
   223     0315                     	;# 
   224     0316                     	;# 
   225     0318                     	;# 
   226     0318                     	;# 
   227     0319                     	;# 
   228     031A                     	;# 
   229     031C                     	;# 
   230     031C                     	;# 
   231     031D                     	;# 
   232     031E                     	;# 
   233     0394                     	;# 
   234     0395                     	;# 
   235     0396                     	;# 
   236     0415                     	;# 
   237     0416                     	;# 
   238     0417                     	;# 
   239     041C                     	;# 
   240     041D                     	;# 
   241     041E                     	;# 
   242     0791                     	;# 
   243     0792                     	;# 
   244     0793                     	;# 
   245     0794                     	;# 
   246     0795                     	;# 
   247     0798                     	;# 
   248     0799                     	;# 
   249     07A0                     	;# 
   250     07A1                     	;# 
   251     07A3                     	;# 
   252     07A4                     	;# 
   253     07A6                     	;# 
   254     07A7                     	;# 
   255     07A9                     	;# 
   256     07AA                     	;# 
   257     0FE4                     	;# 
   258     0FE5                     	;# 
   259     0FE6                     	;# 
   260     0FE7                     	;# 
   261     0FE8                     	;# 
   262     0FE9                     	;# 
   263     0FEA                     	;# 
   264     0FEB                     	;# 
   265     0FED                     	;# 
   266     0FEE                     	;# 
   267     0FEF                     	;# 
   268     0000                     	;# 
   269     0001                     	;# 
   270     0002                     	;# 
   271     0003                     	;# 
   272     0004                     	;# 
   273     0005                     	;# 
   274     0006                     	;# 
   275     0007                     	;# 
   276     0008                     	;# 
   277     0009                     	;# 
   278     000A                     	;# 
   279     000B                     	;# 
   280     000C                     	;# 
   281     000D                     	;# 
   282     000E                     	;# 
   283     0010                     	;# 
   284     0011                     	;# 
   285     0012                     	;# 
   286     0013                     	;# 
   287     0015                     	;# 
   288     0016                     	;# 
   289     0016                     	;# 
   290     0017                     	;# 
   291     0018                     	;# 
   292     0019                     	;# 
   293     001A                     	;# 
   294     001B                     	;# 
   295     001C                     	;# 
   296     001E                     	;# 
   297     001F                     	;# 
   298     008C                     	;# 
   299     008D                     	;# 
   300     008E                     	;# 
   301     0090                     	;# 
   302     0091                     	;# 
   303     0092                     	;# 
   304     0093                     	;# 
   305     0095                     	;# 
   306     0096                     	;# 
   307     0097                     	;# 
   308     0098                     	;# 
   309     0099                     	;# 
   310     009A                     	;# 
   311     009B                     	;# 
   312     009B                     	;# 
   313     009C                     	;# 
   314     009D                     	;# 
   315     009E                     	;# 
   316     010C                     	;# 
   317     010D                     	;# 
   318     010E                     	;# 
   319     0110                     	;# 
   320     0111                     	;# 
   321     0112                     	;# 
   322     0113                     	;# 
   323     0114                     	;# 
   324     0115                     	;# 
   325     0116                     	;# 
   326     0117                     	;# 
   327     0118                     	;# 
   328     0119                     	;# 
   329     011A                     	;# 
   330     011B                     	;# 
   331     011D                     	;# 
   332     018C                     	;# 
   333     018D                     	;# 
   334     0191                     	;# 
   335     0191                     	;# 
   336     0192                     	;# 
   337     0193                     	;# 
   338     0193                     	;# 
   339     0193                     	;# 
   340     0194                     	;# 
   341     0195                     	;# 
   342     0196                     	;# 
   343     0199                     	;# 
   344     019A                     	;# 
   345     019B                     	;# 
   346     019B                     	;# 
   347     019B                     	;# 
   348     019B                     	;# 
   349     019C                     	;# 
   350     019C                     	;# 
   351     019D                     	;# 
   352     019E                     	;# 
   353     019F                     	;# 
   354     020D                     	;# 
   355     0210                     	;# 
   356     0211                     	;# 
   357     0212                     	;# 
   358     0213                     	;# 
   359     0214                     	;# 
   360     0215                     	;# 
   361     0215                     	;# 
   362     0216                     	;# 
   363     0217                     	;# 
   364     0291                     	;# 
   365     0291                     	;# 
   366     0292                     	;# 
   367     0293                     	;# 
   368     0294                     	;# 
   369     0295                     	;# 
   370     0295                     	;# 
   371     0296                     	;# 
   372     0298                     	;# 
   373     0298                     	;# 
   374     0299                     	;# 
   375     029A                     	;# 
   376     029B                     	;# 
   377     029C                     	;# 
   378     029C                     	;# 
   379     029D                     	;# 
   380     029E                     	;# 
   381     029F                     	;# 
   382     0311                     	;# 
   383     0311                     	;# 
   384     0312                     	;# 
   385     0313                     	;# 
   386     0314                     	;# 
   387     0315                     	;# 
   388     0315                     	;# 
   389     0316                     	;# 
   390     0318                     	;# 
   391     0318                     	;# 
   392     0319                     	;# 
   393     031A                     	;# 
   394     031C                     	;# 
   395     031C                     	;# 
   396     031D                     	;# 
   397     031E                     	;# 
   398     0394                     	;# 
   399     0395                     	;# 
   400     0396                     	;# 
   401     0415                     	;# 
   402     0416                     	;# 
   403     0417                     	;# 
   404     041C                     	;# 
   405     041D                     	;# 
   406     041E                     	;# 
   407     0791                     	;# 
   408     0792                     	;# 
   409     0793                     	;# 
   410     0794                     	;# 
   411     0795                     	;# 
   412     0798                     	;# 
   413     0799                     	;# 
   414     07A0                     	;# 
   415     07A1                     	;# 
   416     07A3                     	;# 
   417     07A4                     	;# 
   418     07A6                     	;# 
   419     07A7                     	;# 
   420     07A9                     	;# 
   421     07AA                     	;# 
   422     0FE4                     	;# 
   423     0FE5                     	;# 
   424     0FE6                     	;# 
   425     0FE7                     	;# 
   426     0FE8                     	;# 
   427     0FE9                     	;# 
   428     0FEA                     	;# 
   429     0FEB                     	;# 
   430     0FED                     	;# 
   431     0FEE                     	;# 
   432     0FEF                     	;# 
   433     0000                     	;# 
   434     0001                     	;# 
   435     0002                     	;# 
   436     0003                     	;# 
   437     0004                     	;# 
   438     0005                     	;# 
   439     0006                     	;# 
   440     0007                     	;# 
   441     0008                     	;# 
   442     0009                     	;# 
   443     000A                     	;# 
   444     000B                     	;# 
   445     000C                     	;# 
   446     000D                     	;# 
   447     000E                     	;# 
   448     0010                     	;# 
   449     0011                     	;# 
   450     0012                     	;# 
   451     0013                     	;# 
   452     0015                     	;# 
   453     0016                     	;# 
   454     0016                     	;# 
   455     0017                     	;# 
   456     0018                     	;# 
   457     0019                     	;# 
   458     001A                     	;# 
   459     001B                     	;# 
   460     001C                     	;# 
   461     001E                     	;# 
   462     001F                     	;# 
   463     008C                     	;# 
   464     008D                     	;# 
   465     008E                     	;# 
   466     0090                     	;# 
   467     0091                     	;# 
   468     0092                     	;# 
   469     0093                     	;# 
   470     0095                     	;# 
   471     0096                     	;# 
   472     0097                     	;# 
   473     0098                     	;# 
   474     0099                     	;# 
   475     009A                     	;# 
   476     009B                     	;# 
   477     009B                     	;# 
   478     009C                     	;# 
   479     009D                     	;# 
   480     009E                     	;# 
   481     010C                     	;# 
   482     010D                     	;# 
   483     010E                     	;# 
   484     0110                     	;# 
   485     0111                     	;# 
   486     0112                     	;# 
   487     0113                     	;# 
   488     0114                     	;# 
   489     0115                     	;# 
   490     0116                     	;# 
   491     0117                     	;# 
   492     0118                     	;# 
   493     0119                     	;# 
   494     011A                     	;# 
   495     011B                     	;# 
   496     011D                     	;# 
   497     018C                     	;# 
   498     018D                     	;# 
   499     0191                     	;# 
   500     0191                     	;# 
   501     0192                     	;# 
   502     0193                     	;# 
   503     0193                     	;# 
   504     0193                     	;# 
   505     0194                     	;# 
   506     0195                     	;# 
   507     0196                     	;# 
   508     0199                     	;# 
   509     019A                     	;# 
   510     019B                     	;# 
   511     019B                     	;# 
   512     019B                     	;# 
   513     019B                     	;# 
   514     019C                     	;# 
   515     019C                     	;# 
   516     019D                     	;# 
   517     019E                     	;# 
   518     019F                     	;# 
   519     020D                     	;# 
   520     0210                     	;# 
   521     0211                     	;# 
   522     0212                     	;# 
   523     0213                     	;# 
   524     0214                     	;# 
   525     0215                     	;# 
   526     0215                     	;# 
   527     0216                     	;# 
   528     0217                     	;# 
   529     0291                     	;# 
   530     0291                     	;# 
   531     0292                     	;# 
   532     0293                     	;# 
   533     0294                     	;# 
   534     0295                     	;# 
   535     0295                     	;# 
   536     0296                     	;# 
   537     0298                     	;# 
   538     0298                     	;# 
   539     0299                     	;# 
   540     029A                     	;# 
   541     029B                     	;# 
   542     029C                     	;# 
   543     029C                     	;# 
   544     029D                     	;# 
   545     029E                     	;# 
   546     029F                     	;# 
   547     0311                     	;# 
   548     0311                     	;# 
   549     0312                     	;# 
   550     0313                     	;# 
   551     0314                     	;# 
   552     0315                     	;# 
   553     0315                     	;# 
   554     0316                     	;# 
   555     0318                     	;# 
   556     0318                     	;# 
   557     0319                     	;# 
   558     031A                     	;# 
   559     031C                     	;# 
   560     031C                     	;# 
   561     031D                     	;# 
   562     031E                     	;# 
   563     0394                     	;# 
   564     0395                     	;# 
   565     0396                     	;# 
   566     0415                     	;# 
   567     0416                     	;# 
   568     0417                     	;# 
   569     041C                     	;# 
   570     041D                     	;# 
   571     041E                     	;# 
   572     0791                     	;# 
   573     0792                     	;# 
   574     0793                     	;# 
   575     0794                     	;# 
   576     0795                     	;# 
   577     0798                     	;# 
   578     0799                     	;# 
   579     07A0                     	;# 
   580     07A1                     	;# 
   581     07A3                     	;# 
   582     07A4                     	;# 
   583     07A6                     	;# 
   584     07A7                     	;# 
   585     07A9                     	;# 
   586     07AA                     	;# 
   587     0FE4                     	;# 
   588     0FE5                     	;# 
   589     0FE6                     	;# 
   590     0FE7                     	;# 
   591     0FE8                     	;# 
   592     0FE9                     	;# 
   593     0FEA                     	;# 
   594     0FEB                     	;# 
   595     0FED                     	;# 
   596     0FEE                     	;# 
   597     0FEF                     	;# 
   598     0000                     	;# 
   599     0001                     	;# 
   600     0002                     	;# 
   601     0003                     	;# 
   602     0004                     	;# 
   603     0005                     	;# 
   604     0006                     	;# 
   605     0007                     	;# 
   606     0008                     	;# 
   607     0009                     	;# 
   608     000A                     	;# 
   609     000B                     	;# 
   610     000C                     	;# 
   611     000D                     	;# 
   612     000E                     	;# 
   613     0010                     	;# 
   614     0011                     	;# 
   615     0012                     	;# 
   616     0013                     	;# 
   617     0015                     	;# 
   618     0016                     	;# 
   619     0016                     	;# 
   620     0017                     	;# 
   621     0018                     	;# 
   622     0019                     	;# 
   623     001A                     	;# 
   624     001B                     	;# 
   625     001C                     	;# 
   626     001E                     	;# 
   627     001F                     	;# 
   628     008C                     	;# 
   629     008D                     	;# 
   630     008E                     	;# 
   631     0090                     	;# 
   632     0091                     	;# 
   633     0092                     	;# 
   634     0093                     	;# 
   635     0095                     	;# 
   636     0096                     	;# 
   637     0097                     	;# 
   638     0098                     	;# 
   639     0099                     	;# 
   640     009A                     	;# 
   641     009B                     	;# 
   642     009B                     	;# 
   643     009C                     	;# 
   644     009D                     	;# 
   645     009E                     	;# 
   646     010C                     	;# 
   647     010D                     	;# 
   648     010E                     	;# 
   649     0110                     	;# 
   650     0111                     	;# 
   651     0112                     	;# 
   652     0113                     	;# 
   653     0114                     	;# 
   654     0115                     	;# 
   655     0116                     	;# 
   656     0117                     	;# 
   657     0118                     	;# 
   658     0119                     	;# 
   659     011A                     	;# 
   660     011B                     	;# 
   661     011D                     	;# 
   662     018C                     	;# 
   663     018D                     	;# 
   664     0191                     	;# 
   665     0191                     	;# 
   666     0192                     	;# 
   667     0193                     	;# 
   668     0193                     	;# 
   669     0193                     	;# 
   670     0194                     	;# 
   671     0195                     	;# 
   672     0196                     	;# 
   673     0199                     	;# 
   674     019A                     	;# 
   675     019B                     	;# 
   676     019B                     	;# 
   677     019B                     	;# 
   678     019B                     	;# 
   679     019C                     	;# 
   680     019C                     	;# 
   681     019D                     	;# 
   682     019E                     	;# 
   683     019F                     	;# 
   684     020D                     	;# 
   685     0210                     	;# 
   686     0211                     	;# 
   687     0212                     	;# 
   688     0213                     	;# 
   689     0214                     	;# 
   690     0215                     	;# 
   691     0215                     	;# 
   692     0216                     	;# 
   693     0217                     	;# 
   694     0291                     	;# 
   695     0291                     	;# 
   696     0292                     	;# 
   697     0293                     	;# 
   698     0294                     	;# 
   699     0295                     	;# 
   700     0295                     	;# 
   701     0296                     	;# 
   702     0298                     	;# 
   703     0298                     	;# 
   704     0299                     	;# 
   705     029A                     	;# 
   706     029B                     	;# 
   707     029C                     	;# 
   708     029C                     	;# 
   709     029D                     	;# 
   710     029E                     	;# 
   711     029F                     	;# 
   712     0311                     	;# 
   713     0311                     	;# 
   714     0312                     	;# 
   715     0313                     	;# 
   716     0314                     	;# 
   717     0315                     	;# 
   718     0315                     	;# 
   719     0316                     	;# 
   720     0318                     	;# 
   721     0318                     	;# 
   722     0319                     	;# 
   723     031A                     	;# 
   724     031C                     	;# 
   725     031C                     	;# 
   726     031D                     	;# 
   727     031E                     	;# 
   728     0394                     	;# 
   729     0395                     	;# 
   730     0396                     	;# 
   731     0415                     	;# 
   732     0416                     	;# 
   733     0417                     	;# 
   734     041C                     	;# 
   735     041D                     	;# 
   736     041E                     	;# 
   737     0791                     	;# 
   738     0792                     	;# 
   739     0793                     	;# 
   740     0794                     	;# 
   741     0795                     	;# 
   742     0798                     	;# 
   743     0799                     	;# 
   744     07A0                     	;# 
   745     07A1                     	;# 
   746     07A3                     	;# 
   747     07A4                     	;# 
   748     07A6                     	;# 
   749     07A7                     	;# 
   750     07A9                     	;# 
   751     07AA                     	;# 
   752     0FE4                     	;# 
   753     0FE5                     	;# 
   754     0FE6                     	;# 
   755     0FE7                     	;# 
   756     0FE8                     	;# 
   757     0FE9                     	;# 
   758     0FEA                     	;# 
   759     0FEB                     	;# 
   760     0FED                     	;# 
   761     0FEE                     	;# 
   762     0FEF                     	;# 
   763     0000                     	;# 
   764     0001                     	;# 
   765     0002                     	;# 
   766     0003                     	;# 
   767     0004                     	;# 
   768     0005                     	;# 
   769     0006                     	;# 
   770     0007                     	;# 
   771     0008                     	;# 
   772     0009                     	;# 
   773     000A                     	;# 
   774     000B                     	;# 
   775     000C                     	;# 
   776     000D                     	;# 
   777     000E                     	;# 
   778     0010                     	;# 
   779     0011                     	;# 
   780     0012                     	;# 
   781     0013                     	;# 
   782     0015                     	;# 
   783     0016                     	;# 
   784     0016                     	;# 
   785     0017                     	;# 
   786     0018                     	;# 
   787     0019                     	;# 
   788     001A                     	;# 
   789     001B                     	;# 
   790     001C                     	;# 
   791     001E                     	;# 
   792     001F                     	;# 
   793     008C                     	;# 
   794     008D                     	;# 
   795     008E                     	;# 
   796     0090                     	;# 
   797     0091                     	;# 
   798     0092                     	;# 
   799     0093                     	;# 
   800     0095                     	;# 
   801     0096                     	;# 
   802     0097                     	;# 
   803     0098                     	;# 
   804     0099                     	;# 
   805     009A                     	;# 
   806     009B                     	;# 
   807     009B                     	;# 
   808     009C                     	;# 
   809     009D                     	;# 
   810     009E                     	;# 
   811     010C                     	;# 
   812     010D                     	;# 
   813     010E                     	;# 
   814     0110                     	;# 
   815     0111                     	;# 
   816     0112                     	;# 
   817     0113                     	;# 
   818     0114                     	;# 
   819     0115                     	;# 
   820     0116                     	;# 
   821     0117                     	;# 
   822     0118                     	;# 
   823     0119                     	;# 
   824     011A                     	;# 
   825     011B                     	;# 
   826     011D                     	;# 
   827     018C                     	;# 
   828     018D                     	;# 
   829     0191                     	;# 
   830     0191                     	;# 
   831     0192                     	;# 
   832     0193                     	;# 
   833     0193                     	;# 
   834     0193                     	;# 
   835     0194                     	;# 
   836     0195                     	;# 
   837     0196                     	;# 
   838     0199                     	;# 
   839     019A                     	;# 
   840     019B                     	;# 
   841     019B                     	;# 
   842     019B                     	;# 
   843     019B                     	;# 
   844     019C                     	;# 
   845     019C                     	;# 
   846     019D                     	;# 
   847     019E                     	;# 
   848     019F                     	;# 
   849     020D                     	;# 
   850     0210                     	;# 
   851     0211                     	;# 
   852     0212                     	;# 
   853     0213                     	;# 
   854     0214                     	;# 
   855     0215                     	;# 
   856     0215                     	;# 
   857     0216                     	;# 
   858     0217                     	;# 
   859     0291                     	;# 
   860     0291                     	;# 
   861     0292                     	;# 
   862     0293                     	;# 
   863     0294                     	;# 
   864     0295                     	;# 
   865     0295                     	;# 
   866     0296                     	;# 
   867     0298                     	;# 
   868     0298                     	;# 
   869     0299                     	;# 
   870     029A                     	;# 
   871     029B                     	;# 
   872     029C                     	;# 
   873     029C                     	;# 
   874     029D                     	;# 
   875     029E                     	;# 
   876     029F                     	;# 
   877     0311                     	;# 
   878     0311                     	;# 
   879     0312                     	;# 
   880     0313                     	;# 
   881     0314                     	;# 
   882     0315                     	;# 
   883     0315                     	;# 
   884     0316                     	;# 
   885     0318                     	;# 
   886     0318                     	;# 
   887     0319                     	;# 
   888     031A                     	;# 
   889     031C                     	;# 
   890     031C                     	;# 
   891     031D                     	;# 
   892     031E                     	;# 
   893     0394                     	;# 
   894     0395                     	;# 
   895     0396                     	;# 
   896     0415                     	;# 
   897     0416                     	;# 
   898     0417                     	;# 
   899     041C                     	;# 
   900     041D                     	;# 
   901     041E                     	;# 
   902     0791                     	;# 
   903     0792                     	;# 
   904     0793                     	;# 
   905     0794                     	;# 
   906     0795                     	;# 
   907     0798                     	;# 
   908     0799                     	;# 
   909     07A0                     	;# 
   910     07A1                     	;# 
   911     07A3                     	;# 
   912     07A4                     	;# 
   913     07A6                     	;# 
   914     07A7                     	;# 
   915     07A9                     	;# 
   916     07AA                     	;# 
   917     0FE4                     	;# 
   918     0FE5                     	;# 
   919     0FE6                     	;# 
   920     0FE7                     	;# 
   921     0FE8                     	;# 
   922     0FE9                     	;# 
   923     0FEA                     	;# 
   924     0FEB                     	;# 
   925     0FED                     	;# 
   926     0FEE                     	;# 
   927     0FEF                     	;# 
   928     0000                     	;# 
   929     0001                     	;# 
   930     0002                     	;# 
   931     0003                     	;# 
   932     0004                     	;# 
   933     0005                     	;# 
   934     0006                     	;# 
   935     0007                     	;# 
   936     0008                     	;# 
   937     0009                     	;# 
   938     000A                     	;# 
   939     000B                     	;# 
   940     000C                     	;# 
   941     000D                     	;# 
   942     000E                     	;# 
   943     0010                     	;# 
   944     0011                     	;# 
   945     0012                     	;# 
   946     0013                     	;# 
   947     0015                     	;# 
   948     0016                     	;# 
   949     0016                     	;# 
   950     0017                     	;# 
   951     0018                     	;# 
   952     0019                     	;# 
   953     001A                     	;# 
   954     001B                     	;# 
   955     001C                     	;# 
   956     001E                     	;# 
   957     001F                     	;# 
   958     008C                     	;# 
   959     008D                     	;# 
   960     008E                     	;# 
   961     0090                     	;# 
   962     0091                     	;# 
   963     0092                     	;# 
   964     0093                     	;# 
   965     0095                     	;# 
   966     0096                     	;# 
   967     0097                     	;# 
   968     0098                     	;# 
   969     0099                     	;# 
   970     009A                     	;# 
   971     009B                     	;# 
   972     009B                     	;# 
   973     009C                     	;# 
   974     009D                     	;# 
   975     009E                     	;# 
   976     010C                     	;# 
   977     010D                     	;# 
   978     010E                     	;# 
   979     0110                     	;# 
   980     0111                     	;# 
   981     0112                     	;# 
   982     0113                     	;# 
   983     0114                     	;# 
   984     0115                     	;# 
   985     0116                     	;# 
   986     0117                     	;# 
   987     0118                     	;# 
   988     0119                     	;# 
   989     011A                     	;# 
   990     011B                     	;# 
   991     011D                     	;# 
   992     018C                     	;# 
   993     018D                     	;# 
   994     0191                     	;# 
   995     0191                     	;# 
   996     0192                     	;# 
   997     0193                     	;# 
   998     0193                     	;# 
   999     0193                     	;# 
  1000     0194                     	;# 
  1001     0195                     	;# 
  1002     0196                     	;# 
  1003     0199                     	;# 
  1004     019A                     	;# 
  1005     019B                     	;# 
  1006     019B                     	;# 
  1007     019B                     	;# 
  1008     019B                     	;# 
  1009     019C                     	;# 
  1010     019C                     	;# 
  1011     019D                     	;# 
  1012     019E                     	;# 
  1013     019F                     	;# 
  1014     020D                     	;# 
  1015     0210                     	;# 
  1016     0211                     	;# 
  1017     0212                     	;# 
  1018     0213                     	;# 
  1019     0214                     	;# 
  1020     0215                     	;# 
  1021     0215                     	;# 
  1022     0216                     	;# 
  1023     0217                     	;# 
  1024     0291                     	;# 
  1025     0291                     	;# 
  1026     0292                     	;# 
  1027     0293                     	;# 
  1028     0294                     	;# 
  1029     0295                     	;# 
  1030     0295                     	;# 
  1031     0296                     	;# 
  1032     0298                     	;# 
  1033     0298                     	;# 
  1034     0299                     	;# 
  1035     029A                     	;# 
  1036     029B                     	;# 
  1037     029C                     	;# 
  1038     029C                     	;# 
  1039     029D                     	;# 
  1040     029E                     	;# 
  1041     029F                     	;# 
  1042     0311                     	;# 
  1043     0311                     	;# 
  1044     0312                     	;# 
  1045     0313                     	;# 
  1046     0314                     	;# 
  1047     0315                     	;# 
  1048     0315                     	;# 
  1049     0316                     	;# 
  1050     0318                     	;# 
  1051     0318                     	;# 
  1052     0319                     	;# 
  1053     031A                     	;# 
  1054     031C                     	;# 
  1055     031C                     	;# 
  1056     031D                     	;# 
  1057     031E                     	;# 
  1058     0394                     	;# 
  1059     0395                     	;# 
  1060     0396                     	;# 
  1061     0415                     	;# 
  1062     0416                     	;# 
  1063     0417                     	;# 
  1064     041C                     	;# 
  1065     041D                     	;# 
  1066     041E                     	;# 
  1067     0791                     	;# 
  1068     0792                     	;# 
  1069     0793                     	;# 
  1070     0794                     	;# 
  1071     0795                     	;# 
  1072     0798                     	;# 
  1073     0799                     	;# 
  1074     07A0                     	;# 
  1075     07A1                     	;# 
  1076     07A3                     	;# 
  1077     07A4                     	;# 
  1078     07A6                     	;# 
  1079     07A7                     	;# 
  1080     07A9                     	;# 
  1081     07AA                     	;# 
  1082     0FE4                     	;# 
  1083     0FE5                     	;# 
  1084     0FE6                     	;# 
  1085     0FE7                     	;# 
  1086     0FE8                     	;# 
  1087     0FE9                     	;# 
  1088     0FEA                     	;# 
  1089     0FEB                     	;# 
  1090     0FED                     	;# 
  1091     0FEE                     	;# 
  1092     0FEF                     	;# 
  1093     0000                     	;# 
  1094     0001                     	;# 
  1095     0002                     	;# 
  1096     0003                     	;# 
  1097     0004                     	;# 
  1098     0005                     	;# 
  1099     0006                     	;# 
  1100     0007                     	;# 
  1101     0008                     	;# 
  1102     0009                     	;# 
  1103     000A                     	;# 
  1104     000B                     	;# 
  1105     000C                     	;# 
  1106     000D                     	;# 
  1107     000E                     	;# 
  1108     0010                     	;# 
  1109     0011                     	;# 
  1110     0012                     	;# 
  1111     0013                     	;# 
  1112     0015                     	;# 
  1113     0016                     	;# 
  1114     0016                     	;# 
  1115     0017                     	;# 
  1116     0018                     	;# 
  1117     0019                     	;# 
  1118     001A                     	;# 
  1119     001B                     	;# 
  1120     001C                     	;# 
  1121     001E                     	;# 
  1122     001F                     	;# 
  1123     008C                     	;# 
  1124     008D                     	;# 
  1125     008E                     	;# 
  1126     0090                     	;# 
  1127     0091                     	;# 
  1128     0092                     	;# 
  1129     0093                     	;# 
  1130     0095                     	;# 
  1131     0096                     	;# 
  1132     0097                     	;# 
  1133     0098                     	;# 
  1134     0099                     	;# 
  1135     009A                     	;# 
  1136     009B                     	;# 
  1137     009B                     	;# 
  1138     009C                     	;# 
  1139     009D                     	;# 
  1140     009E                     	;# 
  1141     010C                     	;# 
  1142     010D                     	;# 
  1143     010E                     	;# 
  1144     0110                     	;# 
  1145     0111                     	;# 
  1146     0112                     	;# 
  1147     0113                     	;# 
  1148     0114                     	;# 
  1149     0115                     	;# 
  1150     0116                     	;# 
  1151     0117                     	;# 
  1152     0118                     	;# 
  1153     0119                     	;# 
  1154     011A                     	;# 
  1155     011B                     	;# 
  1156     011D                     	;# 
  1157     018C                     	;# 
  1158     018D                     	;# 
  1159     0191                     	;# 
  1160     0191                     	;# 
  1161     0192                     	;# 
  1162     0193                     	;# 
  1163     0193                     	;# 
  1164     0193                     	;# 
  1165     0194                     	;# 
  1166     0195                     	;# 
  1167     0196                     	;# 
  1168     0199                     	;# 
  1169     019A                     	;# 
  1170     019B                     	;# 
  1171     019B                     	;# 
  1172     019B                     	;# 
  1173     019B                     	;# 
  1174     019C                     	;# 
  1175     019C                     	;# 
  1176     019D                     	;# 
  1177     019E                     	;# 
  1178     019F                     	;# 
  1179     020D                     	;# 
  1180     0210                     	;# 
  1181     0211                     	;# 
  1182     0212                     	;# 
  1183     0213                     	;# 
  1184     0214                     	;# 
  1185     0215                     	;# 
  1186     0215                     	;# 
  1187     0216                     	;# 
  1188     0217                     	;# 
  1189     0291                     	;# 
  1190     0291                     	;# 
  1191     0292                     	;# 
  1192     0293                     	;# 
  1193     0294                     	;# 
  1194     0295                     	;# 
  1195     0295                     	;# 
  1196     0296                     	;# 
  1197     0298                     	;# 
  1198     0298                     	;# 
  1199     0299                     	;# 
  1200     029A                     	;# 
  1201     029B                     	;# 
  1202     029C                     	;# 
  1203     029C                     	;# 
  1204     029D                     	;# 
  1205     029E                     	;# 
  1206     029F                     	;# 
  1207     0311                     	;# 
  1208     0311                     	;# 
  1209     0312                     	;# 
  1210     0313                     	;# 
  1211     0314                     	;# 
  1212     0315                     	;# 
  1213     0315                     	;# 
  1214     0316                     	;# 
  1215     0318                     	;# 
  1216     0318                     	;# 
  1217     0319                     	;# 
  1218     031A                     	;# 
  1219     031C                     	;# 
  1220     031C                     	;# 
  1221     031D                     	;# 
  1222     031E                     	;# 
  1223     0394                     	;# 
  1224     0395                     	;# 
  1225     0396                     	;# 
  1226     0415                     	;# 
  1227     0416                     	;# 
  1228     0417                     	;# 
  1229     041C                     	;# 
  1230     041D                     	;# 
  1231     041E                     	;# 
  1232     0791                     	;# 
  1233     0792                     	;# 
  1234     0793                     	;# 
  1235     0794                     	;# 
  1236     0795                     	;# 
  1237     0798                     	;# 
  1238     0799                     	;# 
  1239     07A0                     	;# 
  1240     07A1                     	;# 
  1241     07A3                     	;# 
  1242     07A4                     	;# 
  1243     07A6                     	;# 
  1244     07A7                     	;# 
  1245     07A9                     	;# 
  1246     07AA                     	;# 
  1247     0FE4                     	;# 
  1248     0FE5                     	;# 
  1249     0FE6                     	;# 
  1250     0FE7                     	;# 
  1251     0FE8                     	;# 
  1252     0FE9                     	;# 
  1253     0FEA                     	;# 
  1254     0FEB                     	;# 
  1255     0FED                     	;# 
  1256     0FEE                     	;# 
  1257     0FEF                     	;# 
  1258     0000                     	;# 
  1259     0001                     	;# 
  1260     0002                     	;# 
  1261     0003                     	;# 
  1262     0004                     	;# 
  1263     0005                     	;# 
  1264     0006                     	;# 
  1265     0007                     	;# 
  1266     0008                     	;# 
  1267     0009                     	;# 
  1268     000A                     	;# 
  1269     000B                     	;# 
  1270     000C                     	;# 
  1271     000D                     	;# 
  1272     000E                     	;# 
  1273     0010                     	;# 
  1274     0011                     	;# 
  1275     0012                     	;# 
  1276     0013                     	;# 
  1277     0015                     	;# 
  1278     0016                     	;# 
  1279     0016                     	;# 
  1280     0017                     	;# 
  1281     0018                     	;# 
  1282     0019                     	;# 
  1283     001A                     	;# 
  1284     001B                     	;# 
  1285     001C                     	;# 
  1286     001E                     	;# 
  1287     001F                     	;# 
  1288     008C                     	;# 
  1289     008D                     	;# 
  1290     008E                     	;# 
  1291     0090                     	;# 
  1292     0091                     	;# 
  1293     0092                     	;# 
  1294     0093                     	;# 
  1295     0095                     	;# 
  1296     0096                     	;# 
  1297     0097                     	;# 
  1298     0098                     	;# 
  1299     0099                     	;# 
  1300     009A                     	;# 
  1301     009B                     	;# 
  1302     009B                     	;# 
  1303     009C                     	;# 
  1304     009D                     	;# 
  1305     009E                     	;# 
  1306     010C                     	;# 
  1307     010D                     	;# 
  1308     010E                     	;# 
  1309     0110                     	;# 
  1310     0111                     	;# 
  1311     0112                     	;# 
  1312     0113                     	;# 
  1313     0114                     	;# 
  1314     0115                     	;# 
  1315     0116                     	;# 
  1316     0117                     	;# 
  1317     0118                     	;# 
  1318     0119                     	;# 
  1319     011A                     	;# 
  1320     011B                     	;# 
  1321     011D                     	;# 
  1322     018C                     	;# 
  1323     018D                     	;# 
  1324     0191                     	;# 
  1325     0191                     	;# 
  1326     0192                     	;# 
  1327     0193                     	;# 
  1328     0193                     	;# 
  1329     0193                     	;# 
  1330     0194                     	;# 
  1331     0195                     	;# 
  1332     0196                     	;# 
  1333     0199                     	;# 
  1334     019A                     	;# 
  1335     019B                     	;# 
  1336     019B                     	;# 
  1337     019B                     	;# 
  1338     019B                     	;# 
  1339     019C                     	;# 
  1340     019C                     	;# 
  1341     019D                     	;# 
  1342     019E                     	;# 
  1343     019F                     	;# 
  1344     020D                     	;# 
  1345     0210                     	;# 
  1346     0211                     	;# 
  1347     0212                     	;# 
  1348     0213                     	;# 
  1349     0214                     	;# 
  1350     0215                     	;# 
  1351     0215                     	;# 
  1352     0216                     	;# 
  1353     0217                     	;# 
  1354     0291                     	;# 
  1355     0291                     	;# 
  1356     0292                     	;# 
  1357     0293                     	;# 
  1358     0294                     	;# 
  1359     0295                     	;# 
  1360     0295                     	;# 
  1361     0296                     	;# 
  1362     0298                     	;# 
  1363     0298                     	;# 
  1364     0299                     	;# 
  1365     029A                     	;# 
  1366     029B                     	;# 
  1367     029C                     	;# 
  1368     029C                     	;# 
  1369     029D                     	;# 
  1370     029E                     	;# 
  1371     029F                     	;# 
  1372     0311                     	;# 
  1373     0311                     	;# 
  1374     0312                     	;# 
  1375     0313                     	;# 
  1376     0314                     	;# 
  1377     0315                     	;# 
  1378     0315                     	;# 
  1379     0316                     	;# 
  1380     0318                     	;# 
  1381     0318                     	;# 
  1382     0319                     	;# 
  1383     031A                     	;# 
  1384     031C                     	;# 
  1385     031C                     	;# 
  1386     031D                     	;# 
  1387     031E                     	;# 
  1388     0394                     	;# 
  1389     0395                     	;# 
  1390     0396                     	;# 
  1391     0415                     	;# 
  1392     0416                     	;# 
  1393     0417                     	;# 
  1394     041C                     	;# 
  1395     041D                     	;# 
  1396     041E                     	;# 
  1397     0791                     	;# 
  1398     0792                     	;# 
  1399     0793                     	;# 
  1400     0794                     	;# 
  1401     0795                     	;# 
  1402     0798                     	;# 
  1403     0799                     	;# 
  1404     07A0                     	;# 
  1405     07A1                     	;# 
  1406     07A3                     	;# 
  1407     07A4                     	;# 
  1408     07A6                     	;# 
  1409     07A7                     	;# 
  1410     07A9                     	;# 
  1411     07AA                     	;# 
  1412     0FE4                     	;# 
  1413     0FE5                     	;# 
  1414     0FE6                     	;# 
  1415     0FE7                     	;# 
  1416     0FE8                     	;# 
  1417     0FE9                     	;# 
  1418     0FEA                     	;# 
  1419     0FEB                     	;# 
  1420     0FED                     	;# 
  1421     0FEE                     	;# 
  1422     0FEF                     	;# 
  1423                           
  1424                           	psect	idataBANK0
  1425     06C3                     __pidataBANK0:
  1426                           
  1427                           ;initializer for _LIN_timeout
  1428     06C3  340A               	retlw	10
  1429                           
  1430                           	psect	stringtext1
  1431     0669                     __pstringtext1:
  1432     0669                     _scheduleTable:
  1433     0669  3401               	retlw	1
  1434     066A  3400               	retlw	0
  1435     066B  3408               	retlw	8
  1436     066C  340F               	retlw	15
  1437     066D  3414               	retlw	20
  1438     066E  3444               	retlw	low (_SW_STATE_Data| 0)
  1439     066F                     __end_of_scheduleTable:
  1440     0015                     _TMR0	set	21
  1441     0011                     _PIR1bits	set	17
  1442     000B                     _INTCONbits	set	11
  1443     0095                     _OPTION_REG	set	149
  1444     0097                     _WDTCON	set	151
  1445     0098                     _OSCTUNE	set	152
  1446     0099                     _OSCCON	set	153
  1447     0095                     _OPTION_REGbits	set	149
  1448     008E                     _TRISC	set	142
  1449     008D                     _TRISB	set	141
  1450     008C                     _TRISA	set	140
  1451     0090                     _TRISE	set	144
  1452     0091                     _PIE1bits	set	145
  1453     04D6                     _PLLR	set	1238
  1454     0116                     _BORCON	set	278
  1455     011D                     _APFCON	set	285
  1456     010E                     _LATC	set	270
  1457     010D                     _LATB	set	269
  1458     010C                     _LATA	set	268
  1459     0110                     _LATE	set	272
  1460     018C                     _ANSELA	set	396
  1461     018D                     _ANSELB	set	397
  1462     0199                     _RCREG	set	409
  1463     019A                     _TXREG	set	410
  1464     019C                     _SPBRGH	set	412
  1465     019B                     _SPBRGL	set	411
  1466     019E                     _TXSTA	set	414
  1467     019D                     _RCSTA	set	413
  1468     019F                     _BAUDCON	set	415
  1469     019D                     _RCSTAbits	set	413
  1470     019E                     _TXSTAbits	set	414
  1471     020D                     _WPUB	set	525
  1472     0210                     _WPUE	set	528
  1473                           
  1474                           	psect	cinit
  1475     003A                     start_initialization:	
  1476                           ; #config settings
  1477                           
  1478     003A                     __initialization:
  1479                           
  1480                           ; Initialize objects allocated to BANK0
  1481     003A  3186  26C3  3180   	fcall	__pidataBANK0	;fetch initializer
  1482     003D  00E1               	movwf	__pdataBANK0& (0+127)
  1483                           
  1484                           ; Clear objects allocated to BANK0
  1485     003E  3020               	movlw	low __pbssBANK0
  1486     003F  0084               	movwf	4
  1487     0040  3000               	movlw	high __pbssBANK0
  1488     0041  0085               	movwf	5
  1489     0042  302C               	movlw	44
  1490     0043  3186  266F  3180   	fcall	clear_ram0
  1491                           
  1492                           ; Clear objects allocated to BANK1
  1493     0046  30A0               	movlw	low __pbssBANK1
  1494     0047  0084               	movwf	4
  1495     0048  3000               	movlw	high __pbssBANK1
  1496     0049  0085               	movwf	5
  1497     004A  302F               	movlw	47
  1498     004B  3186  266F  3180   	fcall	clear_ram0
  1499     004E                     end_of_initialization:	
  1500                           ;End of C runtime variable initialization code
  1501                           
  1502     004E                     __end_of__initialization:
  1503     004E  107E               	bcf	int$flags,0	;clear compiler interrupt flag (level 1)
  1504     004F  0020               	movlb	0
  1505     0050  3185  2DD9         	ljmp	_main	;jump to C main() function
  1506                           
  1507                           	psect	bssBANK0
  1508     0020                     __pbssBANK0:
  1509     0020                     _TMR0_InterruptHandler:
  1510     0020                     	ds	2
  1511     0022                     _EUSART_ErrorHandler:
  1512     0022                     	ds	2
  1513     0024                     _EUSART_OverrunErrorHandler:
  1514     0024                     	ds	2
  1515     0026                     _EUSART_FramingErrorHandler:
  1516     0026                     	ds	2
  1517     0028                     _EUSART_RxDefaultInterruptHandler:
  1518     0028                     	ds	2
  1519     002A                     _EUSART_TxDefaultInterruptHandler:
  1520     002A                     	ds	2
  1521     002C                     _data_send_cnt:
  1522     002C                     	ds	2
  1523     002E                     _schedule:
  1524     002E                     	ds	2
  1525     0030                     _LIN_processData:
  1526     0030                     	ds	2
  1527     0032                     _timer0ReloadVal:
  1528     0032                     	ds	1
  1529     0033                     _eusartRxLastError:
  1530     0033                     	ds	1
  1531     0034                     _eusartRxCount:
  1532     0034                     	ds	1
  1533     0035                     _eusartRxTail:
  1534     0035                     	ds	1
  1535     0036                     _eusartRxHead:
  1536     0036                     	ds	1
  1537     0037                     _eusartTxBufferRemaining:
  1538     0037                     	ds	1
  1539     0038                     _eusartTxTail:
  1540     0038                     	ds	1
  1541     0039                     _eusartTxHead:
  1542     0039                     	ds	1
  1543     003A                     LIN_sendPeriodicTx@scheduleIndex:
  1544     003A                     	ds	1
  1545     003B                     LIN_receivePacket@rxIndex:
  1546     003B                     	ds	1
  1547     003C                     LIN_handler@LIN_state:
  1548     003C                     	ds	1
  1549     003D                     _LIN_periodCallBack:
  1550     003D                     	ds	1
  1551     003E                     _LIN_timerCallBack:
  1552     003E                     	ds	1
  1553     003F                     _LIN_enablePeriodTx:
  1554     003F                     	ds	1
  1555     0040                     _LIN_timerRunning:
  1556     0040                     	ds	1
  1557     0041                     _LIN_period:
  1558     0041                     	ds	1
  1559     0042                     _scheduleLength:
  1560     0042                     	ds	1
  1561     0043                     _LIN_txReady:
  1562     0043                     	ds	1
  1563     0044                     _SW_STATE_Data:
  1564     0044                     	ds	8
  1565                           
  1566                           	psect	dataBANK0
  1567     0061                     __pdataBANK0:
  1568     0061                     _LIN_timeout:
  1569     0061                     	ds	1
  1570                           
  1571                           	psect	bssBANK1
  1572     00A0                     __pbssBANK1:
  1573     00A0                     _eusartRxStatusBuffer:
  1574     00A0                     	ds	8
  1575     00A8                     _eusartRxBuffer:
  1576     00A8                     	ds	8
  1577     00B0                     _eusartTxBuffer:
  1578     00B0                     	ds	8
  1579     00B8                     _LIN_rxPacket:
  1580     00B8                     	ds	12
  1581     00C4                     _LIN_packet:
  1582     00C4                     	ds	11
  1583                           
  1584                           	psect	clrtext
  1585     066F                     clear_ram0:	
  1586                           ;	Called with FSR0 containing the base address, and
  1587                           ;	WREG with the size to clear
  1588                           
  1589     066F  0064               	clrwdt	;clear the watchdog before getting into this loop
  1590     0670                     clrloop0:
  1591     0670  0180               	clrf	0	;clear RAM location pointed to by FSR
  1592     0671  3101               	addfsr 0,1
  1593     0672  0B89               	decfsz	9,f	;Have we reached the end of clearing yet?
  1594     0673  2E70               	goto	clrloop0	;have we reached the end yet?
  1595     0674  3400               	retlw	0	;all done for this memory range, return
  1596                           
  1597                           	psect	cstackBANK1
  1598     00CF                     __pcstackBANK1:
  1599     00CF                     processLIN@tempRxData:
  1600                           
  1601                           ; 8 bytes @ 0x0
  1602     00CF                     	ds	8
  1603     00D7                     processLIN@cmd:
  1604                           
  1605                           ; 1 bytes @ 0x8
  1606     00D7                     	ds	1
  1607                           
  1608                           	psect	cstackCOMMON
  1609     0070                     __pcstackCOMMON:
  1610     0070                     ?_LIN_stopTimer:
  1611     0070                     ?_LIN_setTimerHandler:	
  1612                           ; 1 bytes @ 0x0
  1613                           
  1614     0070                     ?_LIN_startPeriod:	
  1615                           ; 1 bytes @ 0x0
  1616                           
  1617     0070                     ?_LIN_calcParity:	
  1618                           ; 1 bytes @ 0x0
  1619                           
  1620     0070                     ??_LIN_calcParity:	
  1621                           ; 1 bytes @ 0x0
  1622                           
  1623     0070                     ?_LIN_disableRx:	
  1624                           ; 1 bytes @ 0x0
  1625                           
  1626     0070                     ?_LIN_sendPacket:	
  1627                           ; 1 bytes @ 0x0
  1628                           
  1629     0070                     ?_LIN_startTimer:	
  1630                           ; 1 bytes @ 0x0
  1631                           
  1632     0070                     ?_LIN_enableRx:	
  1633                           ; 1 bytes @ 0x0
  1634                           
  1635     0070                     ?_EUSART_is_rx_ready:	
  1636                           ; 1 bytes @ 0x0
  1637                           
  1638     0070                     ?_LIN_receivePacket:	
  1639                           ; 1 bytes @ 0x0
  1640                           
  1641     0070                     ?_EUSART_Read:	
  1642                           ; 1 bytes @ 0x0
  1643                           
  1644     0070                     ?_LIN_sendBreak:	
  1645                           ; 1 bytes @ 0x0
  1646                           
  1647     0070                     ?_EUSART_Write:	
  1648                           ; 1 bytes @ 0x0
  1649                           
  1650     0070                     ?_TMR0_WriteTimer:	
  1651                           ; 1 bytes @ 0x0
  1652                           
  1653     0070                     ?_LIN_sendPeriodicTx:	
  1654                           ; 1 bytes @ 0x0
  1655                           
  1656     0070                     ?_processLIN:	
  1657                           ; 1 bytes @ 0x0
  1658                           
  1659     0070                     ?_EUSART_Receive_ISR:	
  1660                           ; 1 bytes @ 0x0
  1661                           
  1662     0070                     ?_EUSART_Transmit_ISR:	
  1663                           ; 1 bytes @ 0x0
  1664                           
  1665     0070                     ??_EUSART_Transmit_ISR:	
  1666                           ; 1 bytes @ 0x0
  1667                           
  1668     0070                     ?_EUSART_DefaultFramingErrorHandler:	
  1669                           ; 1 bytes @ 0x0
  1670                           
  1671     0070                     ??_EUSART_DefaultFramingErrorHandler:	
  1672                           ; 1 bytes @ 0x0
  1673                           
  1674     0070                     ?_EUSART_DefaultOverrunErrorHandler:	
  1675                           ; 1 bytes @ 0x0
  1676                           
  1677     0070                     ??_EUSART_DefaultOverrunErrorHandler:	
  1678                           ; 1 bytes @ 0x0
  1679                           
  1680     0070                     ?_EUSART_DefaultErrorHandler:	
  1681                           ; 1 bytes @ 0x0
  1682                           
  1683     0070                     ?_EUSART_RxDataHandler:	
  1684                           ; 1 bytes @ 0x0
  1685                           
  1686     0070                     ??_EUSART_RxDataHandler:	
  1687                           ; 1 bytes @ 0x0
  1688                           
  1689     0070                     ?_TMR0_ISR:	
  1690                           ; 1 bytes @ 0x0
  1691                           
  1692     0070                     ?_OSCILLATOR_Initialize:	
  1693                           ; 1 bytes @ 0x0
  1694                           
  1695     0070                     ?_WDT_Initialize:	
  1696                           ; 1 bytes @ 0x0
  1697                           
  1698     0070                     ?_TMR0_Initialize:	
  1699                           ; 1 bytes @ 0x0
  1700                           
  1701     0070                     ?_TMR0_DefaultInterruptHandler:	
  1702                           ; 1 bytes @ 0x0
  1703                           
  1704     0070                     ??_TMR0_DefaultInterruptHandler:	
  1705                           ; 1 bytes @ 0x0
  1706                           
  1707     0070                     ?_LIN_handler:	
  1708                           ; 1 bytes @ 0x0
  1709                           
  1710     0070                     ?_LIN_getPacket:	
  1711                           ; 1 bytes @ 0x0
  1712                           
  1713     0070                     ?_LIN_timerHandler:	
  1714                           ; 1 bytes @ 0x0
  1715                           
  1716     0070                     ?_LIN_Master_Initialize:	
  1717                           ; 1 bytes @ 0x0
  1718                           
  1719     0070                     ?_EUSART_Initialize:	
  1720                           ; 1 bytes @ 0x0
  1721                           
  1722     0070                     ?_PIN_MANAGER_Initialize:	
  1723                           ; 1 bytes @ 0x0
  1724                           
  1725     0070                     ?_INTERRUPT_InterruptManager:	
  1726                           ; 1 bytes @ 0x0
  1727                           
  1728     0070                     ?_SYSTEM_Initialize:	
  1729                           ; 1 bytes @ 0x0
  1730                           
  1731     0070                     ?i1_LIN_getChecksum:	
  1732                           ; 1 bytes @ 0x0
  1733                           
  1734     0070                     ?i1_LIN_stopTimer:	
  1735                           ; 1 bytes @ 0x0
  1736                           
  1737     0070                     ??i1_LIN_stopTimer:	
  1738                           ; 1 bytes @ 0x0
  1739                           
  1740     0070                     ?_main:	
  1741                           ; 1 bytes @ 0x0
  1742                           
  1743     0070                     ?___wmul:	
  1744                           ; 2 bytes @ 0x0
  1745                           
  1746     0070                     ?i1_memcpy:	
  1747                           ; 2 bytes @ 0x0
  1748                           
  1749     0070                     ?i1_memset:	
  1750                           ; 2 bytes @ 0x0
  1751                           
  1752     0070                     i1LIN_getChecksum@pid:	
  1753                           ; 2 bytes @ 0x0
  1754                           
  1755     0070                     i1memcpy@s1:	
  1756                           ; 1 bytes @ 0x0
  1757                           
  1758     0070                     ___wmul@multiplier:	
  1759                           ; 1 bytes @ 0x0
  1760                           
  1761     0070                     i1memset@c:	
  1762                           ; 2 bytes @ 0x0
  1763                           
  1764                           
  1765                           ; 2 bytes @ 0x0
  1766     0070                     	ds	1
  1767     0071                     ??_EUSART_Receive_ISR:
  1768     0071                     ??_EUSART_DefaultErrorHandler:	
  1769                           ; 1 bytes @ 0x1
  1770                           
  1771     0071                     LIN_calcParity@CMD:	
  1772                           ; 1 bytes @ 0x1
  1773                           
  1774     0071                     i1LIN_getChecksum@data:	
  1775                           ; 1 bytes @ 0x1
  1776                           
  1777     0071                     i1memcpy@n:	
  1778                           ; 1 bytes @ 0x1
  1779                           
  1780                           
  1781                           ; 2 bytes @ 0x1
  1782     0071                     	ds	1
  1783     0072                     ??i1_LIN_getChecksum:
  1784     0072                     LIN_calcParity@PID:	
  1785                           ; 1 bytes @ 0x2
  1786                           
  1787     0072                     ___wmul@multiplicand:	
  1788                           ; 1 bytes @ 0x2
  1789                           
  1790     0072                     i1memset@n:	
  1791                           ; 2 bytes @ 0x2
  1792                           
  1793                           
  1794                           ; 2 bytes @ 0x2
  1795     0072                     	ds	1
  1796     0073                     ??i1_memcpy:
  1797                           
  1798                           ; 1 bytes @ 0x3
  1799     0073                     	ds	1
  1800     0074                     ??___wmul:
  1801     0074                     ??i1_memset:	
  1802                           ; 1 bytes @ 0x4
  1803                           
  1804     0074                     i1LIN_getChecksum@length:	
  1805                           ; 1 bytes @ 0x4
  1806                           
  1807     0074                     i1memcpy@d1:	
  1808                           ; 1 bytes @ 0x4
  1809                           
  1810     0074                     ___wmul@product:	
  1811                           ; 1 bytes @ 0x4
  1812                           
  1813                           
  1814                           ; 2 bytes @ 0x4
  1815     0074                     	ds	1
  1816     0075                     i1LIN_getChecksum@i:
  1817     0075                     i1memcpy@tmp:	
  1818                           ; 1 bytes @ 0x5
  1819                           
  1820     0075                     i1memset@dest:	
  1821                           ; 1 bytes @ 0x5
  1822                           
  1823                           
  1824                           ; 1 bytes @ 0x5
  1825     0075                     	ds	1
  1826     0076                     i1memcpy@d:
  1827     0076                     i1memset@p:	
  1828                           ; 1 bytes @ 0x6
  1829                           
  1830     0076                     i1LIN_getChecksum@checksum:	
  1831                           ; 1 bytes @ 0x6
  1832                           
  1833                           
  1834                           ; 2 bytes @ 0x6
  1835     0076                     	ds	1
  1836     0077                     i1memcpy@s:
  1837                           
  1838                           ; 1 bytes @ 0x7
  1839     0077                     	ds	1
  1840     0078                     ?_LIN_queuePacket:
  1841     0078                     LIN_queuePacket@data:	
  1842                           ; 1 bytes @ 0x8
  1843                           
  1844                           
  1845                           ; 1 bytes @ 0x8
  1846     0078                     	ds	1
  1847     0079                     ??_LIN_queuePacket:
  1848                           
  1849                           ; 1 bytes @ 0x9
  1850     0079                     	ds	4
  1851     007D                     ??_LIN_timerHandler:
  1852                           
  1853                           ; 1 bytes @ 0xD
  1854     007D                     	ds	1
  1855     007E                     ??_TMR0_ISR:
  1856     007E                     ??_INTERRUPT_InterruptManager:	
  1857                           ; 1 bytes @ 0xE
  1858                           
  1859                           
  1860                           	psect	cstackBANK0
  1861     004C                     __pcstackBANK0:	
  1862                           ; 1 bytes @ 0xE
  1863                           
  1864     004C                     LIN_queuePacket@cmd:
  1865                           
  1866                           ; 1 bytes @ 0x0
  1867     004C                     	ds	1
  1868     004D                     LIN_queuePacket@i:
  1869                           
  1870                           ; 1 bytes @ 0x1
  1871     004D                     	ds	1
  1872     004E                     LIN_queuePacket@tempSchedule:
  1873                           
  1874                           ; 2 bytes @ 0x2
  1875     004E                     	ds	2
  1876     0050                     ??_LIN_sendPeriodicTx:
  1877                           
  1878                           ; 1 bytes @ 0x4
  1879     0050                     	ds	3
  1880     0053                     LIN_sendPeriodicTx@periodicTx:
  1881                           
  1882                           ; 2 bytes @ 0x7
  1883     0053                     	ds	2
  1884     0055                     ??_LIN_stopTimer:
  1885     0055                     ??_LIN_startPeriod:	
  1886                           ; 1 bytes @ 0x9
  1887                           
  1888     0055                     ?_memset:	
  1889                           ; 1 bytes @ 0x9
  1890                           
  1891     0055                     ?_memcpy:	
  1892                           ; 1 bytes @ 0x9
  1893                           
  1894     0055                     ?_LIN_getChecksum:	
  1895                           ; 1 bytes @ 0x9
  1896                           
  1897     0055                     ??_LIN_disableRx:	
  1898                           ; 1 bytes @ 0x9
  1899                           
  1900     0055                     ??_LIN_enableRx:	
  1901                           ; 1 bytes @ 0x9
  1902                           
  1903     0055                     ??_EUSART_is_rx_ready:	
  1904                           ; 1 bytes @ 0x9
  1905                           
  1906     0055                     ??_EUSART_Read:	
  1907                           ; 1 bytes @ 0x9
  1908                           
  1909     0055                     ??_LIN_sendBreak:	
  1910                           ; 1 bytes @ 0x9
  1911                           
  1912     0055                     ??_EUSART_Write:	
  1913                           ; 1 bytes @ 0x9
  1914                           
  1915     0055                     ??_TMR0_WriteTimer:	
  1916                           ; 1 bytes @ 0x9
  1917                           
  1918     0055                     ?_TMR0_SetInterruptHandler:	
  1919                           ; 1 bytes @ 0x9
  1920                           
  1921     0055                     ?_EUSART_SetRxInterruptHandler:	
  1922                           ; 1 bytes @ 0x9
  1923                           
  1924     0055                     ?_EUSART_SetTxInterruptHandler:	
  1925                           ; 1 bytes @ 0x9
  1926                           
  1927     0055                     ?_EUSART_SetFramingErrorHandler:	
  1928                           ; 1 bytes @ 0x9
  1929                           
  1930     0055                     ?_EUSART_SetOverrunErrorHandler:	
  1931                           ; 1 bytes @ 0x9
  1932                           
  1933     0055                     ?_EUSART_SetErrorHandler:	
  1934                           ; 1 bytes @ 0x9
  1935                           
  1936     0055                     ??_OSCILLATOR_Initialize:	
  1937                           ; 1 bytes @ 0x9
  1938                           
  1939     0055                     ??_WDT_Initialize:	
  1940                           ; 1 bytes @ 0x9
  1941                           
  1942     0055                     ??_PIN_MANAGER_Initialize:	
  1943                           ; 1 bytes @ 0x9
  1944                           
  1945     0055                     LIN_getChecksum@pid:	
  1946                           ; 1 bytes @ 0x9
  1947                           
  1948     0055                     TMR0_WriteTimer@timerVal:	
  1949                           ; 1 bytes @ 0x9
  1950                           
  1951     0055                     memcpy@s1:	
  1952                           ; 1 bytes @ 0x9
  1953                           
  1954     0055                     EUSART_SetFramingErrorHandler@interruptHandler:	
  1955                           ; 1 bytes @ 0x9
  1956                           
  1957     0055                     EUSART_SetOverrunErrorHandler@interruptHandler:	
  1958                           ; 2 bytes @ 0x9
  1959                           
  1960     0055                     EUSART_SetErrorHandler@interruptHandler:	
  1961                           ; 2 bytes @ 0x9
  1962                           
  1963     0055                     EUSART_SetTxInterruptHandler@interruptHandler:	
  1964                           ; 2 bytes @ 0x9
  1965                           
  1966     0055                     EUSART_SetRxInterruptHandler@interruptHandler:	
  1967                           ; 2 bytes @ 0x9
  1968                           
  1969     0055                     TMR0_SetInterruptHandler@InterruptHandler:	
  1970                           ; 2 bytes @ 0x9
  1971                           
  1972     0055                     memset@c:	
  1973                           ; 2 bytes @ 0x9
  1974                           
  1975                           
  1976                           ; 2 bytes @ 0x9
  1977     0055                     	ds	1
  1978     0056                     ??_LIN_startTimer:
  1979     0056                     LIN_getChecksum@data:	
  1980                           ; 1 bytes @ 0xA
  1981                           
  1982     0056                     LIN_startTimer@timeout:	
  1983                           ; 1 bytes @ 0xA
  1984                           
  1985     0056                     EUSART_Read@readValue:	
  1986                           ; 1 bytes @ 0xA
  1987                           
  1988     0056                     EUSART_Write@txData:	
  1989                           ; 1 bytes @ 0xA
  1990                           
  1991     0056                     memcpy@n:	
  1992                           ; 1 bytes @ 0xA
  1993                           
  1994                           
  1995                           ; 2 bytes @ 0xA
  1996     0056                     	ds	1
  1997     0057                     ??_LIN_setTimerHandler:
  1998     0057                     ??_LIN_getChecksum:	
  1999                           ; 1 bytes @ 0xB
  2000                           
  2001     0057                     ??_LIN_sendPacket:	
  2002                           ; 1 bytes @ 0xB
  2003                           
  2004     0057                     ??_TMR0_SetInterruptHandler:	
  2005                           ; 1 bytes @ 0xB
  2006                           
  2007     0057                     ??_EUSART_SetRxInterruptHandler:	
  2008                           ; 1 bytes @ 0xB
  2009                           
  2010     0057                     ??_EUSART_SetTxInterruptHandler:	
  2011                           ; 1 bytes @ 0xB
  2012                           
  2013     0057                     ??_EUSART_SetFramingErrorHandler:	
  2014                           ; 1 bytes @ 0xB
  2015                           
  2016     0057                     ??_EUSART_SetOverrunErrorHandler:	
  2017                           ; 1 bytes @ 0xB
  2018                           
  2019     0057                     ??_EUSART_SetErrorHandler:	
  2020                           ; 1 bytes @ 0xB
  2021                           
  2022     0057                     ??_TMR0_Initialize:	
  2023                           ; 1 bytes @ 0xB
  2024                           
  2025     0057                     ?_LIN_init:	
  2026                           ; 1 bytes @ 0xB
  2027                           
  2028     0057                     ??_EUSART_Initialize:	
  2029                           ; 1 bytes @ 0xB
  2030                           
  2031     0057                     LIN_init@table:	
  2032                           ; 1 bytes @ 0xB
  2033                           
  2034     0057                     memset@n:	
  2035                           ; 2 bytes @ 0xB
  2036                           
  2037                           
  2038                           ; 2 bytes @ 0xB
  2039     0057                     	ds	1
  2040     0058                     ??_memcpy:
  2041     0058                     LIN_sendPacket@i:	
  2042                           ; 1 bytes @ 0xC
  2043                           
  2044                           
  2045                           ; 1 bytes @ 0xC
  2046     0058                     	ds	1
  2047     0059                     ??_memset:
  2048     0059                     LIN_getChecksum@length:	
  2049                           ; 1 bytes @ 0xD
  2050                           
  2051     0059                     memcpy@tmp:	
  2052                           ; 1 bytes @ 0xD
  2053                           
  2054     0059                     LIN_init@processData:	
  2055                           ; 1 bytes @ 0xD
  2056                           
  2057                           
  2058                           ; 2 bytes @ 0xD
  2059     0059                     	ds	1
  2060     005A                     LIN_getChecksum@i:
  2061     005A                     memcpy@d:	
  2062                           ; 1 bytes @ 0xE
  2063                           
  2064     005A                     memset@p:	
  2065                           ; 1 bytes @ 0xE
  2066                           
  2067                           
  2068                           ; 1 bytes @ 0xE
  2069     005A                     	ds	1
  2070     005B                     ??_LIN_init:
  2071     005B                     LIN_init@tableLength:	
  2072                           ; 1 bytes @ 0xF
  2073                           
  2074     005B                     memcpy@s:	
  2075                           ; 1 bytes @ 0xF
  2076                           
  2077     005B                     memset@dest:	
  2078                           ; 1 bytes @ 0xF
  2079                           
  2080     005B                     LIN_getChecksum@checksum:	
  2081                           ; 1 bytes @ 0xF
  2082                           
  2083                           
  2084                           ; 2 bytes @ 0xF
  2085     005B                     	ds	1
  2086     005C                     ??_LIN_Master_Initialize:
  2087     005C                     ??_SYSTEM_Initialize:	
  2088                           ; 1 bytes @ 0x10
  2089                           
  2090     005C                     memcpy@d1:	
  2091                           ; 1 bytes @ 0x10
  2092                           
  2093                           
  2094                           ; 1 bytes @ 0x10
  2095     005C                     	ds	1
  2096     005D                     ??_LIN_receivePacket:
  2097     005D                     ??_LIN_getPacket:	
  2098                           ; 1 bytes @ 0x11
  2099                           
  2100     005D                     LIN_getPacket@data:	
  2101                           ; 1 bytes @ 0x11
  2102                           
  2103                           
  2104                           ; 1 bytes @ 0x11
  2105     005D                     	ds	1
  2106     005E                     LIN_getPacket@cmd:
  2107                           
  2108                           ; 1 bytes @ 0x12
  2109     005E                     	ds	1
  2110     005F                     ??_processLIN:
  2111     005F                     ??_LIN_handler:	
  2112                           ; 1 bytes @ 0x13
  2113                           
  2114                           
  2115                           ; 1 bytes @ 0x13
  2116     005F                     	ds	2
  2117     0061                     ??_main:
  2118                           
  2119                           	psect	maintext
  2120     05D9                     __pmaintext:	
  2121                           ; 1 bytes @ 0x15
  2122 ;;
  2123 ;;Main: autosize = 0, tempsize = 0, incstack = 0, save=0
  2124 ;;
  2125 ;; *************** function _main *****************
  2126 ;; Defined at:
  2127 ;;		line 188 in file "main.c"
  2128 ;; Parameters:    Size  Location     Type
  2129 ;;		None
  2130 ;; Auto vars:     Size  Location     Type
  2131 ;;		None
  2132 ;; Return value:  Size  Location     Type
  2133 ;;                  2  510[None  ] int 
  2134 ;; Registers used:
  2135 ;;		wreg, fsr0l, fsr0h, fsr1l, fsr1h, status,2, status,0, pclath, cstack
  2136 ;; Tracked objects:
  2137 ;;		On entry : B1F/0
  2138 ;;		On exit  : 0/0
  2139 ;;		Unchanged: 0/0
  2140 ;; Data sizes:     COMMON   BANK0   BANK1   BANK2   BANK3   BANK4   BANK5   BANK6
  2141 ;;      Params:         0       0       0       0       0       0       0       0
  2142 ;;      Locals:         0       0       0       0       0       0       0       0
  2143 ;;      Temps:          0       0       0       0       0       0       0       0
  2144 ;;      Totals:         0       0       0       0       0       0       0       0
  2145 ;;Total ram usage:        0 bytes
  2146 ;; Hardware stack levels required when called: 11
  2147 ;; This function calls:
  2148 ;;		_LIN_handler
  2149 ;;		_SYSTEM_Initialize
  2150 ;; This function is called by:
  2151 ;;		Startup code after reset
  2152 ;; This function uses a non-reentrant model
  2153 ;;
  2154                           
  2155     05D9                     _main:	
  2156                           ;psect for function _main
  2157                           
  2158     05D9                     l2648:	
  2159                           ;incstack = 0
  2160                           ; Regs used in _main: [wreg-fsr1h+status,2+status,0+pclath+cstack]
  2161                           
  2162                           
  2163                           ;main.c: 190:   SYSTEM_Initialize();
  2164     05D9  3186  2601  3185   	fcall	_SYSTEM_Initialize
  2165     05DC                     l2650:
  2166                           
  2167                           ;main.c: 196:   (INTCONbits.GIE = 1);
  2168     05DC  178B               	bsf	11,7	;volatile
  2169     05DD                     l2652:
  2170                           
  2171                           ;main.c: 198:   (INTCONbits.PEIE = 1);
  2172     05DD  170B               	bsf	11,6	;volatile
  2173     05DE                     l2654:
  2174                           
  2175                           ;main.c: 200:   SW_STATE_Data[0] = 0x00;
  2176     05DE  0020               	movlb	0	; select bank0
  2177     05DF  01C4               	clrf	_SW_STATE_Data
  2178     05E0                     l2656:
  2179                           
  2180                           ;main.c: 201:   SW_STATE_Data[1] = 0x00;
  2181     05E0  01C5               	clrf	_SW_STATE_Data+1
  2182     05E1                     l2658:
  2183                           
  2184                           ;main.c: 202:   SW_STATE_Data[2] = 0x00;
  2185     05E1  01C6               	clrf	_SW_STATE_Data+2
  2186     05E2                     l2660:
  2187                           
  2188                           ;main.c: 203:   SW_STATE_Data[3] = 0x00;
  2189     05E2  01C7               	clrf	_SW_STATE_Data+3
  2190     05E3                     l2662:
  2191                           
  2192                           ;main.c: 204:   SW_STATE_Data[4] = 0x00;
  2193     05E3  01C8               	clrf	_SW_STATE_Data+4
  2194     05E4                     l2664:
  2195                           
  2196                           ;main.c: 205:   SW_STATE_Data[5] = 0x00;
  2197     05E4  01C9               	clrf	_SW_STATE_Data+5
  2198     05E5                     l2666:
  2199                           
  2200                           ;main.c: 206:   SW_STATE_Data[6] = 0x00;
  2201     05E5  01CA               	clrf	_SW_STATE_Data+6
  2202     05E6                     l2668:
  2203                           
  2204                           ;main.c: 207:   SW_STATE_Data[7] = 0x00;
  2205     05E6  01CB               	clrf	_SW_STATE_Data+7
  2206     05E7                     l2670:
  2207                           
  2208                           ;main.c: 211:     LIN_handler();
  2209     05E7  3182  229D  3185   	fcall	_LIN_handler
  2210     05EA  2DE7               	goto	l2670
  2211     05EB  3180  2838         	ljmp	start
  2212     05ED                     __end_of_main:
  2213                           
  2214                           	psect	text1
  2215     0601                     __ptext1:	
  2216 ;; *************** function _SYSTEM_Initialize *****************
  2217 ;; Defined at:
  2218 ;;		line 50 in file "mcc_generated_files/mcc.c"
  2219 ;; Parameters:    Size  Location     Type
  2220 ;;		None
  2221 ;; Auto vars:     Size  Location     Type
  2222 ;;		None
  2223 ;; Return value:  Size  Location     Type
  2224 ;;                  1    wreg      void 
  2225 ;; Registers used:
  2226 ;;		wreg, status,2, status,0, pclath, cstack
  2227 ;; Tracked objects:
  2228 ;;		On entry : 0/0
  2229 ;;		On exit  : 0/0
  2230 ;;		Unchanged: 0/0
  2231 ;; Data sizes:     COMMON   BANK0   BANK1   BANK2   BANK3   BANK4   BANK5   BANK6
  2232 ;;      Params:         0       0       0       0       0       0       0       0
  2233 ;;      Locals:         0       0       0       0       0       0       0       0
  2234 ;;      Temps:          0       0       0       0       0       0       0       0
  2235 ;;      Totals:         0       0       0       0       0       0       0       0
  2236 ;;Total ram usage:        0 bytes
  2237 ;; Hardware stack levels used: 1
  2238 ;; Hardware stack levels required when called: 10
  2239 ;; This function calls:
  2240 ;;		_EUSART_Initialize
  2241 ;;		_LIN_Master_Initialize
  2242 ;;		_OSCILLATOR_Initialize
  2243 ;;		_PIN_MANAGER_Initialize
  2244 ;;		_TMR0_Initialize
  2245 ;;		_WDT_Initialize
  2246 ;; This function is called by:
  2247 ;;		_main
  2248 ;; This function uses a non-reentrant model
  2249 ;;
  2250                           
  2251     0601                     _SYSTEM_Initialize:	
  2252                           ;psect for function _SYSTEM_Initialize
  2253                           
  2254     0601                     l2630:	
  2255                           ;incstack = 0
  2256                           ; Regs used in _SYSTEM_Initialize: [wreg+status,2+status,0+pclath+cstack]
  2257                           
  2258                           
  2259                           ;mcc_generated_files/mcc.c: 53:     PIN_MANAGER_Initialize();
  2260     0601  3185  2576  3186   	fcall	_PIN_MANAGER_Initialize
  2261                           
  2262                           ;mcc_generated_files/mcc.c: 54:     OSCILLATOR_Initialize();
  2263     0604  3186  263F  3186   	fcall	_OSCILLATOR_Initialize
  2264                           
  2265                           ;mcc_generated_files/mcc.c: 55:     WDT_Initialize();
  2266     0607  3186  26A8  3186   	fcall	_WDT_Initialize
  2267                           
  2268                           ;mcc_generated_files/mcc.c: 56:     TMR0_Initialize();
  2269     060A  3185  25ED  3186   	fcall	_TMR0_Initialize
  2270                           
  2271                           ;mcc_generated_files/mcc.c: 57:     EUSART_Initialize();
  2272     060D  3183  2313  3186   	fcall	_EUSART_Initialize
  2273                           
  2274                           ;mcc_generated_files/mcc.c: 58:     LIN_Master_Initialize();
  2275     0610  3186  2624  3186   	fcall	_LIN_Master_Initialize
  2276     0613                     l451:
  2277     0613  0008               	return
  2278     0614                     __end_of_SYSTEM_Initialize:
  2279                           
  2280                           	psect	text2
  2281     06A8                     __ptext2:	
  2282 ;; *************** function _WDT_Initialize *****************
  2283 ;; Defined at:
  2284 ;;		line 75 in file "mcc_generated_files/mcc.c"
  2285 ;; Parameters:    Size  Location     Type
  2286 ;;		None
  2287 ;; Auto vars:     Size  Location     Type
  2288 ;;		None
  2289 ;; Return value:  Size  Location     Type
  2290 ;;                  1    wreg      void 
  2291 ;; Registers used:
  2292 ;;		wreg
  2293 ;; Tracked objects:
  2294 ;;		On entry : 0/0
  2295 ;;		On exit  : 0/0
  2296 ;;		Unchanged: 0/0
  2297 ;; Data sizes:     COMMON   BANK0   BANK1   BANK2   BANK3   BANK4   BANK5   BANK6
  2298 ;;      Params:         0       0       0       0       0       0       0       0
  2299 ;;      Locals:         0       0       0       0       0       0       0       0
  2300 ;;      Temps:          0       0       0       0       0       0       0       0
  2301 ;;      Totals:         0       0       0       0       0       0       0       0
  2302 ;;Total ram usage:        0 bytes
  2303 ;; Hardware stack levels used: 1
  2304 ;; Hardware stack levels required when called: 6
  2305 ;; This function calls:
  2306 ;;		Nothing
  2307 ;; This function is called by:
  2308 ;;		_SYSTEM_Initialize
  2309 ;; This function uses a non-reentrant model
  2310 ;;
  2311                           
  2312     06A8                     _WDT_Initialize:	
  2313                           ;psect for function _WDT_Initialize
  2314                           
  2315     06A8                     l2188:	
  2316                           ;incstack = 0
  2317                           ; Regs used in _WDT_Initialize: [wreg]
  2318                           
  2319                           
  2320                           ;mcc_generated_files/mcc.c: 78:     WDTCON = 0x12;
  2321     06A8  3012               	movlw	18
  2322     06A9  0021               	movlb	1	; select bank1
  2323     06AA  0097               	movwf	23	;volatile
  2324     06AB                     l460:
  2325     06AB  0008               	return
  2326     06AC                     __end_of_WDT_Initialize:
  2327                           
  2328                           	psect	text3
  2329     05ED                     __ptext3:	
  2330 ;; *************** function _TMR0_Initialize *****************
  2331 ;; Defined at:
  2332 ;;		line 64 in file "mcc_generated_files/tmr0.c"
  2333 ;; Parameters:    Size  Location     Type
  2334 ;;		None
  2335 ;; Auto vars:     Size  Location     Type
  2336 ;;		None
  2337 ;; Return value:  Size  Location     Type
  2338 ;;                  1    wreg      void 
  2339 ;; Registers used:
  2340 ;;		wreg, status,2, status,0, pclath, cstack
  2341 ;; Tracked objects:
  2342 ;;		On entry : 0/0
  2343 ;;		On exit  : 0/0
  2344 ;;		Unchanged: 0/0
  2345 ;; Data sizes:     COMMON   BANK0   BANK1   BANK2   BANK3   BANK4   BANK5   BANK6
  2346 ;;      Params:         0       0       0       0       0       0       0       0
  2347 ;;      Locals:         0       0       0       0       0       0       0       0
  2348 ;;      Temps:          0       0       0       0       0       0       0       0
  2349 ;;      Totals:         0       0       0       0       0       0       0       0
  2350 ;;Total ram usage:        0 bytes
  2351 ;; Hardware stack levels used: 1
  2352 ;; Hardware stack levels required when called: 7
  2353 ;; This function calls:
  2354 ;;		_TMR0_SetInterruptHandler
  2355 ;; This function is called by:
  2356 ;;		_SYSTEM_Initialize
  2357 ;; This function uses a non-reentrant model
  2358 ;;
  2359                           
  2360     05ED                     _TMR0_Initialize:	
  2361                           ;psect for function _TMR0_Initialize
  2362                           
  2363     05ED                     l2190:	
  2364                           ;incstack = 0
  2365                           ; Regs used in _TMR0_Initialize: [wreg+status,2+status,0+pclath+cstack]
  2366                           
  2367                           
  2368                           ;mcc_generated_files/tmr0.c: 69:     OPTION_REG = (uint8_t)((OPTION_REG & 0xC0) | (0xD4 
      +                          & 0x3F));
  2369     05ED  0021               	movlb	1	; select bank1
  2370     05EE  0815               	movf	21,w	;volatile
  2371     05EF  39C0               	andlw	192
  2372     05F0  3814               	iorlw	20
  2373     05F1  0095               	movwf	21	;volatile
  2374     05F2                     l2192:
  2375                           
  2376                           ;mcc_generated_files/tmr0.c: 72:     TMR0 = 0x06;
  2377     05F2  3006               	movlw	6
  2378     05F3  0020               	movlb	0	; select bank0
  2379     05F4  0095               	movwf	21	;volatile
  2380     05F5                     l2194:
  2381                           
  2382                           ;mcc_generated_files/tmr0.c: 75:     timer0ReloadVal= 6;
  2383     05F5  3006               	movlw	6
  2384     05F6  00B2               	movwf	_timer0ReloadVal	;volatile
  2385     05F7                     l2196:
  2386                           
  2387                           ;mcc_generated_files/tmr0.c: 78:     INTCONbits.TMR0IF = 0;
  2388     05F7  110B               	bcf	11,2	;volatile
  2389     05F8                     l2198:
  2390                           
  2391                           ;mcc_generated_files/tmr0.c: 81:     INTCONbits.TMR0IE = 1;
  2392     05F8  168B               	bsf	11,5	;volatile
  2393     05F9                     l2200:
  2394                           
  2395                           ;mcc_generated_files/tmr0.c: 84:     TMR0_SetInterruptHandler(TMR0_DefaultInterruptHandl
      +                          er);
  2396     05F9  30C4               	movlw	low _TMR0_DefaultInterruptHandler
  2397     05FA  00D5               	movwf	TMR0_SetInterruptHandler@InterruptHandler
  2398     05FB  3006               	movlw	high _TMR0_DefaultInterruptHandler
  2399     05FC  00D6               	movwf	TMR0_SetInterruptHandler@InterruptHandler+1
  2400     05FD  3186  2675  3185   	fcall	_TMR0_SetInterruptHandler
  2401     0600                     l477:
  2402     0600  0008               	return
  2403     0601                     __end_of_TMR0_Initialize:
  2404                           
  2405                           	psect	text4
  2406     0576                     __ptext4:	
  2407 ;; *************** function _PIN_MANAGER_Initialize *****************
  2408 ;; Defined at:
  2409 ;;		line 55 in file "mcc_generated_files/pin_manager.c"
  2410 ;; Parameters:    Size  Location     Type
  2411 ;;		None
  2412 ;; Auto vars:     Size  Location     Type
  2413 ;;		None
  2414 ;; Return value:  Size  Location     Type
  2415 ;;                  1    wreg      void 
  2416 ;; Registers used:
  2417 ;;		wreg, status,2
  2418 ;; Tracked objects:
  2419 ;;		On entry : 0/0
  2420 ;;		On exit  : 0/0
  2421 ;;		Unchanged: 0/0
  2422 ;; Data sizes:     COMMON   BANK0   BANK1   BANK2   BANK3   BANK4   BANK5   BANK6
  2423 ;;      Params:         0       0       0       0       0       0       0       0
  2424 ;;      Locals:         0       0       0       0       0       0       0       0
  2425 ;;      Temps:          0       0       0       0       0       0       0       0
  2426 ;;      Totals:         0       0       0       0       0       0       0       0
  2427 ;;Total ram usage:        0 bytes
  2428 ;; Hardware stack levels used: 1
  2429 ;; Hardware stack levels required when called: 6
  2430 ;; This function calls:
  2431 ;;		Nothing
  2432 ;; This function is called by:
  2433 ;;		_SYSTEM_Initialize
  2434 ;; This function uses a non-reentrant model
  2435 ;;
  2436                           
  2437     0576                     _PIN_MANAGER_Initialize:	
  2438                           ;psect for function _PIN_MANAGER_Initialize
  2439                           
  2440     0576                     l2162:	
  2441                           ;incstack = 0
  2442                           ; Regs used in _PIN_MANAGER_Initialize: [wreg+status,2]
  2443                           
  2444                           
  2445                           ;mcc_generated_files/pin_manager.c: 60:     LATE = 0x00;
  2446     0576  0022               	movlb	2	; select bank2
  2447     0577  0190               	clrf	16	;volatile
  2448                           
  2449                           ;mcc_generated_files/pin_manager.c: 61:     LATA = 0x00;
  2450     0578  018C               	clrf	12	;volatile
  2451                           
  2452                           ;mcc_generated_files/pin_manager.c: 62:     LATB = 0x00;
  2453     0579  018D               	clrf	13	;volatile
  2454                           
  2455                           ;mcc_generated_files/pin_manager.c: 63:     LATC = 0x00;
  2456     057A  018E               	clrf	14	;volatile
  2457     057B                     l2164:
  2458                           
  2459                           ;mcc_generated_files/pin_manager.c: 68:     TRISE = 0x08;
  2460     057B  3008               	movlw	8
  2461     057C  0021               	movlb	1	; select bank1
  2462     057D  0090               	movwf	16	;volatile
  2463     057E                     l2166:
  2464                           
  2465                           ;mcc_generated_files/pin_manager.c: 69:     TRISA = 0xFF;
  2466     057E  30FF               	movlw	255
  2467     057F  008C               	movwf	12	;volatile
  2468     0580                     l2168:
  2469                           
  2470                           ;mcc_generated_files/pin_manager.c: 70:     TRISB = 0xC0;
  2471     0580  30C0               	movlw	192
  2472     0581  008D               	movwf	13	;volatile
  2473     0582                     l2170:
  2474                           
  2475                           ;mcc_generated_files/pin_manager.c: 71:     TRISC = 0xBF;
  2476     0582  30BF               	movlw	191
  2477     0583  008E               	movwf	14	;volatile
  2478                           
  2479                           ;mcc_generated_files/pin_manager.c: 76:     ANSELB = 0x00;
  2480     0584  0023               	movlb	3	; select bank3
  2481     0585  018D               	clrf	13	;volatile
  2482     0586                     l2172:
  2483                           
  2484                           ;mcc_generated_files/pin_manager.c: 77:     ANSELA = 0x20;
  2485     0586  3020               	movlw	32
  2486     0587  008C               	movwf	12	;volatile
  2487     0588                     l2174:
  2488                           
  2489                           ;mcc_generated_files/pin_manager.c: 82:     WPUE = 0x00;
  2490     0588  0024               	movlb	4	; select bank4
  2491     0589  0190               	clrf	16	;volatile
  2492     058A                     l2176:
  2493                           
  2494                           ;mcc_generated_files/pin_manager.c: 83:     WPUB = 0x00;
  2495     058A  018D               	clrf	13	;volatile
  2496     058B                     l2178:
  2497                           
  2498                           ;mcc_generated_files/pin_manager.c: 84:     OPTION_REGbits.nWPUEN = 1;
  2499     058B  0021               	movlb	1	; select bank1
  2500     058C  1795               	bsf	21,7	;volatile
  2501     058D                     l2180:
  2502                           
  2503                           ;mcc_generated_files/pin_manager.c: 90:     APFCON = 0x00;
  2504     058D  0022               	movlb	2	; select bank2
  2505     058E  019D               	clrf	29	;volatile
  2506     058F                     l390:
  2507     058F  0008               	return
  2508     0590                     __end_of_PIN_MANAGER_Initialize:
  2509                           
  2510                           	psect	text5
  2511     063F                     __ptext5:	
  2512 ;; *************** function _OSCILLATOR_Initialize *****************
  2513 ;; Defined at:
  2514 ;;		line 61 in file "mcc_generated_files/mcc.c"
  2515 ;; Parameters:    Size  Location     Type
  2516 ;;		None
  2517 ;; Auto vars:     Size  Location     Type
  2518 ;;		None
  2519 ;; Return value:  Size  Location     Type
  2520 ;;                  1    wreg      void 
  2521 ;; Registers used:
  2522 ;;		wreg, status,2
  2523 ;; Tracked objects:
  2524 ;;		On entry : 0/0
  2525 ;;		On exit  : 0/0
  2526 ;;		Unchanged: 0/0
  2527 ;; Data sizes:     COMMON   BANK0   BANK1   BANK2   BANK3   BANK4   BANK5   BANK6
  2528 ;;      Params:         0       0       0       0       0       0       0       0
  2529 ;;      Locals:         0       0       0       0       0       0       0       0
  2530 ;;      Temps:          0       0       0       0       0       0       0       0
  2531 ;;      Totals:         0       0       0       0       0       0       0       0
  2532 ;;Total ram usage:        0 bytes
  2533 ;; Hardware stack levels used: 1
  2534 ;; Hardware stack levels required when called: 6
  2535 ;; This function calls:
  2536 ;;		Nothing
  2537 ;; This function is called by:
  2538 ;;		_SYSTEM_Initialize
  2539 ;; This function uses a non-reentrant model
  2540 ;;
  2541                           
  2542     063F                     _OSCILLATOR_Initialize:	
  2543                           ;psect for function _OSCILLATOR_Initialize
  2544                           
  2545     063F                     l2182:	
  2546                           ;incstack = 0
  2547                           ; Regs used in _OSCILLATOR_Initialize: [wreg+status,2]
  2548                           
  2549                           
  2550                           ;mcc_generated_files/mcc.c: 64:     OSCCON = 0x70;
  2551     063F  3070               	movlw	112
  2552     0640  0021               	movlb	1	; select bank1
  2553     0641  0099               	movwf	25	;volatile
  2554     0642                     l2184:
  2555                           
  2556                           ;mcc_generated_files/mcc.c: 66:     OSCTUNE = 0x00;
  2557     0642  0198               	clrf	24	;volatile
  2558     0643                     l2186:
  2559                           
  2560                           ;mcc_generated_files/mcc.c: 68:     BORCON = 0x00;
  2561     0643  0022               	movlb	2	; select bank2
  2562     0644  0196               	clrf	22	;volatile
  2563     0645                     l454:	
  2564                           ;mcc_generated_files/mcc.c: 71:     {;mcc_generated_files/mcc.c: 72:     }
  2565                           
  2566                           
  2567                           ;mcc_generated_files/mcc.c: 70:     while(PLLR == 0)
  2568     0645  0021               	movlb	1	; select bank1
  2569     0646  1F1A               	btfss	26,6	;volatile
  2570     0647  2E49               	goto	u1611
  2571     0648  2E4A               	goto	u1610
  2572     0649                     u1611:
  2573     0649  2E45               	goto	l454
  2574     064A                     u1610:
  2575     064A                     l457:
  2576     064A  0008               	return
  2577     064B                     __end_of_OSCILLATOR_Initialize:
  2578                           
  2579                           	psect	text6
  2580     0624                     __ptext6:	
  2581 ;; *************** function _LIN_Master_Initialize *****************
  2582 ;; Defined at:
  2583 ;;		line 43 in file "mcc_generated_files/LINDrivers/lin_app.c"
  2584 ;; Parameters:    Size  Location     Type
  2585 ;;		None
  2586 ;; Auto vars:     Size  Location     Type
  2587 ;;		None
  2588 ;; Return value:  Size  Location     Type
  2589 ;;                  1    wreg      void 
  2590 ;; Registers used:
  2591 ;;		wreg, status,2, status,0, pclath, cstack
  2592 ;; Tracked objects:
  2593 ;;		On entry : 0/0
  2594 ;;		On exit  : 0/0
  2595 ;;		Unchanged: 0/0
  2596 ;; Data sizes:     COMMON   BANK0   BANK1   BANK2   BANK3   BANK4   BANK5   BANK6
  2597 ;;      Params:         0       0       0       0       0       0       0       0
  2598 ;;      Locals:         0       0       0       0       0       0       0       0
  2599 ;;      Temps:          0       0       0       0       0       0       0       0
  2600 ;;      Totals:         0       0       0       0       0       0       0       0
  2601 ;;Total ram usage:        0 bytes
  2602 ;; Hardware stack levels used: 1
  2603 ;; Hardware stack levels required when called: 9
  2604 ;; This function calls:
  2605 ;;		_LIN_init
  2606 ;; This function is called by:
  2607 ;;		_SYSTEM_Initialize
  2608 ;; This function uses a non-reentrant model
  2609 ;;
  2610                           
  2611     0624                     _LIN_Master_Initialize:	
  2612                           ;psect for function _LIN_Master_Initialize
  2613                           
  2614     0624                     l2566:	
  2615                           ;incstack = 0
  2616                           ; Regs used in _LIN_Master_Initialize: [wreg+status,2+status,0+pclath+cstack]
  2617                           
  2618                           
  2619                           ;mcc_generated_files/LINDrivers/lin_app.c: 45:     LIN_init((sizeof(scheduleTable)/sizeo
      +                          f(lin_cmd_packet_t)), scheduleTable, processLIN);
  2620     0624  3069               	movlw	low (_scheduleTable| (0+32768))
  2621     0625  0020               	movlb	0	; select bank0
  2622     0626  00D7               	movwf	LIN_init@table
  2623     0627  3086               	movlw	high (_scheduleTable| (0+32768))
  2624     0628  00D8               	movwf	LIN_init@table+1
  2625     0629  304B               	movlw	low _processLIN
  2626     062A  00D9               	movwf	LIN_init@processData
  2627     062B  3006               	movlw	high _processLIN
  2628     062C  00DA               	movwf	LIN_init@processData+1
  2629     062D  3001               	movlw	1
  2630     062E  3185  25C3  3186   	fcall	_LIN_init
  2631     0631                     l208:
  2632     0631  0008               	return
  2633     0632                     __end_of_LIN_Master_Initialize:
  2634                           
  2635                           	psect	text7
  2636     05C3                     __ptext7:	
  2637 ;; *************** function _LIN_init *****************
  2638 ;; Defined at:
  2639 ;;		line 62 in file "mcc_generated_files/LINDrivers/lin_master.c"
  2640 ;; Parameters:    Size  Location     Type
  2641 ;;  tableLength     1    wreg     unsigned char 
  2642 ;;  table           2   11[BANK0 ] const PTR const struct .
  2643 ;;		 -> scheduleTable(6), 
  2644 ;;  processData     2   13[BANK0 ] PTR FTN()void 
  2645 ;;		 -> processLIN(1), 
  2646 ;; Auto vars:     Size  Location     Type
  2647 ;;  tableLength     1   15[BANK0 ] unsigned char 
  2648 ;; Return value:  Size  Location     Type
  2649 ;;                  1    wreg      void 
  2650 ;; Registers used:
  2651 ;;		wreg, status,2, status,0, pclath, cstack
  2652 ;; Tracked objects:
  2653 ;;		On entry : 0/0
  2654 ;;		On exit  : 0/0
  2655 ;;		Unchanged: 0/0
  2656 ;; Data sizes:     COMMON   BANK0   BANK1   BANK2   BANK3   BANK4   BANK5   BANK6
  2657 ;;      Params:         0       4       0       0       0       0       0       0
  2658 ;;      Locals:         0       1       0       0       0       0       0       0
  2659 ;;      Temps:          0       0       0       0       0       0       0       0
  2660 ;;      Totals:         0       5       0       0       0       0       0       0
  2661 ;;Total ram usage:        5 bytes
  2662 ;; Hardware stack levels used: 1
  2663 ;; Hardware stack levels required when called: 8
  2664 ;; This function calls:
  2665 ;;		_LIN_setTimerHandler
  2666 ;;		_LIN_startPeriod
  2667 ;;		_LIN_stopTimer
  2668 ;; This function is called by:
  2669 ;;		_LIN_Master_Initialize
  2670 ;; This function uses a non-reentrant model
  2671 ;;
  2672                           
  2673     05C3                     _LIN_init:	
  2674                           ;psect for function _LIN_init
  2675                           
  2676                           
  2677                           ;incstack = 0
  2678                           ; Regs used in _LIN_init: [wreg+status,2+status,0+pclath+cstack]
  2679                           ;LIN_init@tableLength stored from wreg
  2680     05C3  0020               	movlb	0	; select bank0
  2681     05C4  00DB               	movwf	LIN_init@tableLength
  2682     05C5                     l2466:
  2683                           
  2684                           ;mcc_generated_files/LINDrivers/lin_master.c: 62: void LIN_init(uint8_t tableLength, con
      +                          st lin_cmd_packet_t *const table,;mcc_generated_files/LINDrivers/lin_master.c: 63:      
      +                                   void (*processData)(void)) {;mcc_generated_files/LINDrivers/lin_master.c: 64:  
      +                           schedule = table;
  2685     05C5  0858               	movf	LIN_init@table+1,w
  2686     05C6  00AF               	movwf	_schedule+1
  2687     05C7  0857               	movf	LIN_init@table,w
  2688     05C8  00AE               	movwf	_schedule
  2689                           
  2690                           ;mcc_generated_files/LINDrivers/lin_master.c: 65:   scheduleLength = tableLength;
  2691     05C9  085B               	movf	LIN_init@tableLength,w
  2692     05CA  00C2               	movwf	_scheduleLength
  2693                           
  2694                           ;mcc_generated_files/LINDrivers/lin_master.c: 66:   LIN_processData = processData;
  2695     05CB  085A               	movf	LIN_init@processData+1,w
  2696     05CC  00B1               	movwf	_LIN_processData+1
  2697     05CD  0859               	movf	LIN_init@processData,w
  2698     05CE  00B0               	movwf	_LIN_processData
  2699     05CF                     l2468:
  2700                           
  2701                           ;mcc_generated_files/LINDrivers/lin_master.c: 67:   LIN_stopTimer();
  2702     05CF  3186  26AC  3185   	fcall	_LIN_stopTimer
  2703                           
  2704                           ;mcc_generated_files/LINDrivers/lin_master.c: 68:   LIN_setTimerHandler();
  2705     05D2  3186  2657  3185   	fcall	_LIN_setTimerHandler
  2706     05D5                     l2470:
  2707                           
  2708                           ;mcc_generated_files/LINDrivers/lin_master.c: 70:   LIN_startPeriod();
  2709     05D5  3186  26B0  3185   	fcall	_LIN_startPeriod
  2710     05D8                     l77:
  2711     05D8  0008               	return
  2712     05D9                     __end_of_LIN_init:
  2713                           
  2714                           	psect	text8
  2715     06AC                     __ptext8:	
  2716 ;; *************** function _LIN_stopTimer *****************
  2717 ;; Defined at:
  2718 ;;		line 327 in file "mcc_generated_files/LINDrivers/lin_master.c"
  2719 ;; Parameters:    Size  Location     Type
  2720 ;;		None
  2721 ;; Auto vars:     Size  Location     Type
  2722 ;;		None
  2723 ;; Return value:  Size  Location     Type
  2724 ;;                  1    wreg      void 
  2725 ;; Registers used:
  2726 ;;		status,2
  2727 ;; Tracked objects:
  2728 ;;		On entry : 0/0
  2729 ;;		On exit  : 0/0
  2730 ;;		Unchanged: 0/0
  2731 ;; Data sizes:     COMMON   BANK0   BANK1   BANK2   BANK3   BANK4   BANK5   BANK6
  2732 ;;      Params:         0       0       0       0       0       0       0       0
  2733 ;;      Locals:         0       0       0       0       0       0       0       0
  2734 ;;      Temps:          0       0       0       0       0       0       0       0
  2735 ;;      Totals:         0       0       0       0       0       0       0       0
  2736 ;;Total ram usage:        0 bytes
  2737 ;; Hardware stack levels used: 1
  2738 ;; Hardware stack levels required when called: 6
  2739 ;; This function calls:
  2740 ;;		Nothing
  2741 ;; This function is called by:
  2742 ;;		_LIN_init
  2743 ;; This function uses a non-reentrant model
  2744 ;;
  2745                           
  2746     06AC                     _LIN_stopTimer:	
  2747                           ;psect for function _LIN_stopTimer
  2748                           
  2749     06AC                     l1806:	
  2750                           ;incstack = 0
  2751                           ; Regs used in _LIN_stopTimer: [status,2]
  2752                           
  2753                           
  2754                           ;mcc_generated_files/LINDrivers/lin_master.c: 329:   LIN_timerCallBack = 0;
  2755     06AC  0020               	movlb	0	; select bank0
  2756     06AD  01BE               	clrf	_LIN_timerCallBack	;volatile
  2757                           
  2758                           ;mcc_generated_files/LINDrivers/lin_master.c: 330:   LIN_timerRunning = 0;
  2759     06AE  01C0               	clrf	_LIN_timerRunning
  2760     06AF                     l171:
  2761     06AF  0008               	return
  2762     06B0                     __end_of_LIN_stopTimer:
  2763                           
  2764                           	psect	text9
  2765     06B0                     __ptext9:	
  2766 ;; *************** function _LIN_startPeriod *****************
  2767 ;; Defined at:
  2768 ;;		line 333 in file "mcc_generated_files/LINDrivers/lin_master.c"
  2769 ;; Parameters:    Size  Location     Type
  2770 ;;		None
  2771 ;; Auto vars:     Size  Location     Type
  2772 ;;		None
  2773 ;; Return value:  Size  Location     Type
  2774 ;;                  1    wreg      void 
  2775 ;; Registers used:
  2776 ;;		None
  2777 ;; Tracked objects:
  2778 ;;		On entry : 0/0
  2779 ;;		On exit  : 0/0
  2780 ;;		Unchanged: 0/0
  2781 ;; Data sizes:     COMMON   BANK0   BANK1   BANK2   BANK3   BANK4   BANK5   BANK6
  2782 ;;      Params:         0       0       0       0       0       0       0       0
  2783 ;;      Locals:         0       0       0       0       0       0       0       0
  2784 ;;      Temps:          0       0       0       0       0       0       0       0
  2785 ;;      Totals:         0       0       0       0       0       0       0       0
  2786 ;;Total ram usage:        0 bytes
  2787 ;; Hardware stack levels used: 1
  2788 ;; Hardware stack levels required when called: 6
  2789 ;; This function calls:
  2790 ;;		Nothing
  2791 ;; This function is called by:
  2792 ;;		_LIN_init
  2793 ;; This function uses a non-reentrant model
  2794 ;;
  2795                           
  2796     06B0                     _LIN_startPeriod:	
  2797                           ;psect for function _LIN_startPeriod
  2798                           
  2799     06B0                     l1810:	
  2800                           ;incstack = 0
  2801                           ; Regs used in _LIN_startPeriod: []
  2802                           
  2803     06B0  0020               	movlb	0	; select bank0
  2804     06B1  01BF               	clrf	_LIN_enablePeriodTx
  2805     06B2  0ABF               	incf	_LIN_enablePeriodTx,f
  2806     06B3                     l174:
  2807     06B3  0008               	return
  2808     06B4                     __end_of_LIN_startPeriod:
  2809                           
  2810                           	psect	text10
  2811     0657                     __ptext10:	
  2812 ;; *************** function _LIN_setTimerHandler *****************
  2813 ;; Defined at:
  2814 ;;		line 325 in file "mcc_generated_files/LINDrivers/lin_master.c"
  2815 ;; Parameters:    Size  Location     Type
  2816 ;;		None
  2817 ;; Auto vars:     Size  Location     Type
  2818 ;;		None
  2819 ;; Return value:  Size  Location     Type
  2820 ;;                  1    wreg      void 
  2821 ;; Registers used:
  2822 ;;		wreg, status,2, status,0, pclath, cstack
  2823 ;; Tracked objects:
  2824 ;;		On entry : 0/0
  2825 ;;		On exit  : 0/0
  2826 ;;		Unchanged: 0/0
  2827 ;; Data sizes:     COMMON   BANK0   BANK1   BANK2   BANK3   BANK4   BANK5   BANK6
  2828 ;;      Params:         0       0       0       0       0       0       0       0
  2829 ;;      Locals:         0       0       0       0       0       0       0       0
  2830 ;;      Temps:          0       0       0       0       0       0       0       0
  2831 ;;      Totals:         0       0       0       0       0       0       0       0
  2832 ;;Total ram usage:        0 bytes
  2833 ;; Hardware stack levels used: 1
  2834 ;; Hardware stack levels required when called: 7
  2835 ;; This function calls:
  2836 ;;		_TMR0_SetInterruptHandler
  2837 ;; This function is called by:
  2838 ;;		_LIN_init
  2839 ;; This function uses a non-reentrant model
  2840 ;;
  2841                           
  2842     0657                     _LIN_setTimerHandler:	
  2843                           ;psect for function _LIN_setTimerHandler
  2844                           
  2845     0657                     l2400:	
  2846                           ;incstack = 0
  2847                           ; Regs used in _LIN_setTimerHandler: [wreg+status,2+status,0+pclath+cstack]
  2848                           
  2849     0657  300C               	movlw	low _LIN_timerHandler
  2850     0658  0020               	movlb	0	; select bank0
  2851     0659  00D5               	movwf	TMR0_SetInterruptHandler@InterruptHandler
  2852     065A  3001               	movlw	high _LIN_timerHandler
  2853     065B  00D6               	movwf	TMR0_SetInterruptHandler@InterruptHandler+1
  2854     065C  3186  2675  3186   	fcall	_TMR0_SetInterruptHandler
  2855     065F                     l168:
  2856     065F  0008               	return
  2857     0660                     __end_of_LIN_setTimerHandler:
  2858                           
  2859                           	psect	text11
  2860     0675                     __ptext11:	
  2861 ;; *************** function _TMR0_SetInterruptHandler *****************
  2862 ;; Defined at:
  2863 ;;		line 125 in file "mcc_generated_files/tmr0.c"
  2864 ;; Parameters:    Size  Location     Type
  2865 ;;  InterruptHan    2    9[BANK0 ] PTR FTN()void 
  2866 ;;		 -> TMR0_DefaultInterruptHandler(1), LIN_timerHandler(1), 
  2867 ;; Auto vars:     Size  Location     Type
  2868 ;;		None
  2869 ;; Return value:  Size  Location     Type
  2870 ;;                  1    wreg      void 
  2871 ;; Registers used:
  2872 ;;		wreg
  2873 ;; Tracked objects:
  2874 ;;		On entry : 0/0
  2875 ;;		On exit  : 0/0
  2876 ;;		Unchanged: 0/0
  2877 ;; Data sizes:     COMMON   BANK0   BANK1   BANK2   BANK3   BANK4   BANK5   BANK6
  2878 ;;      Params:         0       2       0       0       0       0       0       0
  2879 ;;      Locals:         0       0       0       0       0       0       0       0
  2880 ;;      Temps:          0       0       0       0       0       0       0       0
  2881 ;;      Totals:         0       2       0       0       0       0       0       0
  2882 ;;Total ram usage:        2 bytes
  2883 ;; Hardware stack levels used: 1
  2884 ;; Hardware stack levels required when called: 6
  2885 ;; This function calls:
  2886 ;;		Nothing
  2887 ;; This function is called by:
  2888 ;;		_LIN_setTimerHandler
  2889 ;;		_TMR0_Initialize
  2890 ;; This function uses a non-reentrant model
  2891 ;;
  2892                           
  2893     0675                     _TMR0_SetInterruptHandler:	
  2894                           ;psect for function _TMR0_SetInterruptHandler
  2895                           
  2896     0675                     l1768:	
  2897                           ;incstack = 0
  2898                           ; Regs used in _TMR0_SetInterruptHandler: [wreg]
  2899                           
  2900                           
  2901                           ;mcc_generated_files/tmr0.c: 126:     TMR0_InterruptHandler = InterruptHandler;
  2902     0675  0020               	movlb	0	; select bank0
  2903     0676  0856               	movf	TMR0_SetInterruptHandler@InterruptHandler+1,w
  2904     0677  00A1               	movwf	_TMR0_InterruptHandler+1
  2905     0678  0855               	movf	TMR0_SetInterruptHandler@InterruptHandler,w
  2906     0679  00A0               	movwf	_TMR0_InterruptHandler
  2907     067A                     l493:
  2908     067A  0008               	return
  2909     067B                     __end_of_TMR0_SetInterruptHandler:
  2910                           
  2911                           	psect	text12
  2912     0313                     __ptext12:	
  2913 ;; *************** function _EUSART_Initialize *****************
  2914 ;; Defined at:
  2915 ;;		line 88 in file "mcc_generated_files/eusart.c"
  2916 ;; Parameters:    Size  Location     Type
  2917 ;;		None
  2918 ;; Auto vars:     Size  Location     Type
  2919 ;;		None
  2920 ;; Return value:  Size  Location     Type
  2921 ;;                  1    wreg      void 
  2922 ;; Registers used:
  2923 ;;		wreg, status,2, status,0, pclath, cstack
  2924 ;; Tracked objects:
  2925 ;;		On entry : 0/0
  2926 ;;		On exit  : 0/0
  2927 ;;		Unchanged: 0/0
  2928 ;; Data sizes:     COMMON   BANK0   BANK1   BANK2   BANK3   BANK4   BANK5   BANK6
  2929 ;;      Params:         0       0       0       0       0       0       0       0
  2930 ;;      Locals:         0       0       0       0       0       0       0       0
  2931 ;;      Temps:          0       0       0       0       0       0       0       0
  2932 ;;      Totals:         0       0       0       0       0       0       0       0
  2933 ;;Total ram usage:        0 bytes
  2934 ;; Hardware stack levels used: 1
  2935 ;; Hardware stack levels required when called: 7
  2936 ;; This function calls:
  2937 ;;		_EUSART_SetErrorHandler
  2938 ;;		_EUSART_SetFramingErrorHandler
  2939 ;;		_EUSART_SetOverrunErrorHandler
  2940 ;;		_EUSART_SetRxInterruptHandler
  2941 ;;		_EUSART_SetTxInterruptHandler
  2942 ;; This function is called by:
  2943 ;;		_SYSTEM_Initialize
  2944 ;; This function uses a non-reentrant model
  2945 ;;
  2946                           
  2947     0313                     _EUSART_Initialize:	
  2948                           ;psect for function _EUSART_Initialize
  2949                           
  2950     0313                     l2126:	
  2951                           ;incstack = 0
  2952                           ; Regs used in _EUSART_Initialize: [wreg+status,2+status,0+pclath+cstack]
  2953                           
  2954                           
  2955                           ;mcc_generated_files/eusart.c: 91:     PIE1bits.RCIE = 0;
  2956     0313  0021               	movlb	1	; select bank1
  2957     0314  1291               	bcf	17,5	;volatile
  2958     0315                     l2128:
  2959                           
  2960                           ;mcc_generated_files/eusart.c: 92:     EUSART_SetRxInterruptHandler(EUSART_Receive_ISR);
  2961     0315  3056               	movlw	low _EUSART_Receive_ISR
  2962     0316  0020               	movlb	0	; select bank0
  2963     0317  00D5               	movwf	EUSART_SetRxInterruptHandler@interruptHandler
  2964     0318  3003               	movlw	high _EUSART_Receive_ISR
  2965     0319  00D6               	movwf	EUSART_SetRxInterruptHandler@interruptHandler+1
  2966     031A  3186  2681  3183   	fcall	_EUSART_SetRxInterruptHandler
  2967     031D                     l2130:
  2968                           
  2969                           ;mcc_generated_files/eusart.c: 93:     PIE1bits.TXIE = 0;
  2970     031D  0021               	movlb	1	; select bank1
  2971     031E  1211               	bcf	17,4	;volatile
  2972                           
  2973                           ;mcc_generated_files/eusart.c: 94:     EUSART_SetTxInterruptHandler(EUSART_Transmit_ISR)
      +                          ;
  2974     031F  30FA               	movlw	low _EUSART_Transmit_ISR
  2975     0320  0020               	movlb	0	; select bank0
  2976     0321  00D5               	movwf	EUSART_SetTxInterruptHandler@interruptHandler
  2977     0322  3004               	movlw	high _EUSART_Transmit_ISR
  2978     0323  00D6               	movwf	EUSART_SetTxInterruptHandler@interruptHandler+1
  2979     0324  3186  267B  3183   	fcall	_EUSART_SetTxInterruptHandler
  2980     0327                     l2132:
  2981                           
  2982                           ;mcc_generated_files/eusart.c: 98:     BAUDCON = 0x18;
  2983     0327  3018               	movlw	24
  2984     0328  0023               	movlb	3	; select bank3
  2985     0329  009F               	movwf	31	;volatile
  2986     032A                     l2134:
  2987                           
  2988                           ;mcc_generated_files/eusart.c: 101:     RCSTA = 0x90;
  2989     032A  3090               	movlw	144
  2990     032B  009D               	movwf	29	;volatile
  2991     032C                     l2136:
  2992                           
  2993                           ;mcc_generated_files/eusart.c: 104:     TXSTA = 0x24;
  2994     032C  3024               	movlw	36
  2995     032D  009E               	movwf	30	;volatile
  2996     032E                     l2138:
  2997                           
  2998                           ;mcc_generated_files/eusart.c: 107:     SPBRGL = 0xFF;
  2999     032E  30FF               	movlw	255
  3000     032F  009B               	movwf	27	;volatile
  3001     0330                     l2140:
  3002                           
  3003                           ;mcc_generated_files/eusart.c: 110:     SPBRGH = 0x02;
  3004     0330  3002               	movlw	2
  3005     0331  009C               	movwf	28	;volatile
  3006     0332                     l2142:
  3007                           
  3008                           ;mcc_generated_files/eusart.c: 113:     EUSART_SetFramingErrorHandler(EUSART_DefaultFram
      +                          ingErrorHandler);
  3009     0332  30C5               	movlw	low _EUSART_DefaultFramingErrorHandler
  3010     0333  0020               	movlb	0	; select bank0
  3011     0334  00D5               	movwf	EUSART_SetFramingErrorHandler@interruptHandler
  3012     0335  3006               	movlw	high _EUSART_DefaultFramingErrorHandler
  3013     0336  00D6               	movwf	EUSART_SetFramingErrorHandler@interruptHandler+1
  3014     0337  3186  268D  3183   	fcall	_EUSART_SetFramingErrorHandler
  3015     033A                     l2144:
  3016                           
  3017                           ;mcc_generated_files/eusart.c: 114:     EUSART_SetOverrunErrorHandler(EUSART_DefaultOver
      +                          runErrorHandler);
  3018     033A  30B8               	movlw	low _EUSART_DefaultOverrunErrorHandler
  3019     033B  0020               	movlb	0	; select bank0
  3020     033C  00D5               	movwf	EUSART_SetOverrunErrorHandler@interruptHandler
  3021     033D  3006               	movlw	high _EUSART_DefaultOverrunErrorHandler
  3022     033E  00D6               	movwf	EUSART_SetOverrunErrorHandler@interruptHandler+1
  3023     033F  3186  2687  3183   	fcall	_EUSART_SetOverrunErrorHandler
  3024     0342                     l2146:
  3025                           
  3026                           ;mcc_generated_files/eusart.c: 115:     EUSART_SetErrorHandler(EUSART_DefaultErrorHandle
      +                          r);
  3027     0342  30BC               	movlw	low _EUSART_DefaultErrorHandler
  3028     0343  0020               	movlb	0	; select bank0
  3029     0344  00D5               	movwf	EUSART_SetErrorHandler@interruptHandler
  3030     0345  3006               	movlw	high _EUSART_DefaultErrorHandler
  3031     0346  00D6               	movwf	EUSART_SetErrorHandler@interruptHandler+1
  3032     0347  3186  2693  3183   	fcall	_EUSART_SetErrorHandler
  3033     034A                     l2148:
  3034                           
  3035                           ;mcc_generated_files/eusart.c: 117:     eusartRxLastError.status = 0;
  3036     034A  0020               	movlb	0	; select bank0
  3037     034B  01B3               	clrf	_eusartRxLastError	;volatile
  3038     034C                     l2150:
  3039                           
  3040                           ;mcc_generated_files/eusart.c: 120:     eusartTxHead = 0;
  3041     034C  01B9               	clrf	_eusartTxHead	;volatile
  3042     034D                     l2152:
  3043                           
  3044                           ;mcc_generated_files/eusart.c: 121:     eusartTxTail = 0;
  3045     034D  01B8               	clrf	_eusartTxTail	;volatile
  3046     034E                     l2154:
  3047                           
  3048                           ;mcc_generated_files/eusart.c: 122:     eusartTxBufferRemaining = sizeof(eusartTxBuffer)
      +                          ;
  3049     034E  3008               	movlw	8
  3050     034F  00B7               	movwf	_eusartTxBufferRemaining	;volatile
  3051                           
  3052                           ;mcc_generated_files/eusart.c: 124:     eusartRxHead = 0;
  3053     0350  01B6               	clrf	_eusartRxHead	;volatile
  3054                           
  3055                           ;mcc_generated_files/eusart.c: 125:     eusartRxTail = 0;
  3056     0351  01B5               	clrf	_eusartRxTail	;volatile
  3057                           
  3058                           ;mcc_generated_files/eusart.c: 126:     eusartRxCount = 0;
  3059     0352  01B4               	clrf	_eusartRxCount	;volatile
  3060     0353                     l2156:
  3061                           
  3062                           ;mcc_generated_files/eusart.c: 129:     PIE1bits.RCIE = 1;
  3063     0353  0021               	movlb	1	; select bank1
  3064     0354  1691               	bsf	17,5	;volatile
  3065     0355                     l290:
  3066     0355  0008               	return
  3067     0356                     __end_of_EUSART_Initialize:
  3068                           
  3069                           	psect	text13
  3070     067B                     __ptext13:	
  3071 ;; *************** function _EUSART_SetTxInterruptHandler *****************
  3072 ;; Defined at:
  3073 ;;		line 276 in file "mcc_generated_files/eusart.c"
  3074 ;; Parameters:    Size  Location     Type
  3075 ;;  interruptHan    2    9[BANK0 ] PTR FTN()void 
  3076 ;;		 -> EUSART_Transmit_ISR(1), 
  3077 ;; Auto vars:     Size  Location     Type
  3078 ;;		None
  3079 ;; Return value:  Size  Location     Type
  3080 ;;                  1    wreg      void 
  3081 ;; Registers used:
  3082 ;;		wreg
  3083 ;; Tracked objects:
  3084 ;;		On entry : 0/0
  3085 ;;		On exit  : 0/0
  3086 ;;		Unchanged: 0/0
  3087 ;; Data sizes:     COMMON   BANK0   BANK1   BANK2   BANK3   BANK4   BANK5   BANK6
  3088 ;;      Params:         0       2       0       0       0       0       0       0
  3089 ;;      Locals:         0       0       0       0       0       0       0       0
  3090 ;;      Temps:          0       0       0       0       0       0       0       0
  3091 ;;      Totals:         0       2       0       0       0       0       0       0
  3092 ;;Total ram usage:        2 bytes
  3093 ;; Hardware stack levels used: 1
  3094 ;; Hardware stack levels required when called: 6
  3095 ;; This function calls:
  3096 ;;		Nothing
  3097 ;; This function is called by:
  3098 ;;		_EUSART_Initialize
  3099 ;; This function uses a non-reentrant model
  3100 ;;
  3101                           
  3102     067B                     _EUSART_SetTxInterruptHandler:	
  3103                           ;psect for function _EUSART_SetTxInterruptHandler
  3104                           
  3105     067B                     l1976:	
  3106                           ;incstack = 0
  3107                           ; Regs used in _EUSART_SetTxInterruptHandler: [wreg]
  3108                           
  3109                           
  3110                           ;mcc_generated_files/eusart.c: 277:     EUSART_TxDefaultInterruptHandler = interruptHand
      +                          ler;
  3111     067B  0020               	movlb	0	; select bank0
  3112     067C  0856               	movf	EUSART_SetTxInterruptHandler@interruptHandler+1,w
  3113     067D  00AB               	movwf	_EUSART_TxDefaultInterruptHandler+1
  3114     067E  0855               	movf	EUSART_SetTxInterruptHandler@interruptHandler,w
  3115     067F  00AA               	movwf	_EUSART_TxDefaultInterruptHandler
  3116     0680                     l356:
  3117     0680  0008               	return
  3118     0681                     __end_of_EUSART_SetTxInterruptHandler:
  3119                           
  3120                           	psect	text14
  3121     0681                     __ptext14:	
  3122 ;; *************** function _EUSART_SetRxInterruptHandler *****************
  3123 ;; Defined at:
  3124 ;;		line 280 in file "mcc_generated_files/eusart.c"
  3125 ;; Parameters:    Size  Location     Type
  3126 ;;  interruptHan    2    9[BANK0 ] PTR FTN()void 
  3127 ;;		 -> EUSART_Receive_ISR(1), 
  3128 ;; Auto vars:     Size  Location     Type
  3129 ;;		None
  3130 ;; Return value:  Size  Location     Type
  3131 ;;                  1    wreg      void 
  3132 ;; Registers used:
  3133 ;;		wreg
  3134 ;; Tracked objects:
  3135 ;;		On entry : 0/0
  3136 ;;		On exit  : 0/0
  3137 ;;		Unchanged: 0/0
  3138 ;; Data sizes:     COMMON   BANK0   BANK1   BANK2   BANK3   BANK4   BANK5   BANK6
  3139 ;;      Params:         0       2       0       0       0       0       0       0
  3140 ;;      Locals:         0       0       0       0       0       0       0       0
  3141 ;;      Temps:          0       0       0       0       0       0       0       0
  3142 ;;      Totals:         0       2       0       0       0       0       0       0
  3143 ;;Total ram usage:        2 bytes
  3144 ;; Hardware stack levels used: 1
  3145 ;; Hardware stack levels required when called: 6
  3146 ;; This function calls:
  3147 ;;		Nothing
  3148 ;; This function is called by:
  3149 ;;		_EUSART_Initialize
  3150 ;; This function uses a non-reentrant model
  3151 ;;
  3152                           
  3153     0681                     _EUSART_SetRxInterruptHandler:	
  3154                           ;psect for function _EUSART_SetRxInterruptHandler
  3155                           
  3156     0681                     l1974:	
  3157                           ;incstack = 0
  3158                           ; Regs used in _EUSART_SetRxInterruptHandler: [wreg]
  3159                           
  3160                           
  3161                           ;mcc_generated_files/eusart.c: 281:     EUSART_RxDefaultInterruptHandler = interruptHand
      +                          ler;
  3162     0681  0020               	movlb	0	; select bank0
  3163     0682  0856               	movf	EUSART_SetRxInterruptHandler@interruptHandler+1,w
  3164     0683  00A9               	movwf	_EUSART_RxDefaultInterruptHandler+1
  3165     0684  0855               	movf	EUSART_SetRxInterruptHandler@interruptHandler,w
  3166     0685  00A8               	movwf	_EUSART_RxDefaultInterruptHandler
  3167     0686                     l359:
  3168     0686  0008               	return
  3169     0687                     __end_of_EUSART_SetRxInterruptHandler:
  3170                           
  3171                           	psect	text15
  3172     0687                     __ptext15:	
  3173 ;; *************** function _EUSART_SetOverrunErrorHandler *****************
  3174 ;; Defined at:
  3175 ;;		line 268 in file "mcc_generated_files/eusart.c"
  3176 ;; Parameters:    Size  Location     Type
  3177 ;;  interruptHan    2    9[BANK0 ] PTR FTN()void 
  3178 ;;		 -> EUSART_DefaultOverrunErrorHandler(1), 
  3179 ;; Auto vars:     Size  Location     Type
  3180 ;;		None
  3181 ;; Return value:  Size  Location     Type
  3182 ;;                  1    wreg      void 
  3183 ;; Registers used:
  3184 ;;		wreg
  3185 ;; Tracked objects:
  3186 ;;		On entry : 0/0
  3187 ;;		On exit  : 0/0
  3188 ;;		Unchanged: 0/0
  3189 ;; Data sizes:     COMMON   BANK0   BANK1   BANK2   BANK3   BANK4   BANK5   BANK6
  3190 ;;      Params:         0       2       0       0       0       0       0       0
  3191 ;;      Locals:         0       0       0       0       0       0       0       0
  3192 ;;      Temps:          0       0       0       0       0       0       0       0
  3193 ;;      Totals:         0       2       0       0       0       0       0       0
  3194 ;;Total ram usage:        2 bytes
  3195 ;; Hardware stack levels used: 1
  3196 ;; Hardware stack levels required when called: 6
  3197 ;; This function calls:
  3198 ;;		Nothing
  3199 ;; This function is called by:
  3200 ;;		_EUSART_Initialize
  3201 ;; This function uses a non-reentrant model
  3202 ;;
  3203                           
  3204     0687                     _EUSART_SetOverrunErrorHandler:	
  3205                           ;psect for function _EUSART_SetOverrunErrorHandler
  3206                           
  3207     0687                     l1980:	
  3208                           ;incstack = 0
  3209                           ; Regs used in _EUSART_SetOverrunErrorHandler: [wreg]
  3210                           
  3211                           
  3212                           ;mcc_generated_files/eusart.c: 269:     EUSART_OverrunErrorHandler = interruptHandler;
  3213     0687  0020               	movlb	0	; select bank0
  3214     0688  0856               	movf	EUSART_SetOverrunErrorHandler@interruptHandler+1,w
  3215     0689  00A5               	movwf	_EUSART_OverrunErrorHandler+1
  3216     068A  0855               	movf	EUSART_SetOverrunErrorHandler@interruptHandler,w
  3217     068B  00A4               	movwf	_EUSART_OverrunErrorHandler
  3218     068C                     l350:
  3219     068C  0008               	return
  3220     068D                     __end_of_EUSART_SetOverrunErrorHandler:
  3221                           
  3222                           	psect	text16
  3223     068D                     __ptext16:	
  3224 ;; *************** function _EUSART_SetFramingErrorHandler *****************
  3225 ;; Defined at:
  3226 ;;		line 264 in file "mcc_generated_files/eusart.c"
  3227 ;; Parameters:    Size  Location     Type
  3228 ;;  interruptHan    2    9[BANK0 ] PTR FTN()void 
  3229 ;;		 -> EUSART_DefaultFramingErrorHandler(1), 
  3230 ;; Auto vars:     Size  Location     Type
  3231 ;;		None
  3232 ;; Return value:  Size  Location     Type
  3233 ;;                  1    wreg      void 
  3234 ;; Registers used:
  3235 ;;		wreg
  3236 ;; Tracked objects:
  3237 ;;		On entry : 0/0
  3238 ;;		On exit  : 0/0
  3239 ;;		Unchanged: 0/0
  3240 ;; Data sizes:     COMMON   BANK0   BANK1   BANK2   BANK3   BANK4   BANK5   BANK6
  3241 ;;      Params:         0       2       0       0       0       0       0       0
  3242 ;;      Locals:         0       0       0       0       0       0       0       0
  3243 ;;      Temps:          0       0       0       0       0       0       0       0
  3244 ;;      Totals:         0       2       0       0       0       0       0       0
  3245 ;;Total ram usage:        2 bytes
  3246 ;; Hardware stack levels used: 1
  3247 ;; Hardware stack levels required when called: 6
  3248 ;; This function calls:
  3249 ;;		Nothing
  3250 ;; This function is called by:
  3251 ;;		_EUSART_Initialize
  3252 ;; This function uses a non-reentrant model
  3253 ;;
  3254                           
  3255     068D                     _EUSART_SetFramingErrorHandler:	
  3256                           ;psect for function _EUSART_SetFramingErrorHandler
  3257                           
  3258     068D                     l1978:	
  3259                           ;incstack = 0
  3260                           ; Regs used in _EUSART_SetFramingErrorHandler: [wreg]
  3261                           
  3262                           
  3263                           ;mcc_generated_files/eusart.c: 265:     EUSART_FramingErrorHandler = interruptHandler;
  3264     068D  0020               	movlb	0	; select bank0
  3265     068E  0856               	movf	EUSART_SetFramingErrorHandler@interruptHandler+1,w
  3266     068F  00A7               	movwf	_EUSART_FramingErrorHandler+1
  3267     0690  0855               	movf	EUSART_SetFramingErrorHandler@interruptHandler,w
  3268     0691  00A6               	movwf	_EUSART_FramingErrorHandler
  3269     0692                     l347:
  3270     0692  0008               	return
  3271     0693                     __end_of_EUSART_SetFramingErrorHandler:
  3272                           
  3273                           	psect	text17
  3274     0693                     __ptext17:	
  3275 ;; *************** function _EUSART_SetErrorHandler *****************
  3276 ;; Defined at:
  3277 ;;		line 272 in file "mcc_generated_files/eusart.c"
  3278 ;; Parameters:    Size  Location     Type
  3279 ;;  interruptHan    2    9[BANK0 ] PTR FTN()void 
  3280 ;;		 -> EUSART_DefaultErrorHandler(1), 
  3281 ;; Auto vars:     Size  Location     Type
  3282 ;;		None
  3283 ;; Return value:  Size  Location     Type
  3284 ;;                  1    wreg      void 
  3285 ;; Registers used:
  3286 ;;		wreg
  3287 ;; Tracked objects:
  3288 ;;		On entry : 0/0
  3289 ;;		On exit  : 0/0
  3290 ;;		Unchanged: 0/0
  3291 ;; Data sizes:     COMMON   BANK0   BANK1   BANK2   BANK3   BANK4   BANK5   BANK6
  3292 ;;      Params:         0       2       0       0       0       0       0       0
  3293 ;;      Locals:         0       0       0       0       0       0       0       0
  3294 ;;      Temps:          0       0       0       0       0       0       0       0
  3295 ;;      Totals:         0       2       0       0       0       0       0       0
  3296 ;;Total ram usage:        2 bytes
  3297 ;; Hardware stack levels used: 1
  3298 ;; Hardware stack levels required when called: 6
  3299 ;; This function calls:
  3300 ;;		Nothing
  3301 ;; This function is called by:
  3302 ;;		_EUSART_Initialize
  3303 ;; This function uses a non-reentrant model
  3304 ;;
  3305                           
  3306     0693                     _EUSART_SetErrorHandler:	
  3307                           ;psect for function _EUSART_SetErrorHandler
  3308                           
  3309     0693                     l1982:	
  3310                           ;incstack = 0
  3311                           ; Regs used in _EUSART_SetErrorHandler: [wreg]
  3312                           
  3313                           
  3314                           ;mcc_generated_files/eusart.c: 273:     EUSART_ErrorHandler = interruptHandler;
  3315     0693  0020               	movlb	0	; select bank0
  3316     0694  0856               	movf	EUSART_SetErrorHandler@interruptHandler+1,w
  3317     0695  00A3               	movwf	_EUSART_ErrorHandler+1
  3318     0696  0855               	movf	EUSART_SetErrorHandler@interruptHandler,w
  3319     0697  00A2               	movwf	_EUSART_ErrorHandler
  3320     0698                     l353:
  3321     0698  0008               	return
  3322     0699                     __end_of_EUSART_SetErrorHandler:
  3323                           
  3324                           	psect	text18
  3325     029D                     __ptext18:	
  3326 ;; *************** function _LIN_handler *****************
  3327 ;; Defined at:
  3328 ;;		line 121 in file "mcc_generated_files/LINDrivers/lin_master.c"
  3329 ;; Parameters:    Size  Location     Type
  3330 ;;		None
  3331 ;; Auto vars:     Size  Location     Type
  3332 ;;		None
  3333 ;; Return value:  Size  Location     Type
  3334 ;;                  1    wreg      enum E204
  3335 ;; Registers used:
  3336 ;;		wreg, fsr0l, fsr0h, fsr1l, fsr1h, status,2, status,0, pclath, cstack
  3337 ;; Tracked objects:
  3338 ;;		On entry : 0/0
  3339 ;;		On exit  : 0/0
  3340 ;;		Unchanged: 0/0
  3341 ;; Data sizes:     COMMON   BANK0   BANK1   BANK2   BANK3   BANK4   BANK5   BANK6
  3342 ;;      Params:         0       0       0       0       0       0       0       0
  3343 ;;      Locals:         0       0       0       0       0       0       0       0
  3344 ;;      Temps:          0       2       0       0       0       0       0       0
  3345 ;;      Totals:         0       2       0       0       0       0       0       0
  3346 ;;Total ram usage:        2 bytes
  3347 ;; Hardware stack levels used: 1
  3348 ;; Hardware stack levels required when called: 9
  3349 ;; This function calls:
  3350 ;;		NULL
  3351 ;;		_EUSART_is_rx_ready
  3352 ;;		_LIN_disableRx
  3353 ;;		_LIN_enableRx
  3354 ;;		_LIN_receivePacket
  3355 ;;		_LIN_sendPacket
  3356 ;;		_LIN_startTimer
  3357 ;;		_memset
  3358 ;;		_processLIN
  3359 ;; This function is called by:
  3360 ;;		_main
  3361 ;; This function uses a non-reentrant model
  3362 ;;
  3363                           
  3364     029D                     _LIN_handler:	
  3365                           ;psect for function _LIN_handler
  3366                           
  3367     029D                     l2574:	
  3368                           ;incstack = 0
  3369                           ; Regs used in _LIN_handler: [wreg-fsr1h+status,2+status,0+pclath+cstack]
  3370                           
  3371                           
  3372                           ;mcc_generated_files/LINDrivers/lin_master.c: 122:   static lin_state_t LIN_state = LIN_
      +                          IDLE;;mcc_generated_files/LINDrivers/lin_master.c: 125:   switch (LIN_state) {
  3373     029D  2AFB               	goto	l2616
  3374     029E                     l2576:
  3375                           
  3376                           ;mcc_generated_files/LINDrivers/lin_master.c: 127:     if (LIN_txReady == 1) {
  3377     029E  0343               	decf	_LIN_txReady,w
  3378     029F  1D03               	btfss	3,2
  3379     02A0  2AA2               	goto	u2381
  3380     02A1  2AA3               	goto	u2380
  3381     02A2                     u2381:
  3382     02A2  2B12               	goto	l109
  3383     02A3                     u2380:
  3384     02A3                     l2578:
  3385                           
  3386                           ;mcc_generated_files/LINDrivers/lin_master.c: 128:       LIN_txReady = 0;
  3387     02A3  01C3               	clrf	_LIN_txReady
  3388     02A4                     l2580:
  3389                           
  3390                           ;mcc_generated_files/LINDrivers/lin_master.c: 129:       LIN_disableRx();
  3391     02A4  3186  26A3  3182   	fcall	_LIN_disableRx
  3392     02A7                     l2582:
  3393                           
  3394                           ;mcc_generated_files/LINDrivers/lin_master.c: 131:       LIN_sendPacket();
  3395     02A7  3183  2390  3182   	fcall	_LIN_sendPacket
  3396     02AA                     l2584:
  3397                           
  3398                           ;mcc_generated_files/LINDrivers/lin_master.c: 132:       LIN_state = LIN_TX_IP;
  3399     02AA  0020               	movlb	0	; select bank0
  3400     02AB  01BC               	clrf	LIN_handler@LIN_state
  3401     02AC  0ABC               	incf	LIN_handler@LIN_state,f
  3402                           
  3403                           ;mcc_generated_files/LINDrivers/lin_master.c: 133:     } else {
  3404     02AD  2B12               	goto	l109
  3405     02AE                     l98:	
  3406                           ;mcc_generated_files/LINDrivers/lin_master.c: 137:   case LIN_TX_IP:
  3407                           
  3408                           
  3409                           ;mcc_generated_files/LINDrivers/lin_master.c: 139:     if (PIE1bits.TXIE == 0) {
  3410     02AE  0021               	movlb	1	; select bank1
  3411     02AF  1A11               	btfsc	17,4	;volatile
  3412     02B0  2AB2               	goto	u2391
  3413     02B1  2AB3               	goto	u2390
  3414     02B2                     u2391:
  3415     02B2  2B12               	goto	l109
  3416     02B3                     u2390:
  3417     02B3                     l2586:
  3418                           
  3419                           ;mcc_generated_files/LINDrivers/lin_master.c: 140:       if (TXSTAbits.TRMT == 1) {
  3420     02B3  0023               	movlb	3	; select bank3
  3421     02B4  1C9E               	btfss	30,1	;volatile
  3422     02B5  2AB7               	goto	u2401
  3423     02B6  2AB8               	goto	u2400
  3424     02B7                     u2401:
  3425     02B7  2B12               	goto	l109
  3426     02B8                     u2400:
  3427     02B8                     l2588:
  3428                           
  3429                           ;mcc_generated_files/LINDrivers/lin_master.c: 142:         if (LIN_rxPacket.rxLength > 0
      +                          ) {
  3430     02B8  0021               	movlb	1	; select bank1
  3431     02B9  0839               	movf	(_LIN_rxPacket^(0+128)+1),w
  3432     02BA  1903               	btfsc	3,2
  3433     02BB  2ABD               	goto	u2411
  3434     02BC  2ABE               	goto	u2410
  3435     02BD                     u2411:
  3436     02BD  2AC9               	goto	l2594
  3437     02BE                     u2410:
  3438     02BE                     l2590:
  3439                           
  3440                           ;mcc_generated_files/LINDrivers/lin_master.c: 144:           LIN_startTimer(LIN_rxPacket
      +                          .timeout);
  3441     02BE  0843               	movf	(_LIN_rxPacket^(0+128)+11),w
  3442     02BF  3186  2632  3182   	fcall	_LIN_startTimer
  3443     02C2                     l2592:
  3444                           
  3445                           ;mcc_generated_files/LINDrivers/lin_master.c: 145:           LIN_enableRx();
  3446     02C2  3186  269E  3182   	fcall	_LIN_enableRx
  3447                           
  3448                           ;mcc_generated_files/LINDrivers/lin_master.c: 146:           LIN_state = LIN_RX_IP;
  3449     02C5  3002               	movlw	2
  3450     02C6  0020               	movlb	0	; select bank0
  3451     02C7  00BC               	movwf	LIN_handler@LIN_state
  3452                           
  3453                           ;mcc_generated_files/LINDrivers/lin_master.c: 147:         } else {
  3454     02C8  2B12               	goto	l109
  3455     02C9                     l2594:
  3456                           
  3457                           ;mcc_generated_files/LINDrivers/lin_master.c: 148:           LIN_state = LIN_IDLE;
  3458     02C9  0020               	movlb	0	; select bank0
  3459     02CA  01BC               	clrf	LIN_handler@LIN_state
  3460     02CB  2B12               	goto	l109
  3461     02CC                     l2596:
  3462                           
  3463                           ;mcc_generated_files/LINDrivers/lin_master.c: 155:     if (LIN_timerRunning == 0) {
  3464     02CC  0840               	movf	_LIN_timerRunning,w
  3465     02CD  1D03               	btfss	3,2
  3466     02CE  2AD0               	goto	u2421
  3467     02CF  2AD1               	goto	u2420
  3468     02D0                     u2421:
  3469     02D0  2ADE               	goto	l2602
  3470     02D1                     u2420:
  3471     02D1                     l2598:
  3472                           
  3473                           ;mcc_generated_files/LINDrivers/lin_master.c: 157:       LIN_state = LIN_IDLE;
  3474     02D1  01BC               	clrf	LIN_handler@LIN_state
  3475     02D2                     l2600:
  3476                           
  3477                           ;mcc_generated_files/LINDrivers/lin_master.c: 158:       memset(LIN_rxPacket.rawPacket, 
      +                          0,
  3478     02D2  3000               	movlw	0
  3479     02D3  00D5               	movwf	memset@c
  3480     02D4  00D6               	movwf	memset@c+1
  3481     02D5  300C               	movlw	12
  3482     02D6  00D7               	movwf	memset@n
  3483     02D7  3000               	movlw	0
  3484     02D8  00D8               	movwf	memset@n+1
  3485     02D9  30B8               	movlw	(low (_LIN_rxPacket| 0))& (0+255)
  3486     02DA  3185  255B  3182   	fcall	_memset
  3487                           
  3488                           ;mcc_generated_files/LINDrivers/lin_master.c: 160:     } else if (EUSART_is_rx_ready()) 
      +                          {
  3489     02DD  2B12               	goto	l109
  3490     02DE                     l2602:
  3491     02DE  3186  2660  3182   	fcall	_EUSART_is_rx_ready
  3492     02E1  3A00               	xorlw	0
  3493     02E2  1903               	skipnz
  3494     02E3  2AE5               	goto	u2431
  3495     02E4  2AE6               	goto	u2430
  3496     02E5                     u2431:
  3497     02E5  2B12               	goto	l109
  3498     02E6                     u2430:
  3499     02E6                     l2604:
  3500                           
  3501                           ;mcc_generated_files/LINDrivers/lin_master.c: 161:       if (LIN_receivePacket() == 1) {
  3502     02E6  3183  23C4  3182   	fcall	_LIN_receivePacket
  3503     02E9  3A01               	xorlw	1
  3504     02EA  1D03               	skipz
  3505     02EB  2AED               	goto	u2441
  3506     02EC  2AEE               	goto	u2440
  3507     02ED                     u2441:
  3508     02ED  2B12               	goto	l109
  3509     02EE                     u2440:
  3510     02EE                     l2606:
  3511                           
  3512                           ;mcc_generated_files/LINDrivers/lin_master.c: 163:         LIN_disableRx();
  3513     02EE  3186  26A3  3182   	fcall	_LIN_disableRx
  3514     02F1                     l2608:
  3515                           
  3516                           ;mcc_generated_files/LINDrivers/lin_master.c: 164:         LIN_state = LIN_RX_RDY;
  3517     02F1  3003               	movlw	3
  3518     02F2  0020               	movlb	0	; select bank0
  3519     02F3  00BC               	movwf	LIN_handler@LIN_state
  3520     02F4  2B12               	goto	l109
  3521     02F5                     l2610:
  3522                           
  3523                           ;mcc_generated_files/LINDrivers/lin_master.c: 170:     LIN_processData();
  3524     02F5  0831               	movf	_LIN_processData+1,w
  3525     02F6  008A               	movwf	10
  3526     02F7  0830               	movf	_LIN_processData,w
  3527     02F8  000A               	callw
  3528     02F9  3182               	pagesel	$
  3529     02FA  2AC9               	goto	l2594
  3530     02FB                     l2616:
  3531     02FB  0020               	movlb	0	; select bank0
  3532     02FC  083C               	movf	LIN_handler@LIN_state,w
  3533     02FD  00DF               	movwf	??_LIN_handler
  3534     02FE  01E0               	clrf	??_LIN_handler+1
  3535                           
  3536                           ; Switch on 2 bytes has been partitioned into a top level switch of size 1, and 1 sub-sw
      +                          itches
  3537                           ; Switch size 1, requested type "simple"
  3538                           ; Number of cases is 1, Range of values is 0 to 0
  3539                           ; switch strategies available:
  3540                           ; Name         Instructions Cycles
  3541                           ; simple_byte            4     3 (average)
  3542                           ; direct_byte            8     6 (fixed)
  3543                           ; jumptable            260     6 (fixed)
  3544                           ;	Chosen strategy is simple_byte
  3545     02FF  0860               	movf	??_LIN_handler+1,w
  3546     0300  3A00               	xorlw	0	; case 0
  3547     0301  1903               	skipnz
  3548     0302  2B04               	goto	l2692
  3549     0303  2B12               	goto	l109
  3550     0304                     l2692:
  3551                           
  3552                           ; Switch size 1, requested type "simple"
  3553                           ; Number of cases is 4, Range of values is 0 to 3
  3554                           ; switch strategies available:
  3555                           ; Name         Instructions Cycles
  3556                           ; simple_byte           13     7 (average)
  3557                           ; direct_byte           14     6 (fixed)
  3558                           ; jumptable            260     6 (fixed)
  3559                           ;	Chosen strategy is simple_byte
  3560     0304  085F               	movf	??_LIN_handler,w
  3561     0305  3A00               	xorlw	0	; case 0
  3562     0306  1903               	skipnz
  3563     0307  2A9E               	goto	l2576
  3564     0308  3A01               	xorlw	1	; case 1
  3565     0309  1903               	skipnz
  3566     030A  2AAE               	goto	l98
  3567     030B  3A03               	xorlw	3	; case 2
  3568     030C  1903               	skipnz
  3569     030D  2ACC               	goto	l2596
  3570     030E  3A01               	xorlw	1	; case 3
  3571     030F  1903               	skipnz
  3572     0310  2AF5               	goto	l2610
  3573     0311  2B12               	goto	l109
  3574     0312                     l109:
  3575     0312  0008               	return
  3576     0313                     __end_of_LIN_handler:
  3577                           
  3578                           	psect	text19
  3579     064B                     __ptext19:	
  3580 ;; *************** function _processLIN *****************
  3581 ;; Defined at:
  3582 ;;		line 49 in file "mcc_generated_files/LINDrivers/lin_app.c"
  3583 ;; Parameters:    Size  Location     Type
  3584 ;;		None
  3585 ;; Auto vars:     Size  Location     Type
  3586 ;;  tempRxData      8    0[BANK1 ] unsigned char [8]
  3587 ;;  cmd             1    8[BANK1 ] unsigned char 
  3588 ;; Return value:  Size  Location     Type
  3589 ;;                  1    wreg      void 
  3590 ;; Registers used:
  3591 ;;		wreg, fsr0l, fsr0h, fsr1l, fsr1h, status,2, status,0, pclath, cstack
  3592 ;; Tracked objects:
  3593 ;;		On entry : 0/0
  3594 ;;		On exit  : 0/0
  3595 ;;		Unchanged: 0/0
  3596 ;; Data sizes:     COMMON   BANK0   BANK1   BANK2   BANK3   BANK4   BANK5   BANK6
  3597 ;;      Params:         0       0       0       0       0       0       0       0
  3598 ;;      Locals:         0       0       9       0       0       0       0       0
  3599 ;;      Temps:          0       0       0       0       0       0       0       0
  3600 ;;      Totals:         0       0       9       0       0       0       0       0
  3601 ;;Total ram usage:        9 bytes
  3602 ;; Hardware stack levels used: 1
  3603 ;; Hardware stack levels required when called: 8
  3604 ;; This function calls:
  3605 ;;		_LIN_getPacket
  3606 ;; This function is called by:
  3607 ;;		_LIN_Master_Initialize
  3608 ;;		_LIN_handler
  3609 ;; This function uses a non-reentrant model
  3610 ;;
  3611                           
  3612     064B                     _processLIN:	
  3613                           ;psect for function _processLIN
  3614                           
  3615     064B                     l2568:	
  3616                           ;incstack = 0
  3617                           ; Regs used in _processLIN: [wreg-fsr1h+status,2+status,0+pclath+cstack]
  3618                           
  3619                           
  3620                           ;mcc_generated_files/LINDrivers/lin_app.c: 50:     uint8_t tempRxData[8];;mcc_generated_
      +                          files/LINDrivers/lin_app.c: 51:     uint8_t cmd;;mcc_generated_files/LINDrivers/lin_app.
      +                          c: 53:     cmd = LIN_getPacket(tempRxData);
  3621     064B  30CF               	movlw	(low (processLIN@tempRxData| 0))& (0+255)
  3622     064C  3185  251C  3186   	fcall	_LIN_getPacket
  3623     064F  0021               	movlb	1	; select bank1
  3624     0650  00D7               	movwf	processLIN@cmd^(0+128)
  3625     0651                     l2572:	
  3626                           ;mcc_generated_files/LINDrivers/lin_app.c: 54:     switch(cmd){
  3627                           
  3628     0651  0857               	movf	processLIN@cmd^(0+128),w
  3629                           
  3630                           ; Switch size 1, requested type "simple"
  3631                           ; Number of cases is 1, Range of values is 1 to 1
  3632                           ; switch strategies available:
  3633                           ; Name         Instructions Cycles
  3634                           ; simple_byte            4     3 (average)
  3635                           ; direct_byte           11     9 (fixed)
  3636                           ; jumptable            263     9 (fixed)
  3637                           ;	Chosen strategy is simple_byte
  3638     0652  3A01               	xorlw	1	; case 1
  3639     0653  1903               	skipnz
  3640     0654  2E56               	goto	l215
  3641     0655  2E56               	goto	l215
  3642     0656                     l215:
  3643     0656  0008               	return
  3644     0657                     __end_of_processLIN:
  3645                           
  3646                           	psect	text20
  3647     051C                     __ptext20:	
  3648 ;; *************** function _LIN_getPacket *****************
  3649 ;; Defined at:
  3650 ;;		line 216 in file "mcc_generated_files/LINDrivers/lin_master.c"
  3651 ;; Parameters:    Size  Location     Type
  3652 ;;  data            1    wreg     PTR unsigned char 
  3653 ;;		 -> processLIN@tempRxData(8), 
  3654 ;; Auto vars:     Size  Location     Type
  3655 ;;  data            1   17[BANK0 ] PTR unsigned char 
  3656 ;;		 -> processLIN@tempRxData(8), 
  3657 ;;  cmd             1   18[BANK0 ] unsigned char 
  3658 ;; Return value:  Size  Location     Type
  3659 ;;                  1    wreg      unsigned char 
  3660 ;; Registers used:
  3661 ;;		wreg, fsr1l, fsr1h, status,2, status,0, pclath, cstack
  3662 ;; Tracked objects:
  3663 ;;		On entry : 0/0
  3664 ;;		On exit  : 0/0
  3665 ;;		Unchanged: 0/0
  3666 ;; Data sizes:     COMMON   BANK0   BANK1   BANK2   BANK3   BANK4   BANK5   BANK6
  3667 ;;      Params:         0       0       0       0       0       0       0       0
  3668 ;;      Locals:         0       2       0       0       0       0       0       0
  3669 ;;      Temps:          0       0       0       0       0       0       0       0
  3670 ;;      Totals:         0       2       0       0       0       0       0       0
  3671 ;;Total ram usage:        2 bytes
  3672 ;; Hardware stack levels used: 1
  3673 ;; Hardware stack levels required when called: 7
  3674 ;; This function calls:
  3675 ;;		_memcpy
  3676 ;;		_memset
  3677 ;; This function is called by:
  3678 ;;		_processLIN
  3679 ;; This function uses a non-reentrant model
  3680 ;;
  3681                           
  3682     051C                     _LIN_getPacket:	
  3683                           ;psect for function _LIN_getPacket
  3684                           
  3685                           
  3686                           ;incstack = 0
  3687                           ; Regs used in _LIN_getPacket: [wreg+fsr1l+fsr1h+status,2+status,0+pclath+cstack]
  3688                           ;LIN_getPacket@data stored from wreg
  3689     051C  0020               	movlb	0	; select bank0
  3690     051D  00DD               	movwf	LIN_getPacket@data
  3691     051E                     l2472:
  3692                           
  3693                           ;mcc_generated_files/LINDrivers/lin_master.c: 217:   uint8_t cmd = LIN_rxPacket.cmd & 0x
      +                          3F;
  3694     051E  0021               	movlb	1	; select bank1
  3695     051F  0838               	movf	_LIN_rxPacket^(0+128),w
  3696     0520  393F               	andlw	63
  3697     0521  0020               	movlb	0	; select bank0
  3698     0522  00DE               	movwf	LIN_getPacket@cmd
  3699     0523                     l2474:
  3700                           
  3701                           ;mcc_generated_files/LINDrivers/lin_master.c: 219:   memcpy(data, LIN_rxPacket.data, siz
      +                          eof(LIN_rxPacket.data));
  3702     0523  30BA               	movlw	(low ((_LIN_rxPacket| 0+2)))& (0+255)
  3703     0524  00D5               	movwf	memcpy@s1
  3704     0525  3008               	movlw	8
  3705     0526  00D6               	movwf	memcpy@n
  3706     0527  3000               	movlw	0
  3707     0528  00D7               	movwf	memcpy@n+1
  3708     0529  085D               	movf	LIN_getPacket@data,w
  3709     052A  3184  24AF  3185   	fcall	_memcpy
  3710     052D                     l2476:
  3711                           
  3712                           ;mcc_generated_files/LINDrivers/lin_master.c: 220:   memset(LIN_rxPacket.rawPacket, 0,
  3713     052D  3000               	movlw	0
  3714     052E  0020               	movlb	0	; select bank0
  3715     052F  00D5               	movwf	memset@c
  3716     0530  00D6               	movwf	memset@c+1
  3717     0531  300C               	movlw	12
  3718     0532  00D7               	movwf	memset@n
  3719     0533  3000               	movlw	0
  3720     0534  00D8               	movwf	memset@n+1
  3721     0535  30B8               	movlw	(low (_LIN_rxPacket| 0))& (0+255)
  3722     0536  3185  255B  3185   	fcall	_memset
  3723     0539                     l2478:
  3724                           
  3725                           ;mcc_generated_files/LINDrivers/lin_master.c: 223:   return cmd;
  3726     0539  0020               	movlb	0	; select bank0
  3727     053A  085E               	movf	LIN_getPacket@cmd,w
  3728     053B                     l127:
  3729     053B  0008               	return
  3730     053C                     __end_of_LIN_getPacket:
  3731                           
  3732                           	psect	text21
  3733     055B                     __ptext21:	
  3734 ;; *************** function _memset *****************
  3735 ;; Defined at:
  3736 ;;		line 3 in file "C:\Program Files\Microchip\xc8\v2.46\pic\sources\c99\common\memset.c"
  3737 ;; Parameters:    Size  Location     Type
  3738 ;;  dest            1    wreg     PTR void 
  3739 ;;		 -> LIN_rxPacket(12), LIN_packet(11), 
  3740 ;;  c               2    9[BANK0 ] int 
  3741 ;;  n               2   11[BANK0 ] unsigned int 
  3742 ;; Auto vars:     Size  Location     Type
  3743 ;;  dest            1   15[BANK0 ] PTR void 
  3744 ;;		 -> LIN_rxPacket(12), LIN_packet(11), 
  3745 ;;  p               1   14[BANK0 ] PTR unsigned char 
  3746 ;;		 -> LIN_rxPacket(12), LIN_packet(11), 
  3747 ;; Return value:  Size  Location     Type
  3748 ;;                  1    wreg      PTR void 
  3749 ;; Registers used:
  3750 ;;		wreg, fsr1l, fsr1h, status,2, status,0
  3751 ;; Tracked objects:
  3752 ;;		On entry : 0/0
  3753 ;;		On exit  : 0/0
  3754 ;;		Unchanged: 0/0
  3755 ;; Data sizes:     COMMON   BANK0   BANK1   BANK2   BANK3   BANK4   BANK5   BANK6
  3756 ;;      Params:         0       4       0       0       0       0       0       0
  3757 ;;      Locals:         0       2       0       0       0       0       0       0
  3758 ;;      Temps:          0       1       0       0       0       0       0       0
  3759 ;;      Totals:         0       7       0       0       0       0       0       0
  3760 ;;Total ram usage:        7 bytes
  3761 ;; Hardware stack levels used: 1
  3762 ;; Hardware stack levels required when called: 6
  3763 ;; This function calls:
  3764 ;;		Nothing
  3765 ;; This function is called by:
  3766 ;;		_LIN_handler
  3767 ;;		_LIN_getPacket
  3768 ;; This function uses a non-reentrant model
  3769 ;;
  3770                           
  3771     055B                     _memset:	
  3772                           ;psect for function _memset
  3773                           
  3774                           
  3775                           ;incstack = 0
  3776                           ; Regs used in _memset: [wreg+fsr1l+fsr1h+status,2+status,0]
  3777                           ;memset@dest stored from wreg
  3778     055B  0020               	movlb	0	; select bank0
  3779     055C  00DB               	movwf	memset@dest
  3780     055D                     l2436:
  3781     055D  085B               	movf	memset@dest,w
  3782     055E  00DA               	movwf	memset@p
  3783     055F  2D69               	goto	l2442
  3784     0560                     l2438:
  3785     0560  085A               	movf	memset@p,w
  3786     0561  0086               	movwf	6
  3787     0562  0187               	clrf	7
  3788     0563  0855               	movf	memset@c,w
  3789     0564  0081               	movwf	1
  3790     0565                     l2440:
  3791     0565  3001               	movlw	1
  3792     0566  00D9               	movwf	??_memset
  3793     0567  0859               	movf	??_memset,w
  3794     0568  07DA               	addwf	memset@p,f
  3795     0569                     l2442:
  3796     0569  3001               	movlw	1
  3797     056A  02D7               	subwf	memset@n,f
  3798     056B  3000               	movlw	0
  3799     056C  3BD8               	subwfb	memset@n+1,f
  3800     056D  0A57               	incf	memset@n,w
  3801     056E  1D03               	skipz
  3802     056F  2D74               	goto	u2161
  3803     0570  0A58               	incf	memset@n+1,w
  3804     0571  1D03               	btfss	3,2
  3805     0572  2D74               	goto	u2161
  3806     0573  2D75               	goto	u2160
  3807     0574                     u2161:
  3808     0574  2D60               	goto	l2438
  3809     0575                     u2160:
  3810     0575                     l1132:
  3811     0575  0008               	return
  3812     0576                     __end_of_memset:
  3813                           
  3814                           	psect	text22
  3815     04AF                     __ptext22:	
  3816 ;; *************** function _memcpy *****************
  3817 ;; Defined at:
  3818 ;;		line 4 in file "C:\Program Files\Microchip\xc8\v2.46\pic\sources\c99\common\memcpy.c"
  3819 ;; Parameters:    Size  Location     Type
  3820 ;;  d1              1    wreg     PTR void 
  3821 ;;		 -> processLIN@tempRxData(8), LIN_packet(11), 
  3822 ;;  s1              1    9[BANK0 ] PTR const void 
  3823 ;;		 -> SW_STATE_Data(8), LIN_rxPacket$data(8), LIN_rxPacket(12), 
  3824 ;;  n               2   10[BANK0 ] unsigned int 
  3825 ;; Auto vars:     Size  Location     Type
  3826 ;;  d1              1   16[BANK0 ] PTR void 
  3827 ;;		 -> processLIN@tempRxData(8), LIN_packet(11), 
  3828 ;;  s               1   15[BANK0 ] PTR const unsigned char 
  3829 ;;		 -> SW_STATE_Data(8), LIN_rxPacket$data(8), LIN_rxPacket(12), 
  3830 ;;  d               1   14[BANK0 ] PTR unsigned char 
  3831 ;;		 -> processLIN@tempRxData(8), LIN_packet(11), 
  3832 ;;  tmp             1   13[BANK0 ] unsigned char 
  3833 ;; Return value:  Size  Location     Type
  3834 ;;                  1    wreg      PTR void 
  3835 ;; Registers used:
  3836 ;;		wreg, fsr1l, fsr1h, status,2, status,0
  3837 ;; Tracked objects:
  3838 ;;		On entry : 0/0
  3839 ;;		On exit  : 0/0
  3840 ;;		Unchanged: 0/0
  3841 ;; Data sizes:     COMMON   BANK0   BANK1   BANK2   BANK3   BANK4   BANK5   BANK6
  3842 ;;      Params:         0       3       0       0       0       0       0       0
  3843 ;;      Locals:         0       4       0       0       0       0       0       0
  3844 ;;      Temps:          0       1       0       0       0       0       0       0
  3845 ;;      Totals:         0       8       0       0       0       0       0       0
  3846 ;;Total ram usage:        8 bytes
  3847 ;; Hardware stack levels used: 1
  3848 ;; Hardware stack levels required when called: 6
  3849 ;; This function calls:
  3850 ;;		Nothing
  3851 ;; This function is called by:
  3852 ;;		_LIN_getPacket
  3853 ;; This function uses a non-reentrant model
  3854 ;;
  3855                           
  3856     04AF                     _memcpy:	
  3857                           ;psect for function _memcpy
  3858                           
  3859                           
  3860                           ;incstack = 0
  3861                           ; Regs used in _memcpy: [wreg+fsr1l+fsr1h+status,2+status,0]
  3862                           ;memcpy@d1 stored from wreg
  3863     04AF  0020               	movlb	0	; select bank0
  3864     04B0  00DC               	movwf	memcpy@d1
  3865     04B1                     l2444:
  3866     04B1  0855               	movf	memcpy@s1,w
  3867     04B2  00DB               	movwf	memcpy@s
  3868     04B3  085C               	movf	memcpy@d1,w
  3869     04B4  00DA               	movwf	memcpy@d
  3870     04B5  2CC8               	goto	l1123
  3871     04B6                     l2446:
  3872     04B6  085B               	movf	memcpy@s,w
  3873     04B7  0086               	movwf	6
  3874     04B8  0187               	clrf	7
  3875     04B9  0801               	movf	1,w
  3876     04BA  00D9               	movwf	memcpy@tmp
  3877     04BB                     l2448:
  3878     04BB  3001               	movlw	1
  3879     04BC  00D8               	movwf	??_memcpy
  3880     04BD  0858               	movf	??_memcpy,w
  3881     04BE  07DB               	addwf	memcpy@s,f
  3882     04BF                     l2450:
  3883     04BF  085A               	movf	memcpy@d,w
  3884     04C0  0086               	movwf	6
  3885     04C1  0187               	clrf	7
  3886     04C2  0859               	movf	memcpy@tmp,w
  3887     04C3  0081               	movwf	1
  3888     04C4  3001               	movlw	1
  3889     04C5  00D8               	movwf	??_memcpy
  3890     04C6  0858               	movf	??_memcpy,w
  3891     04C7  07DA               	addwf	memcpy@d,f
  3892     04C8                     l1123:
  3893     04C8  3001               	movlw	1
  3894     04C9  02D6               	subwf	memcpy@n,f
  3895     04CA  3000               	movlw	0
  3896     04CB  3BD7               	subwfb	memcpy@n+1,f
  3897     04CC  0A56               	incf	memcpy@n,w
  3898     04CD  1D03               	skipz
  3899     04CE  2CD3               	goto	u2171
  3900     04CF  0A57               	incf	memcpy@n+1,w
  3901     04D0  1D03               	btfss	3,2
  3902     04D1  2CD3               	goto	u2171
  3903     04D2  2CD4               	goto	u2170
  3904     04D3                     u2171:
  3905     04D3  2CB6               	goto	l2446
  3906     04D4                     u2170:
  3907     04D4                     l1126:
  3908     04D4  0008               	return
  3909     04D5                     __end_of_memcpy:
  3910                           
  3911                           	psect	text23
  3912     0632                     __ptext23:	
  3913 ;; *************** function _LIN_startTimer *****************
  3914 ;; Defined at:
  3915 ;;		line 257 in file "mcc_generated_files/LINDrivers/lin_master.c"
  3916 ;; Parameters:    Size  Location     Type
  3917 ;;  timeout         1    wreg     unsigned char 
  3918 ;; Auto vars:     Size  Location     Type
  3919 ;;  timeout         1   10[BANK0 ] unsigned char 
  3920 ;; Return value:  Size  Location     Type
  3921 ;;                  1    wreg      void 
  3922 ;; Registers used:
  3923 ;;		wreg, status,2, status,0, pclath, cstack
  3924 ;; Tracked objects:
  3925 ;;		On entry : 0/0
  3926 ;;		On exit  : 0/0
  3927 ;;		Unchanged: 0/0
  3928 ;; Data sizes:     COMMON   BANK0   BANK1   BANK2   BANK3   BANK4   BANK5   BANK6
  3929 ;;      Params:         0       0       0       0       0       0       0       0
  3930 ;;      Locals:         0       1       0       0       0       0       0       0
  3931 ;;      Temps:          0       0       0       0       0       0       0       0
  3932 ;;      Totals:         0       1       0       0       0       0       0       0
  3933 ;;Total ram usage:        1 bytes
  3934 ;; Hardware stack levels used: 1
  3935 ;; Hardware stack levels required when called: 7
  3936 ;; This function calls:
  3937 ;;		_TMR0_WriteTimer
  3938 ;; This function is called by:
  3939 ;;		_LIN_handler
  3940 ;; This function uses a non-reentrant model
  3941 ;;
  3942                           
  3943     0632                     _LIN_startTimer:	
  3944                           ;psect for function _LIN_startTimer
  3945                           
  3946                           
  3947                           ;incstack = 0
  3948                           ; Regs used in _LIN_startTimer: [wreg+status,2+status,0+pclath+cstack]
  3949                           ;LIN_startTimer@timeout stored from wreg
  3950     0632  0020               	movlb	0	; select bank0
  3951     0633  00D6               	movwf	LIN_startTimer@timeout
  3952     0634                     l2018:
  3953                           
  3954                           ;mcc_generated_files/LINDrivers/lin_master.c: 258:   LIN_timeout = timeout;
  3955     0634  0856               	movf	LIN_startTimer@timeout,w
  3956     0635  00E1               	movwf	_LIN_timeout
  3957     0636                     l2020:
  3958                           
  3959                           ;mcc_generated_files/LINDrivers/lin_master.c: 259:   TMR0_WriteTimer(0);
  3960     0636  3000               	movlw	0
  3961     0637  3186  2699  3186   	fcall	_TMR0_WriteTimer
  3962     063A                     l2022:
  3963                           
  3964                           ;mcc_generated_files/LINDrivers/lin_master.c: 260:   __nop();
  3965     063A  0000               	nop
  3966     063B                     l2024:
  3967                           
  3968                           ;mcc_generated_files/LINDrivers/lin_master.c: 261:   LIN_timerRunning = 1;
  3969     063B  0020               	movlb	0	; select bank0
  3970     063C  01C0               	clrf	_LIN_timerRunning
  3971     063D  0AC0               	incf	_LIN_timerRunning,f
  3972     063E                     l140:
  3973     063E  0008               	return
  3974     063F                     __end_of_LIN_startTimer:
  3975                           
  3976                           	psect	text24
  3977     0699                     __ptext24:	
  3978 ;; *************** function _TMR0_WriteTimer *****************
  3979 ;; Defined at:
  3980 ;;		line 96 in file "mcc_generated_files/tmr0.c"
  3981 ;; Parameters:    Size  Location     Type
  3982 ;;  timerVal        1    wreg     unsigned char 
  3983 ;; Auto vars:     Size  Location     Type
  3984 ;;  timerVal        1    9[BANK0 ] unsigned char 
  3985 ;; Return value:  Size  Location     Type
  3986 ;;                  1    wreg      void 
  3987 ;; Registers used:
  3988 ;;		wreg
  3989 ;; Tracked objects:
  3990 ;;		On entry : 0/0
  3991 ;;		On exit  : 0/0
  3992 ;;		Unchanged: 0/0
  3993 ;; Data sizes:     COMMON   BANK0   BANK1   BANK2   BANK3   BANK4   BANK5   BANK6
  3994 ;;      Params:         0       0       0       0       0       0       0       0
  3995 ;;      Locals:         0       1       0       0       0       0       0       0
  3996 ;;      Temps:          0       0       0       0       0       0       0       0
  3997 ;;      Totals:         0       1       0       0       0       0       0       0
  3998 ;;Total ram usage:        1 bytes
  3999 ;; Hardware stack levels used: 1
  4000 ;; Hardware stack levels required when called: 6
  4001 ;; This function calls:
  4002 ;;		Nothing
  4003 ;; This function is called by:
  4004 ;;		_LIN_startTimer
  4005 ;; This function uses a non-reentrant model
  4006 ;;
  4007                           
  4008     0699                     _TMR0_WriteTimer:	
  4009                           ;psect for function _TMR0_WriteTimer
  4010                           
  4011                           
  4012                           ;incstack = 0
  4013                           ; Regs used in _TMR0_WriteTimer: [wreg]
  4014                           ;TMR0_WriteTimer@timerVal stored from wreg
  4015     0699  0020               	movlb	0	; select bank0
  4016     069A  00D5               	movwf	TMR0_WriteTimer@timerVal
  4017     069B                     l1954:
  4018                           
  4019                           ;mcc_generated_files/tmr0.c: 96: void TMR0_WriteTimer(uint8_t timerVal);mcc_generated_fi
      +                          les/tmr0.c: 97: {;mcc_generated_files/tmr0.c: 99:     TMR0 = timerVal;
  4020     069B  0855               	movf	TMR0_WriteTimer@timerVal,w
  4021     069C  0095               	movwf	21	;volatile
  4022     069D                     l483:
  4023     069D  0008               	return
  4024     069E                     __end_of_TMR0_WriteTimer:
  4025                           
  4026                           	psect	text25
  4027     0390                     __ptext25:	
  4028 ;; *************** function _LIN_sendPacket *****************
  4029 ;; Defined at:
  4030 ;;		line 195 in file "mcc_generated_files/LINDrivers/lin_master.c"
  4031 ;; Parameters:    Size  Location     Type
  4032 ;;		None
  4033 ;; Auto vars:     Size  Location     Type
  4034 ;;  i               1   12[BANK0 ] unsigned char 
  4035 ;; Return value:  Size  Location     Type
  4036 ;;                  1    wreg      void 
  4037 ;; Registers used:
  4038 ;;		wreg, fsr1l, fsr1h, status,2, status,0, pclath, cstack
  4039 ;; Tracked objects:
  4040 ;;		On entry : 0/0
  4041 ;;		On exit  : 0/0
  4042 ;;		Unchanged: 0/0
  4043 ;; Data sizes:     COMMON   BANK0   BANK1   BANK2   BANK3   BANK4   BANK5   BANK6
  4044 ;;      Params:         0       0       0       0       0       0       0       0
  4045 ;;      Locals:         0       1       0       0       0       0       0       0
  4046 ;;      Temps:          0       1       0       0       0       0       0       0
  4047 ;;      Totals:         0       2       0       0       0       0       0       0
  4048 ;;Total ram usage:        2 bytes
  4049 ;; Hardware stack levels used: 1
  4050 ;; Hardware stack levels required when called: 7
  4051 ;; This function calls:
  4052 ;;		_EUSART_Write
  4053 ;;		_LIN_sendBreak
  4054 ;; This function is called by:
  4055 ;;		_LIN_handler
  4056 ;; This function uses a non-reentrant model
  4057 ;;
  4058                           
  4059     0390                     _LIN_sendPacket:	
  4060                           ;psect for function _LIN_sendPacket
  4061                           
  4062     0390                     l1998:	
  4063                           ;incstack = 0
  4064                           ; Regs used in _LIN_sendPacket: [wreg+fsr1l+fsr1h+status,2+status,0+pclath+cstack]
  4065                           
  4066                           
  4067                           ;mcc_generated_files/LINDrivers/lin_master.c: 198:   LIN_sendBreak();
  4068     0390  3186  26C0  3183   	fcall	_LIN_sendBreak
  4069     0393                     l2000:
  4070                           
  4071                           ;mcc_generated_files/LINDrivers/lin_master.c: 199:   EUSART_Write(0x00);
  4072     0393  3000               	movlw	0
  4073     0394  3184  245F  3183   	fcall	_EUSART_Write
  4074     0397                     l2002:
  4075                           
  4076                           ;mcc_generated_files/LINDrivers/lin_master.c: 201:   EUSART_Write(0x55);
  4077     0397  3055               	movlw	85
  4078     0398  3184  245F  3183   	fcall	_EUSART_Write
  4079     039B                     l2004:
  4080                           
  4081                           ;mcc_generated_files/LINDrivers/lin_master.c: 203:   EUSART_Write(LIN_packet.PID);
  4082     039B  0021               	movlb	1	; select bank1
  4083     039C  0844               	movf	_LIN_packet^(0+128),w
  4084     039D  3184  245F  3183   	fcall	_EUSART_Write
  4085     03A0                     l2006:
  4086                           
  4087                           ;mcc_generated_files/LINDrivers/lin_master.c: 205:   if (LIN_rxPacket.rxLength == 0) {
  4088     03A0  0021               	movlb	1	; select bank1
  4089     03A1  0839               	movf	(_LIN_rxPacket^(0+128)+1),w
  4090     03A2  1D03               	btfss	3,2
  4091     03A3  2BA5               	goto	u1421
  4092     03A4  2BA6               	goto	u1420
  4093     03A5                     u1421:
  4094     03A5  2BC3               	goto	l124
  4095     03A6                     u1420:
  4096     03A6                     l2008:
  4097                           
  4098                           ;mcc_generated_files/LINDrivers/lin_master.c: 208:     for (uint8_t i = 0; i < LIN_packe
      +                          t.length; i++) {
  4099     03A6  0020               	movlb	0	; select bank0
  4100     03A7  01D8               	clrf	LIN_sendPacket@i
  4101     03A8  2BB6               	goto	l2014
  4102     03A9                     l2010:
  4103                           
  4104                           ;mcc_generated_files/LINDrivers/lin_master.c: 209:       EUSART_Write(LIN_packet.data[i]
      +                          );
  4105     03A9  0858               	movf	LIN_sendPacket@i,w
  4106     03AA  3EC5               	addlw	(low ((_LIN_packet| 0+1)))& (0+255)
  4107     03AB  0086               	movwf	6
  4108     03AC  0187               	clrf	7
  4109     03AD  0801               	movf	1,w
  4110     03AE  3184  245F  3183   	fcall	_EUSART_Write
  4111     03B1                     l2012:
  4112                           
  4113                           ;mcc_generated_files/LINDrivers/lin_master.c: 210:     }
  4114     03B1  3001               	movlw	1
  4115     03B2  0020               	movlb	0	; select bank0
  4116     03B3  00D7               	movwf	??_LIN_sendPacket
  4117     03B4  0857               	movf	??_LIN_sendPacket,w
  4118     03B5  07D8               	addwf	LIN_sendPacket@i,f
  4119     03B6                     l2014:
  4120     03B6  0021               	movlb	1	; select bank1
  4121     03B7  084E               	movf	(_LIN_packet^(0+128)+10),w
  4122     03B8  0020               	movlb	0	; select bank0
  4123     03B9  0258               	subwf	LIN_sendPacket@i,w
  4124     03BA  1C03               	skipc
  4125     03BB  2BBD               	goto	u1431
  4126     03BC  2BBE               	goto	u1430
  4127     03BD                     u1431:
  4128     03BD  2BA9               	goto	l2010
  4129     03BE                     u1430:
  4130     03BE                     l2016:
  4131                           
  4132                           ;mcc_generated_files/LINDrivers/lin_master.c: 212:     EUSART_Write(LIN_packet.checksum)
      +                          ;
  4133     03BE  0021               	movlb	1	; select bank1
  4134     03BF  084D               	movf	(_LIN_packet^(0+128)+9),w
  4135     03C0  3184  245F  3183   	fcall	_EUSART_Write
  4136     03C3                     l124:
  4137     03C3  0008               	return
  4138     03C4                     __end_of_LIN_sendPacket:
  4139                           
  4140                           	psect	text26
  4141     06C0                     __ptext26:	
  4142 ;; *************** function _LIN_sendBreak *****************
  4143 ;; Defined at:
  4144 ;;		line 351 in file "mcc_generated_files/LINDrivers/lin_master.c"
  4145 ;; Parameters:    Size  Location     Type
  4146 ;;		None
  4147 ;; Auto vars:     Size  Location     Type
  4148 ;;		None
  4149 ;; Return value:  Size  Location     Type
  4150 ;;                  1    wreg      void 
  4151 ;; Registers used:
  4152 ;;		None
  4153 ;; Tracked objects:
  4154 ;;		On entry : 0/0
  4155 ;;		On exit  : 0/0
  4156 ;;		Unchanged: 0/0
  4157 ;; Data sizes:     COMMON   BANK0   BANK1   BANK2   BANK3   BANK4   BANK5   BANK6
  4158 ;;      Params:         0       0       0       0       0       0       0       0
  4159 ;;      Locals:         0       0       0       0       0       0       0       0
  4160 ;;      Temps:          0       0       0       0       0       0       0       0
  4161 ;;      Totals:         0       0       0       0       0       0       0       0
  4162 ;;Total ram usage:        0 bytes
  4163 ;; Hardware stack levels used: 1
  4164 ;; Hardware stack levels required when called: 6
  4165 ;; This function calls:
  4166 ;;		Nothing
  4167 ;; This function is called by:
  4168 ;;		_LIN_sendPacket
  4169 ;; This function uses a non-reentrant model
  4170 ;;
  4171                           
  4172     06C0                     _LIN_sendBreak:	
  4173                           ;psect for function _LIN_sendBreak
  4174                           
  4175     06C0                     l1924:	
  4176                           ;incstack = 0
  4177                           ; Regs used in _LIN_sendBreak: []
  4178                           
  4179     06C0  0023               	movlb	3	; select bank3
  4180     06C1  159E               	bsf	30,3	;volatile
  4181     06C2                     l186:
  4182     06C2  0008               	return
  4183     06C3                     __end_of_LIN_sendBreak:
  4184                           
  4185                           	psect	text27
  4186     045F                     __ptext27:	
  4187 ;; *************** function _EUSART_Write *****************
  4188 ;; Defined at:
  4189 ;;		line 173 in file "mcc_generated_files/eusart.c"
  4190 ;; Parameters:    Size  Location     Type
  4191 ;;  txData          1    wreg     unsigned char 
  4192 ;; Auto vars:     Size  Location     Type
  4193 ;;  txData          1   10[BANK0 ] unsigned char 
  4194 ;; Return value:  Size  Location     Type
  4195 ;;                  1    wreg      void 
  4196 ;; Registers used:
  4197 ;;		wreg, fsr1l, fsr1h, status,2, status,0
  4198 ;; Tracked objects:
  4199 ;;		On entry : 0/0
  4200 ;;		On exit  : 0/0
  4201 ;;		Unchanged: 0/0
  4202 ;; Data sizes:     COMMON   BANK0   BANK1   BANK2   BANK3   BANK4   BANK5   BANK6
  4203 ;;      Params:         0       0       0       0       0       0       0       0
  4204 ;;      Locals:         0       1       0       0       0       0       0       0
  4205 ;;      Temps:          0       1       0       0       0       0       0       0
  4206 ;;      Totals:         0       2       0       0       0       0       0       0
  4207 ;;Total ram usage:        2 bytes
  4208 ;; Hardware stack levels used: 1
  4209 ;; Hardware stack levels required when called: 6
  4210 ;; This function calls:
  4211 ;;		Nothing
  4212 ;; This function is called by:
  4213 ;;		_LIN_sendPacket
  4214 ;; This function uses a non-reentrant model
  4215 ;;
  4216                           
  4217     045F                     _EUSART_Write:	
  4218                           ;psect for function _EUSART_Write
  4219                           
  4220                           
  4221                           ;incstack = 0
  4222                           ; Regs used in _EUSART_Write: [wreg+fsr1l+fsr1h+status,2+status,0]
  4223                           ;EUSART_Write@txData stored from wreg
  4224     045F  0020               	movlb	0	; select bank0
  4225     0460  00D6               	movwf	EUSART_Write@txData
  4226     0461                     l1926:
  4227     0461                     l1928:	
  4228                           ;mcc_generated_files/eusart.c: 173: void EUSART_Write(uint8_t txData);mcc_generated_file
      +                          s/eusart.c: 174: {;mcc_generated_files/eusart.c: 175:     while(0 == eusartTxBufferRemai
      +                          ning)
  4229                           
  4230                           
  4231                           ;mcc_generated_files/eusart.c: 175:     while(0 == eusartTxBufferRemaining)
  4232     0461  0837               	movf	_eusartTxBufferRemaining,w	;volatile
  4233     0462  1903               	btfsc	3,2
  4234     0463  2C65               	goto	u1351
  4235     0464  2C66               	goto	u1350
  4236     0465                     u1351:
  4237     0465  2C61               	goto	l1928
  4238     0466                     u1350:
  4239     0466                     l314:
  4240                           
  4241                           ;mcc_generated_files/eusart.c: 179:     if(0 == PIE1bits.TXIE)
  4242     0466  0021               	movlb	1	; select bank1
  4243     0467  1A11               	btfsc	17,4	;volatile
  4244     0468  2C6A               	goto	u1361
  4245     0469  2C6B               	goto	u1360
  4246     046A                     u1361:
  4247     046A  2C70               	goto	l315
  4248     046B                     u1360:
  4249     046B                     l1930:
  4250                           
  4251                           ;mcc_generated_files/eusart.c: 180:     {;mcc_generated_files/eusart.c: 181:         TXR
      +                          EG = txData;
  4252     046B  0020               	movlb	0	; select bank0
  4253     046C  0856               	movf	EUSART_Write@txData,w
  4254     046D  0023               	movlb	3	; select bank3
  4255     046E  009A               	movwf	26	;volatile
  4256                           
  4257                           ;mcc_generated_files/eusart.c: 182:     }
  4258     046F  2C85               	goto	l1942
  4259     0470                     l315:	
  4260                           ;mcc_generated_files/eusart.c: 183:     else
  4261                           
  4262                           
  4263                           ;mcc_generated_files/eusart.c: 184:     {;mcc_generated_files/eusart.c: 185:         PIE
      +                          1bits.TXIE = 0;
  4264     0470  1211               	bcf	17,4	;volatile
  4265     0471                     l1932:
  4266                           
  4267                           ;mcc_generated_files/eusart.c: 186:         eusartTxBuffer[eusartTxHead++] = txData;
  4268     0471  0020               	movlb	0	; select bank0
  4269     0472  0839               	movf	_eusartTxHead,w
  4270     0473  3EB0               	addlw	(low (_eusartTxBuffer| 0))& (0+255)
  4271     0474  0086               	movwf	6
  4272     0475  0187               	clrf	7
  4273     0476  0856               	movf	EUSART_Write@txData,w
  4274     0477  0081               	movwf	1
  4275     0478                     l1934:
  4276     0478  3001               	movlw	1
  4277     0479  00D5               	movwf	??_EUSART_Write
  4278     047A  0855               	movf	??_EUSART_Write,w
  4279     047B  07B9               	addwf	_eusartTxHead,f	;volatile
  4280     047C                     l1936:
  4281                           
  4282                           ;mcc_generated_files/eusart.c: 187:         if(sizeof(eusartTxBuffer) <= eusartTxHead)
  4283     047C  3008               	movlw	8
  4284     047D  0239               	subwf	_eusartTxHead,w	;volatile
  4285     047E  1C03               	skipc
  4286     047F  2C81               	goto	u1371
  4287     0480  2C82               	goto	u1370
  4288     0481                     u1371:
  4289     0481  2C83               	goto	l1940
  4290     0482                     u1370:
  4291     0482                     l1938:
  4292                           
  4293                           ;mcc_generated_files/eusart.c: 188:         {;mcc_generated_files/eusart.c: 189:        
      +                               eusartTxHead = 0;
  4294     0482  01B9               	clrf	_eusartTxHead	;volatile
  4295     0483                     l1940:
  4296                           
  4297                           ;mcc_generated_files/eusart.c: 191:         eusartTxBufferRemaining--;
  4298     0483  3001               	movlw	1
  4299     0484  02B7               	subwf	_eusartTxBufferRemaining,f	;volatile
  4300     0485                     l1942:
  4301                           
  4302                           ;mcc_generated_files/eusart.c: 193:     PIE1bits.TXIE = 1;
  4303     0485  0021               	movlb	1	; select bank1
  4304     0486  1611               	bsf	17,4	;volatile
  4305     0487                     l318:
  4306     0487  0008               	return
  4307     0488                     __end_of_EUSART_Write:
  4308                           
  4309                           	psect	text28
  4310     03C4                     __ptext28:	
  4311 ;; *************** function _LIN_receivePacket *****************
  4312 ;; Defined at:
  4313 ;;		line 177 in file "mcc_generated_files/LINDrivers/lin_master.c"
  4314 ;; Parameters:    Size  Location     Type
  4315 ;;		None
  4316 ;; Auto vars:     Size  Location     Type
  4317 ;;		None
  4318 ;; Return value:  Size  Location     Type
  4319 ;;                  1    wreg      _Bool 
  4320 ;; Registers used:
  4321 ;;		wreg, fsr1l, fsr1h, status,2, status,0, pclath, cstack
  4322 ;; Tracked objects:
  4323 ;;		On entry : 0/0
  4324 ;;		On exit  : 0/0
  4325 ;;		Unchanged: 0/0
  4326 ;; Data sizes:     COMMON   BANK0   BANK1   BANK2   BANK3   BANK4   BANK5   BANK6
  4327 ;;      Params:         0       0       0       0       0       0       0       0
  4328 ;;      Locals:         0       0       0       0       0       0       0       0
  4329 ;;      Temps:          0       1       0       0       0       0       0       0
  4330 ;;      Totals:         0       1       0       0       0       0       0       0
  4331 ;;Total ram usage:        1 bytes
  4332 ;; Hardware stack levels used: 1
  4333 ;; Hardware stack levels required when called: 7
  4334 ;; This function calls:
  4335 ;;		_EUSART_Read
  4336 ;;		_LIN_getChecksum
  4337 ;; This function is called by:
  4338 ;;		_LIN_handler
  4339 ;; This function uses a non-reentrant model
  4340 ;;
  4341                           
  4342     03C4                     _LIN_receivePacket:	
  4343                           ;psect for function _LIN_receivePacket
  4344                           
  4345     03C4                     l2032:	
  4346                           ;incstack = 0
  4347                           ; Regs used in _LIN_receivePacket: [wreg+fsr1l+fsr1h+status,2+status,0+pclath+cstack]
  4348                           
  4349                           
  4350                           ;mcc_generated_files/LINDrivers/lin_master.c: 178:   static uint8_t rxIndex = 0;;mcc_gen
      +                          erated_files/LINDrivers/lin_master.c: 180:   if (rxIndex < LIN_rxPacket.rxLength) {
  4351     03C4  0021               	movlb	1	; select bank1
  4352     03C5  0839               	movf	(_LIN_rxPacket^(0+128)+1),w
  4353     03C6  0020               	movlb	0	; select bank0
  4354     03C7  023B               	subwf	LIN_receivePacket@rxIndex,w
  4355     03C8  1803               	skipnc
  4356     03C9  2BCB               	goto	u1461
  4357     03CA  2BCC               	goto	u1460
  4358     03CB                     u1461:
  4359     03CB  2BDD               	goto	l2040
  4360     03CC                     u1460:
  4361     03CC                     l2034:
  4362                           
  4363                           ;mcc_generated_files/LINDrivers/lin_master.c: 182:     LIN_rxPacket.data[rxIndex++] = EU
      +                          SART_Read();
  4364     03CC  3184  2488  3183   	fcall	_EUSART_Read
  4365     03CF  0020               	movlb	0	; select bank0
  4366     03D0  00DD               	movwf	??_LIN_receivePacket
  4367     03D1  083B               	movf	LIN_receivePacket@rxIndex,w
  4368     03D2  3EBA               	addlw	(low ((_LIN_rxPacket| 0+2)))& (0+255)
  4369     03D3  0086               	movwf	6
  4370     03D4  0187               	clrf	7
  4371     03D5  085D               	movf	??_LIN_receivePacket,w
  4372     03D6  0081               	movwf	1
  4373     03D7                     l2036:
  4374     03D7  3001               	movlw	1
  4375     03D8  00DD               	movwf	??_LIN_receivePacket
  4376     03D9  085D               	movf	??_LIN_receivePacket,w
  4377     03DA  07BB               	addwf	LIN_receivePacket@rxIndex,f
  4378     03DB                     l2038:
  4379                           
  4380                           ;mcc_generated_files/LINDrivers/lin_master.c: 183:     __nop();
  4381     03DB  0000               	nop
  4382                           
  4383                           ;mcc_generated_files/LINDrivers/lin_master.c: 184:   } else {
  4384     03DC  2BF6               	goto	l2048
  4385     03DD                     l2040:
  4386                           
  4387                           ;mcc_generated_files/LINDrivers/lin_master.c: 185:     rxIndex = 0;
  4388     03DD  01BB               	clrf	LIN_receivePacket@rxIndex
  4389     03DE                     l2042:
  4390                           
  4391                           ;mcc_generated_files/LINDrivers/lin_master.c: 187:     if (EUSART_Read() == LIN_getCheck
      +                          sum(LIN_rxPacket.rxLength, LIN_packet.PID,
  4392     03DE  0021               	movlb	1	; select bank1
  4393     03DF  0844               	movf	_LIN_packet^(0+128),w
  4394     03E0  0020               	movlb	0	; select bank0
  4395     03E1  00D5               	movwf	LIN_getChecksum@pid
  4396     03E2  30BA               	movlw	(low ((_LIN_rxPacket| 0+2)))& (0+255)
  4397     03E3  00D6               	movwf	LIN_getChecksum@data
  4398     03E4  0021               	movlb	1	; select bank1
  4399     03E5  0839               	movf	(_LIN_rxPacket^(0+128)+1),w
  4400     03E6  3183  23F8  3183   	fcall	_LIN_getChecksum
  4401     03E9  0020               	movlb	0	; select bank0
  4402     03EA  00DD               	movwf	??_LIN_receivePacket
  4403     03EB  3184  2488  3183   	fcall	_EUSART_Read
  4404     03EE  0020               	movlb	0	; select bank0
  4405     03EF  065D               	xorwf	??_LIN_receivePacket,w
  4406     03F0  1D03               	skipz
  4407     03F1  2BF3               	goto	u1471
  4408     03F2  2BF4               	goto	u1470
  4409     03F3                     u1471:
  4410     03F3  2BF6               	goto	l2048
  4411     03F4                     u1470:
  4412     03F4                     l2044:
  4413                           
  4414                           ;mcc_generated_files/LINDrivers/lin_master.c: 189:       return 1;
  4415     03F4  3001               	movlw	1
  4416     03F5  2BF7               	goto	l117
  4417     03F6                     l2048:
  4418                           
  4419                           ;mcc_generated_files/LINDrivers/lin_master.c: 192:   return 0;
  4420     03F6  3000               	movlw	0
  4421     03F7                     l117:
  4422     03F7  0008               	return
  4423     03F8                     __end_of_LIN_receivePacket:
  4424                           
  4425                           	psect	text29
  4426     03F8                     __ptext29:	
  4427 ;; *************** function _LIN_getChecksum *****************
  4428 ;; Defined at:
  4429 ;;		line 244 in file "mcc_generated_files/LINDrivers/lin_master.c"
  4430 ;; Parameters:    Size  Location     Type
  4431 ;;  length          1    wreg     unsigned char 
  4432 ;;  pid             1    9[BANK0 ] unsigned char 
  4433 ;;  data            1   10[BANK0 ] PTR unsigned char 
  4434 ;;		 -> LIN_rxPacket(12), LIN_packet(11), 
  4435 ;; Auto vars:     Size  Location     Type
  4436 ;;  length          1   13[BANK0 ] unsigned char 
  4437 ;;  i               1   14[BANK0 ] unsigned char 
  4438 ;;  checksum        2   15[BANK0 ] unsigned short 
  4439 ;; Return value:  Size  Location     Type
  4440 ;;                  1    wreg      unsigned char 
  4441 ;; Registers used:
  4442 ;;		wreg, fsr1l, fsr1h, status,2, status,0
  4443 ;; Tracked objects:
  4444 ;;		On entry : 0/0
  4445 ;;		On exit  : 0/0
  4446 ;;		Unchanged: 0/0
  4447 ;; Data sizes:     COMMON   BANK0   BANK1   BANK2   BANK3   BANK4   BANK5   BANK6
  4448 ;;      Params:         0       2       0       0       0       0       0       0
  4449 ;;      Locals:         0       4       0       0       0       0       0       0
  4450 ;;      Temps:          0       2       0       0       0       0       0       0
  4451 ;;      Totals:         0       8       0       0       0       0       0       0
  4452 ;;Total ram usage:        8 bytes
  4453 ;; Hardware stack levels used: 1
  4454 ;; Hardware stack levels required when called: 6
  4455 ;; This function calls:
  4456 ;;		Nothing
  4457 ;; This function is called by:
  4458 ;;		_LIN_receivePacket
  4459 ;; This function uses a non-reentrant model
  4460 ;;
  4461                           
  4462     03F8                     _LIN_getChecksum:	
  4463                           ;psect for function _LIN_getChecksum
  4464                           
  4465                           
  4466                           ;incstack = 0
  4467                           ; Regs used in _LIN_getChecksum: [wreg+fsr1l+fsr1h+status,2+status,0]
  4468                           ;LIN_getChecksum@length stored from wreg
  4469     03F8  0020               	movlb	0	; select bank0
  4470     03F9  00D9               	movwf	LIN_getChecksum@length
  4471     03FA                     l1882:
  4472                           
  4473                           ;mcc_generated_files/LINDrivers/lin_master.c: 245:   uint16_t checksum = pid;
  4474     03FA  0855               	movf	LIN_getChecksum@pid,w
  4475     03FB  00D7               	movwf	??_LIN_getChecksum
  4476     03FC  01D8               	clrf	??_LIN_getChecksum+1
  4477     03FD  0857               	movf	??_LIN_getChecksum,w
  4478     03FE  00DB               	movwf	LIN_getChecksum@checksum
  4479     03FF  0858               	movf	??_LIN_getChecksum+1,w
  4480     0400  00DC               	movwf	LIN_getChecksum@checksum+1
  4481     0401                     l1884:
  4482                           
  4483                           ;mcc_generated_files/LINDrivers/lin_master.c: 247:   for (uint8_t i = 0; i < length; i++
      +                          ) {
  4484     0401  01DA               	clrf	LIN_getChecksum@i
  4485     0402  2C22               	goto	l1896
  4486     0403                     l1886:
  4487                           
  4488                           ;mcc_generated_files/LINDrivers/lin_master.c: 248:     checksum = checksum + *data++;
  4489     0403  0856               	movf	LIN_getChecksum@data,w
  4490     0404  0086               	movwf	6
  4491     0405  0187               	clrf	7
  4492     0406  0801               	movf	1,w
  4493     0407  075B               	addwf	LIN_getChecksum@checksum,w
  4494     0408  00DB               	movwf	LIN_getChecksum@checksum
  4495     0409  085C               	movf	LIN_getChecksum@checksum+1,w
  4496     040A  1803               	skipnc
  4497     040B  0A5C               	incf	LIN_getChecksum@checksum+1,w
  4498     040C  00DC               	movwf	LIN_getChecksum@checksum+1
  4499     040D                     l1888:
  4500     040D  3001               	movlw	1
  4501     040E  00D7               	movwf	??_LIN_getChecksum
  4502     040F  0857               	movf	??_LIN_getChecksum,w
  4503     0410  07D6               	addwf	LIN_getChecksum@data,f
  4504     0411                     l1890:
  4505                           
  4506                           ;mcc_generated_files/LINDrivers/lin_master.c: 249:     if (checksum > 0xFF)
  4507     0411  3001               	movlw	1
  4508     0412  025C               	subwf	LIN_getChecksum@checksum+1,w
  4509     0413  3000               	movlw	0
  4510     0414  1903               	skipnz
  4511     0415  025B               	subwf	LIN_getChecksum@checksum,w
  4512     0416  1C03               	skipc
  4513     0417  2C19               	goto	u1311
  4514     0418  2C1A               	goto	u1310
  4515     0419                     u1311:
  4516     0419  2C1E               	goto	l1894
  4517     041A                     u1310:
  4518     041A                     l1892:
  4519                           
  4520                           ;mcc_generated_files/LINDrivers/lin_master.c: 250:       checksum -= 0xFF;
  4521     041A  30FF               	movlw	255
  4522     041B  02DB               	subwf	LIN_getChecksum@checksum,f
  4523     041C  3000               	movlw	0
  4524     041D  3BDC               	subwfb	LIN_getChecksum@checksum+1,f
  4525     041E                     l1894:
  4526                           
  4527                           ;mcc_generated_files/LINDrivers/lin_master.c: 251:   }
  4528     041E  3001               	movlw	1
  4529     041F  00D7               	movwf	??_LIN_getChecksum
  4530     0420  0857               	movf	??_LIN_getChecksum,w
  4531     0421  07DA               	addwf	LIN_getChecksum@i,f
  4532     0422                     l1896:
  4533     0422  0859               	movf	LIN_getChecksum@length,w
  4534     0423  025A               	subwf	LIN_getChecksum@i,w
  4535     0424  1C03               	skipc
  4536     0425  2C27               	goto	u1321
  4537     0426  2C28               	goto	u1320
  4538     0427                     u1321:
  4539     0427  2C03               	goto	l1886
  4540     0428                     u1320:
  4541     0428                     l136:
  4542                           
  4543                           ;mcc_generated_files/LINDrivers/lin_master.c: 252:   checksum = ~checksum;
  4544     0428  09DB               	comf	LIN_getChecksum@checksum,f
  4545     0429  09DC               	comf	LIN_getChecksum@checksum+1,f
  4546     042A                     l1898:
  4547                           
  4548                           ;mcc_generated_files/LINDrivers/lin_master.c: 254:   return (uint8_t)checksum;
  4549     042A  085B               	movf	LIN_getChecksum@checksum,w
  4550     042B                     l137:
  4551     042B  0008               	return
  4552     042C                     __end_of_LIN_getChecksum:
  4553                           
  4554                           	psect	text30
  4555     0488                     __ptext30:	
  4556 ;; *************** function _EUSART_Read *****************
  4557 ;; Defined at:
  4558 ;;		line 151 in file "mcc_generated_files/eusart.c"
  4559 ;; Parameters:    Size  Location     Type
  4560 ;;		None
  4561 ;; Auto vars:     Size  Location     Type
  4562 ;;  readValue       1   10[BANK0 ] unsigned char 
  4563 ;; Return value:  Size  Location     Type
  4564 ;;                  1    wreg      unsigned char 
  4565 ;; Registers used:
  4566 ;;		wreg, fsr1l, fsr1h, status,2, status,0
  4567 ;; Tracked objects:
  4568 ;;		On entry : 0/0
  4569 ;;		On exit  : 0/0
  4570 ;;		Unchanged: 0/0
  4571 ;; Data sizes:     COMMON   BANK0   BANK1   BANK2   BANK3   BANK4   BANK5   BANK6
  4572 ;;      Params:         0       0       0       0       0       0       0       0
  4573 ;;      Locals:         0       1       0       0       0       0       0       0
  4574 ;;      Temps:          0       1       0       0       0       0       0       0
  4575 ;;      Totals:         0       2       0       0       0       0       0       0
  4576 ;;Total ram usage:        2 bytes
  4577 ;; Hardware stack levels used: 1
  4578 ;; Hardware stack levels required when called: 6
  4579 ;; This function calls:
  4580 ;;		Nothing
  4581 ;; This function is called by:
  4582 ;;		_LIN_receivePacket
  4583 ;; This function uses a non-reentrant model
  4584 ;;
  4585                           
  4586     0488                     _EUSART_Read:	
  4587                           ;psect for function _EUSART_Read
  4588                           
  4589     0488                     l1902:	
  4590                           ;incstack = 0
  4591                           ; Regs used in _EUSART_Read: [wreg+fsr1l+fsr1h+status,2+status,0]
  4592                           
  4593     0488                     l1904:	
  4594                           ;mcc_generated_files/eusart.c: 155:     while(0 == eusartRxCount)
  4595                           
  4596                           
  4597                           ;mcc_generated_files/eusart.c: 155:     while(0 == eusartRxCount)
  4598     0488  0020               	movlb	0	; select bank0
  4599     0489  0834               	movf	_eusartRxCount,w	;volatile
  4600     048A  1903               	btfsc	3,2
  4601     048B  2C8D               	goto	u1331
  4602     048C  2C8E               	goto	u1330
  4603     048D                     u1331:
  4604     048D  2C88               	goto	l1904
  4605     048E                     u1330:
  4606     048E                     l1906:
  4607                           
  4608                           ;mcc_generated_files/eusart.c: 159:     eusartRxLastError = eusartRxStatusBuffer[eusartR
      +                          xTail];
  4609     048E  0835               	movf	_eusartRxTail,w	;volatile
  4610     048F  3EA0               	addlw	(low (_eusartRxStatusBuffer| 0))& (0+255)
  4611     0490  0086               	movwf	6
  4612     0491  0187               	clrf	7
  4613     0492  0801               	movf	1,w
  4614     0493  00B3               	movwf	_eusartRxLastError	;volatile
  4615                           
  4616                           ;mcc_generated_files/eusart.c: 161:     readValue = eusartRxBuffer[eusartRxTail++];
  4617     0494  0835               	movf	_eusartRxTail,w
  4618     0495  3EA8               	addlw	(low (_eusartRxBuffer| 0))& (0+255)
  4619     0496  0086               	movwf	6
  4620     0497  0187               	clrf	7
  4621     0498  0801               	movf	1,w
  4622     0499  00D6               	movwf	EUSART_Read@readValue
  4623     049A                     l1908:
  4624     049A  3001               	movlw	1
  4625     049B  00D5               	movwf	??_EUSART_Read
  4626     049C  0855               	movf	??_EUSART_Read,w
  4627     049D  07B5               	addwf	_eusartRxTail,f	;volatile
  4628     049E                     l1910:
  4629                           
  4630                           ;mcc_generated_files/eusart.c: 162:     if(sizeof(eusartRxBuffer) <= eusartRxTail)
  4631     049E  3008               	movlw	8
  4632     049F  0235               	subwf	_eusartRxTail,w	;volatile
  4633     04A0  1C03               	skipc
  4634     04A1  2CA3               	goto	u1341
  4635     04A2  2CA4               	goto	u1340
  4636     04A3                     u1341:
  4637     04A3  2CA5               	goto	l1914
  4638     04A4                     u1340:
  4639     04A4                     l1912:
  4640                           
  4641                           ;mcc_generated_files/eusart.c: 163:     {;mcc_generated_files/eusart.c: 164:         eus
      +                          artRxTail = 0;
  4642     04A4  01B5               	clrf	_eusartRxTail	;volatile
  4643     04A5                     l1914:
  4644                           
  4645                           ;mcc_generated_files/eusart.c: 166:     PIE1bits.RCIE = 0;
  4646     04A5  0021               	movlb	1	; select bank1
  4647     04A6  1291               	bcf	17,5	;volatile
  4648     04A7                     l1916:
  4649                           
  4650                           ;mcc_generated_files/eusart.c: 167:     eusartRxCount--;
  4651     04A7  3001               	movlw	1
  4652     04A8  0020               	movlb	0	; select bank0
  4653     04A9  02B4               	subwf	_eusartRxCount,f	;volatile
  4654     04AA                     l1918:
  4655                           
  4656                           ;mcc_generated_files/eusart.c: 168:     PIE1bits.RCIE = 1;
  4657     04AA  0021               	movlb	1	; select bank1
  4658     04AB  1691               	bsf	17,5	;volatile
  4659     04AC                     l1920:
  4660                           
  4661                           ;mcc_generated_files/eusart.c: 170:     return readValue;
  4662     04AC  0020               	movlb	0	; select bank0
  4663     04AD  0856               	movf	EUSART_Read@readValue,w
  4664     04AE                     l309:
  4665     04AE  0008               	return
  4666     04AF                     __end_of_EUSART_Read:
  4667                           
  4668                           	psect	text31
  4669     069E                     __ptext31:	
  4670 ;; *************** function _LIN_enableRx *****************
  4671 ;; Defined at:
  4672 ;;		line 341 in file "mcc_generated_files/LINDrivers/lin_master.c"
  4673 ;; Parameters:    Size  Location     Type
  4674 ;;		None
  4675 ;; Auto vars:     Size  Location     Type
  4676 ;;		None
  4677 ;; Return value:  Size  Location     Type
  4678 ;;                  1    wreg      void 
  4679 ;; Registers used:
  4680 ;;		None
  4681 ;; Tracked objects:
  4682 ;;		On entry : 0/0
  4683 ;;		On exit  : 0/0
  4684 ;;		Unchanged: 0/0
  4685 ;; Data sizes:     COMMON   BANK0   BANK1   BANK2   BANK3   BANK4   BANK5   BANK6
  4686 ;;      Params:         0       0       0       0       0       0       0       0
  4687 ;;      Locals:         0       0       0       0       0       0       0       0
  4688 ;;      Temps:          0       0       0       0       0       0       0       0
  4689 ;;      Totals:         0       0       0       0       0       0       0       0
  4690 ;;Total ram usage:        0 bytes
  4691 ;; Hardware stack levels used: 1
  4692 ;; Hardware stack levels required when called: 6
  4693 ;; This function calls:
  4694 ;;		Nothing
  4695 ;; This function is called by:
  4696 ;;		_LIN_handler
  4697 ;; This function uses a non-reentrant model
  4698 ;;
  4699                           
  4700     069E                     _LIN_enableRx:	
  4701                           ;psect for function _LIN_enableRx
  4702                           
  4703     069E                     l2026:	
  4704                           ;incstack = 0
  4705                           ; Regs used in _LIN_enableRx: []
  4706                           
  4707                           
  4708                           ;mcc_generated_files/LINDrivers/lin_master.c: 342:   RCSTAbits.CREN = 1;
  4709     069E  0023               	movlb	3	; select bank3
  4710     069F  161D               	bsf	29,4	;volatile
  4711                           
  4712                           ;mcc_generated_files/LINDrivers/lin_master.c: 343:   PIE1bits.RCIE = 1;
  4713     06A0  0021               	movlb	1	; select bank1
  4714     06A1  1691               	bsf	17,5	;volatile
  4715     06A2                     l180:
  4716     06A2  0008               	return
  4717     06A3                     __end_of_LIN_enableRx:
  4718                           
  4719                           	psect	text32
  4720     06A3                     __ptext32:	
  4721 ;; *************** function _LIN_disableRx *****************
  4722 ;; Defined at:
  4723 ;;		line 346 in file "mcc_generated_files/LINDrivers/lin_master.c"
  4724 ;; Parameters:    Size  Location     Type
  4725 ;;		None
  4726 ;; Auto vars:     Size  Location     Type
  4727 ;;		None
  4728 ;; Return value:  Size  Location     Type
  4729 ;;                  1    wreg      void 
  4730 ;; Registers used:
  4731 ;;		None
  4732 ;; Tracked objects:
  4733 ;;		On entry : 0/0
  4734 ;;		On exit  : 0/0
  4735 ;;		Unchanged: 0/0
  4736 ;; Data sizes:     COMMON   BANK0   BANK1   BANK2   BANK3   BANK4   BANK5   BANK6
  4737 ;;      Params:         0       0       0       0       0       0       0       0
  4738 ;;      Locals:         0       0       0       0       0       0       0       0
  4739 ;;      Temps:          0       0       0       0       0       0       0       0
  4740 ;;      Totals:         0       0       0       0       0       0       0       0
  4741 ;;Total ram usage:        0 bytes
  4742 ;; Hardware stack levels used: 1
  4743 ;; Hardware stack levels required when called: 6
  4744 ;; This function calls:
  4745 ;;		Nothing
  4746 ;; This function is called by:
  4747 ;;		_LIN_handler
  4748 ;; This function uses a non-reentrant model
  4749 ;;
  4750                           
  4751     06A3                     _LIN_disableRx:	
  4752                           ;psect for function _LIN_disableRx
  4753                           
  4754     06A3                     l1996:	
  4755                           ;incstack = 0
  4756                           ; Regs used in _LIN_disableRx: []
  4757                           
  4758                           
  4759                           ;mcc_generated_files/LINDrivers/lin_master.c: 347:   RCSTAbits.CREN = 0;
  4760     06A3  0023               	movlb	3	; select bank3
  4761     06A4  121D               	bcf	29,4	;volatile
  4762                           
  4763                           ;mcc_generated_files/LINDrivers/lin_master.c: 348:   PIE1bits.RCIE = 0;
  4764     06A5  0021               	movlb	1	; select bank1
  4765     06A6  1291               	bcf	17,5	;volatile
  4766     06A7                     l183:
  4767     06A7  0008               	return
  4768     06A8                     __end_of_LIN_disableRx:
  4769                           
  4770                           	psect	text33
  4771     0660                     __ptext33:	
  4772 ;; *************** function _EUSART_is_rx_ready *****************
  4773 ;; Defined at:
  4774 ;;		line 137 in file "mcc_generated_files/eusart.c"
  4775 ;; Parameters:    Size  Location     Type
  4776 ;;		None
  4777 ;; Auto vars:     Size  Location     Type
  4778 ;;		None
  4779 ;; Return value:  Size  Location     Type
  4780 ;;                  1    wreg      _Bool 
  4781 ;; Registers used:
  4782 ;;		wreg, status,2, status,0
  4783 ;; Tracked objects:
  4784 ;;		On entry : 0/0
  4785 ;;		On exit  : 0/0
  4786 ;;		Unchanged: 0/0
  4787 ;; Data sizes:     COMMON   BANK0   BANK1   BANK2   BANK3   BANK4   BANK5   BANK6
  4788 ;;      Params:         0       0       0       0       0       0       0       0
  4789 ;;      Locals:         0       0       0       0       0       0       0       0
  4790 ;;      Temps:          0       0       0       0       0       0       0       0
  4791 ;;      Totals:         0       0       0       0       0       0       0       0
  4792 ;;Total ram usage:        0 bytes
  4793 ;; Hardware stack levels used: 1
  4794 ;; Hardware stack levels required when called: 6
  4795 ;; This function calls:
  4796 ;;		Nothing
  4797 ;; This function is called by:
  4798 ;;		_LIN_handler
  4799 ;; This function uses a non-reentrant model
  4800 ;;
  4801                           
  4802     0660                     _EUSART_is_rx_ready:	
  4803                           ;psect for function _EUSART_is_rx_ready
  4804                           
  4805     0660                     l2028:	
  4806                           ;incstack = 0
  4807                           ; Regs used in _EUSART_is_rx_ready: [wreg+status,2+status,0]
  4808                           
  4809                           
  4810                           ;mcc_generated_files/eusart.c: 139:     return (eusartRxCount ? 1 : 0);
  4811     0660  0020               	movlb	0	; select bank0
  4812     0661  0834               	movf	_eusartRxCount,w	;volatile
  4813     0662  1D03               	btfss	3,2
  4814     0663  2E65               	goto	u1441
  4815     0664  2E67               	goto	u1440
  4816     0665                     u1441:
  4817     0665  3001               	movlw	1
  4818     0666  2E68               	goto	u1450
  4819     0667                     u1440:
  4820     0667  3000               	movlw	0
  4821     0668                     u1450:
  4822     0668                     l296:
  4823     0668  0008               	return
  4824     0669                     __end_of_EUSART_is_rx_ready:
  4825                           
  4826                           	psect	intentry
  4827     0004                     __pintentry:	
  4828 ;; *************** function _INTERRUPT_InterruptManager *****************
  4829 ;; Defined at:
  4830 ;;		line 52 in file "mcc_generated_files/interrupt_manager.c"
  4831 ;; Parameters:    Size  Location     Type
  4832 ;;		None
  4833 ;; Auto vars:     Size  Location     Type
  4834 ;;		None
  4835 ;; Return value:  Size  Location     Type
  4836 ;;                  1    wreg      void 
  4837 ;; Registers used:
  4838 ;;		wreg, fsr0l, fsr0h, fsr1l, fsr1h, status,2, status,0, pclath, cstack
  4839 ;; Tracked objects:
  4840 ;;		On entry : 0/0
  4841 ;;		On exit  : 0/0
  4842 ;;		Unchanged: 0/0
  4843 ;; Data sizes:     COMMON   BANK0   BANK1   BANK2   BANK3   BANK4   BANK5   BANK6
  4844 ;;      Params:         0       0       0       0       0       0       0       0
  4845 ;;      Locals:         0       0       0       0       0       0       0       0
  4846 ;;      Temps:          0       0       0       0       0       0       0       0
  4847 ;;      Totals:         0       0       0       0       0       0       0       0
  4848 ;;Total ram usage:        0 bytes
  4849 ;; Hardware stack levels used: 1
  4850 ;; Hardware stack levels required when called: 5
  4851 ;; This function calls:
  4852 ;;		NULL
  4853 ;;		_EUSART_Receive_ISR
  4854 ;;		_EUSART_Transmit_ISR
  4855 ;;		_TMR0_ISR
  4856 ;; This function is called by:
  4857 ;;		Interrupt level 1
  4858 ;; This function uses a non-reentrant model
  4859 ;;
  4860                           
  4861     0004                     _INTERRUPT_InterruptManager:
  4862                           
  4863                           ;incstack = 0
  4864     0004  147E               	bsf	int$flags,0	;set compiler interrupt flag (level 1)
  4865                           
  4866                           ; Regs used in _INTERRUPT_InterruptManager: [wreg-fsr1h+status,2+status,0+pclath+cstack]
  4867     0005  3180               	pagesel	$
  4868     0006                     i1l2632:
  4869                           
  4870                           ;mcc_generated_files/interrupt_manager.c: 55:     if(INTCONbits.TMR0IE == 1 && INTCONbit
      +                          s.TMR0IF == 1)
  4871     0006  1E8B               	btfss	11,5	;volatile
  4872     0007  2809               	goto	u246_21
  4873     0008  280A               	goto	u246_20
  4874     0009                     u246_21:
  4875     0009  2812               	goto	i1l414
  4876     000A                     u246_20:
  4877     000A                     i1l2634:
  4878     000A  1D0B               	btfss	11,2	;volatile
  4879     000B  280D               	goto	u247_21
  4880     000C  280E               	goto	u247_20
  4881     000D                     u247_21:
  4882     000D  2812               	goto	i1l414
  4883     000E                     u247_20:
  4884     000E                     i1l2636:
  4885                           
  4886                           ;mcc_generated_files/interrupt_manager.c: 56:     {;mcc_generated_files/interrupt_manage
      +                          r.c: 57:         TMR0_ISR();
  4887     000E  3186  2614  3180   	fcall	_TMR0_ISR
  4888                           
  4889                           ;mcc_generated_files/interrupt_manager.c: 58:     }
  4890     0011  2836               	goto	i1l422
  4891     0012                     i1l414:	
  4892                           ;mcc_generated_files/interrupt_manager.c: 59:     else if(INTCONbits.PEIE == 1)
  4893                           
  4894     0012  1F0B               	btfss	11,6	;volatile
  4895     0013  2815               	goto	u248_21
  4896     0014  2816               	goto	u248_20
  4897     0015                     u248_21:
  4898     0015  2836               	goto	i1l422
  4899     0016                     u248_20:
  4900     0016                     i1l2638:
  4901                           
  4902                           ;mcc_generated_files/interrupt_manager.c: 60:     {;mcc_generated_files/interrupt_manage
      +                          r.c: 61:         if(PIE1bits.TXIE == 1 && PIR1bits.TXIF == 1)
  4903     0016  0021               	movlb	1	; select bank1
  4904     0017  1E11               	btfss	17,4	;volatile
  4905     0018  281A               	goto	u249_21
  4906     0019  281B               	goto	u249_20
  4907     001A                     u249_21:
  4908     001A  2826               	goto	i1l417
  4909     001B                     u249_20:
  4910     001B                     i1l2640:
  4911     001B  0020               	movlb	0	; select bank0
  4912     001C  1E11               	btfss	17,4	;volatile
  4913     001D  281F               	goto	u250_21
  4914     001E  2820               	goto	u250_20
  4915     001F                     u250_21:
  4916     001F  2826               	goto	i1l417
  4917     0020                     u250_20:
  4918     0020                     i1l2642:
  4919                           
  4920                           ;mcc_generated_files/interrupt_manager.c: 62:         {;mcc_generated_files/interrupt_ma
      +                          nager.c: 63:             EUSART_TxDefaultInterruptHandler();
  4921     0020  082B               	movf	_EUSART_TxDefaultInterruptHandler+1,w
  4922     0021  008A               	movwf	10
  4923     0022  082A               	movf	_EUSART_TxDefaultInterruptHandler,w
  4924     0023  000A               	callw
  4925     0024  3180               	pagesel	$
  4926                           
  4927                           ;mcc_generated_files/interrupt_manager.c: 64:         }
  4928     0025  2836               	goto	i1l422
  4929     0026                     i1l417:	
  4930                           ;mcc_generated_files/interrupt_manager.c: 65:         else if(PIE1bits.RCIE == 1 && PIR1
      +                          bits.RCIF == 1)
  4931                           
  4932     0026  0021               	movlb	1	; select bank1
  4933     0027  1E91               	btfss	17,5	;volatile
  4934     0028  282A               	goto	u251_21
  4935     0029  282B               	goto	u251_20
  4936     002A                     u251_21:
  4937     002A  2836               	goto	i1l421
  4938     002B                     u251_20:
  4939     002B                     i1l2644:
  4940     002B  0020               	movlb	0	; select bank0
  4941     002C  1E91               	btfss	17,5	;volatile
  4942     002D  282F               	goto	u252_21
  4943     002E  2830               	goto	u252_20
  4944     002F                     u252_21:
  4945     002F  2836               	goto	i1l421
  4946     0030                     u252_20:
  4947     0030                     i1l2646:
  4948                           
  4949                           ;mcc_generated_files/interrupt_manager.c: 66:         {;mcc_generated_files/interrupt_ma
      +                          nager.c: 67:             EUSART_RxDefaultInterruptHandler();
  4950     0030  0829               	movf	_EUSART_RxDefaultInterruptHandler+1,w
  4951     0031  008A               	movwf	10
  4952     0032  0828               	movf	_EUSART_RxDefaultInterruptHandler,w
  4953     0033  000A               	callw
  4954     0034  3180               	pagesel	$
  4955                           
  4956                           ;mcc_generated_files/interrupt_manager.c: 68:         }
  4957     0035  2836               	goto	i1l422
  4958     0036                     i1l421:	
  4959                           ;mcc_generated_files/interrupt_manager.c: 75:     {;mcc_generated_files/interrupt_manage
      +                          r.c: 77:     }
  4960                           
  4961     0036                     i1l422:
  4962     0036  107E               	bcf	int$flags,0	;clear compiler interrupt flag (level 1)
  4963     0037  0009               	retfie
  4964     0038                     __end_of_INTERRUPT_InterruptManager:
  4965                           
  4966                           	psect	text35
  4967     0614                     __ptext35:	
  4968 ;; *************** function _TMR0_ISR *****************
  4969 ;; Defined at:
  4970 ;;		line 108 in file "mcc_generated_files/tmr0.c"
  4971 ;; Parameters:    Size  Location     Type
  4972 ;;		None
  4973 ;; Auto vars:     Size  Location     Type
  4974 ;;		None
  4975 ;; Return value:  Size  Location     Type
  4976 ;;                  1    wreg      void 
  4977 ;; Registers used:
  4978 ;;		wreg, fsr0l, fsr0h, fsr1l, fsr1h, status,2, status,0, pclath, cstack
  4979 ;; Tracked objects:
  4980 ;;		On entry : 0/0
  4981 ;;		On exit  : 0/0
  4982 ;;		Unchanged: 0/0
  4983 ;; Data sizes:     COMMON   BANK0   BANK1   BANK2   BANK3   BANK4   BANK5   BANK6
  4984 ;;      Params:         0       0       0       0       0       0       0       0
  4985 ;;      Locals:         0       0       0       0       0       0       0       0
  4986 ;;      Temps:          0       0       0       0       0       0       0       0
  4987 ;;      Totals:         0       0       0       0       0       0       0       0
  4988 ;;Total ram usage:        0 bytes
  4989 ;; Hardware stack levels used: 1
  4990 ;; Hardware stack levels required when called: 4
  4991 ;; This function calls:
  4992 ;;		NULL
  4993 ;;		_LIN_timerHandler
  4994 ;;		_TMR0_DefaultInterruptHandler
  4995 ;; This function is called by:
  4996 ;;		_INTERRUPT_InterruptManager
  4997 ;; This function uses a non-reentrant model
  4998 ;;
  4999                           
  5000     0614                     _TMR0_ISR:	
  5001                           ;psect for function _TMR0_ISR
  5002                           
  5003     0614                     i1l2622:	
  5004                           ;incstack = 0
  5005                           ; Regs used in _TMR0_ISR: [wreg-fsr1h+status,2+status,0+pclath+cstack]
  5006                           
  5007                           
  5008                           ;mcc_generated_files/tmr0.c: 112:     INTCONbits.TMR0IF = 0;
  5009     0614  110B               	bcf	11,2	;volatile
  5010     0615                     i1l2624:
  5011                           
  5012                           ;mcc_generated_files/tmr0.c: 114:     TMR0 = timer0ReloadVal;
  5013     0615  0020               	movlb	0	; select bank0
  5014     0616  0832               	movf	_timer0ReloadVal,w	;volatile
  5015     0617  0095               	movwf	21	;volatile
  5016     0618                     i1l2626:
  5017                           
  5018                           ;mcc_generated_files/tmr0.c: 116:     if(TMR0_InterruptHandler)
  5019     0618  0820               	movf	_TMR0_InterruptHandler,w
  5020     0619  0421               	iorwf	_TMR0_InterruptHandler+1,w
  5021     061A  1903               	btfsc	3,2
  5022     061B  2E1D               	goto	u245_21
  5023     061C  2E1E               	goto	u245_20
  5024     061D                     u245_21:
  5025     061D  2E23               	goto	i1l490
  5026     061E                     u245_20:
  5027     061E                     i1l2628:
  5028                           
  5029                           ;mcc_generated_files/tmr0.c: 117:     {;mcc_generated_files/tmr0.c: 118:         TMR0_In
      +                          terruptHandler();
  5030     061E  0821               	movf	_TMR0_InterruptHandler+1,w
  5031     061F  008A               	movwf	10
  5032     0620  0820               	movf	_TMR0_InterruptHandler,w
  5033     0621  000A               	callw
  5034     0622  3186               	pagesel	$
  5035     0623                     i1l490:
  5036     0623  0008               	return
  5037     0624                     __end_of_TMR0_ISR:
  5038                           
  5039                           	psect	text36
  5040     010C                     __ptext36:	
  5041 ;; *************** function _LIN_timerHandler *****************
  5042 ;; Defined at:
  5043 ;;		line 264 in file "mcc_generated_files/LINDrivers/lin_master.c"
  5044 ;; Parameters:    Size  Location     Type
  5045 ;;		None
  5046 ;; Auto vars:     Size  Location     Type
  5047 ;;		None
  5048 ;; Return value:  Size  Location     Type
  5049 ;;                  1    wreg      void 
  5050 ;; Registers used:
  5051 ;;		wreg, fsr0l, fsr0h, fsr1l, fsr1h, status,2, status,0, pclath, cstack
  5052 ;; Tracked objects:
  5053 ;;		On entry : 0/0
  5054 ;;		On exit  : 0/0
  5055 ;;		Unchanged: 0/0
  5056 ;; Data sizes:     COMMON   BANK0   BANK1   BANK2   BANK3   BANK4   BANK5   BANK6
  5057 ;;      Params:         0       0       0       0       0       0       0       0
  5058 ;;      Locals:         0       0       0       0       0       0       0       0
  5059 ;;      Temps:          1       0       0       0       0       0       0       0
  5060 ;;      Totals:         1       0       0       0       0       0       0       0
  5061 ;;Total ram usage:        1 bytes
  5062 ;; Hardware stack levels used: 1
  5063 ;; Hardware stack levels required when called: 3
  5064 ;; This function calls:
  5065 ;;		_LIN_sendPeriodicTx
  5066 ;;		i1_LIN_stopTimer
  5067 ;; This function is called by:
  5068 ;;		_LIN_setTimerHandler
  5069 ;;		_TMR0_ISR
  5070 ;; This function uses a non-reentrant model
  5071 ;;
  5072                           
  5073     010C                     _LIN_timerHandler:	
  5074                           ;psect for function _LIN_timerHandler
  5075                           
  5076     010C                     i1l2500:	
  5077                           ;incstack = 0
  5078                           ; Regs used in _LIN_timerHandler: [wreg-fsr1h+status,2+status,0+pclath+cstack]
  5079                           
  5080                           
  5081                           ;mcc_generated_files/LINDrivers/lin_master.c: 265:   if (LIN_timerRunning == 1) {
  5082     010C  0020               	movlb	0	; select bank0
  5083     010D  0340               	decf	_LIN_timerRunning,w
  5084     010E  1D03               	btfss	3,2
  5085     010F  2911               	goto	u225_21
  5086     0110  2912               	goto	u225_20
  5087     0111                     u225_21:
  5088     0111  291F               	goto	i1l2506
  5089     0112                     u225_20:
  5090     0112                     i1l2502:
  5091                           
  5092                           ;mcc_generated_files/LINDrivers/lin_master.c: 266:     if (++LIN_timerCallBack >= LIN_ti
      +                          meout) {
  5093     0112  3001               	movlw	1
  5094     0113  00FD               	movwf	??_LIN_timerHandler
  5095     0114  087D               	movf	??_LIN_timerHandler,w
  5096     0115  07BE               	addwf	_LIN_timerCallBack,f	;volatile
  5097     0116  0861               	movf	_LIN_timeout,w
  5098     0117  023E               	subwf	_LIN_timerCallBack,w	;volatile
  5099     0118  1C03               	skipc
  5100     0119  291B               	goto	u226_21
  5101     011A  291C               	goto	u226_20
  5102     011B                     u226_21:
  5103     011B  291F               	goto	i1l2506
  5104     011C                     u226_20:
  5105     011C                     i1l2504:
  5106                           
  5107                           ;mcc_generated_files/LINDrivers/lin_master.c: 268:       LIN_stopTimer();
  5108     011C  3186  26B4  3181   	fcall	i1_LIN_stopTimer
  5109     011F                     i1l2506:
  5110                           
  5111                           ;mcc_generated_files/LINDrivers/lin_master.c: 272:   if (LIN_enablePeriodTx == 1) {
  5112     011F  0020               	movlb	0	; select bank0
  5113     0120  033F               	decf	_LIN_enablePeriodTx,w
  5114     0121  1D03               	btfss	3,2
  5115     0122  2924               	goto	u227_21
  5116     0123  2925               	goto	u227_20
  5117     0124                     u227_21:
  5118     0124  299B               	goto	i1l165
  5119     0125                     u227_20:
  5120     0125                     i1l2508:
  5121                           
  5122                           ;mcc_generated_files/LINDrivers/lin_master.c: 273:     if (++LIN_periodCallBack >= LIN_p
      +                          eriod) {
  5123     0125  3001               	movlw	1
  5124     0126  00FD               	movwf	??_LIN_timerHandler
  5125     0127  087D               	movf	??_LIN_timerHandler,w
  5126     0128  07BD               	addwf	_LIN_periodCallBack,f	;volatile
  5127     0129  0841               	movf	_LIN_period,w
  5128     012A  023D               	subwf	_LIN_periodCallBack,w	;volatile
  5129     012B  1C03               	skipc
  5130     012C  292E               	goto	u228_21
  5131     012D  292F               	goto	u228_20
  5132     012E                     u228_21:
  5133     012E  299B               	goto	i1l165
  5134     012F                     u228_20:
  5135     012F                     i1l2510:
  5136                           
  5137                           ;mcc_generated_files/LINDrivers/lin_master.c: 274:       LIN_sendPeriodicTx();
  5138     012F  3182  2222  3181   	fcall	_LIN_sendPeriodicTx
  5139     0132                     i1l2512:
  5140                           
  5141                           ;mcc_generated_files/LINDrivers/lin_master.c: 276:       if (data_send_cnt < 15) {
  5142     0132  3000               	movlw	0
  5143     0133  0020               	movlb	0	; select bank0
  5144     0134  022D               	subwf	_data_send_cnt+1,w
  5145     0135  300F               	movlw	15
  5146     0136  1903               	skipnz
  5147     0137  022C               	subwf	_data_send_cnt,w
  5148     0138  1803               	skipnc
  5149     0139  293B               	goto	u229_21
  5150     013A  293C               	goto	u229_20
  5151     013B                     u229_21:
  5152     013B  2941               	goto	i1l2516
  5153     013C                     u229_20:
  5154     013C                     i1l2514:
  5155                           
  5156                           ;mcc_generated_files/LINDrivers/lin_master.c: 277:         data_send_cnt++;
  5157     013C  3001               	movlw	1
  5158     013D  07AC               	addwf	_data_send_cnt,f
  5159     013E  3000               	movlw	0
  5160     013F  3DAD               	addwfc	_data_send_cnt+1,f
  5161                           
  5162                           ;mcc_generated_files/LINDrivers/lin_master.c: 278:       } else {
  5163     0140  299B               	goto	i1l165
  5164     0141                     i1l2516:
  5165                           
  5166                           ;mcc_generated_files/LINDrivers/lin_master.c: 279:         data_send_cnt = 0;
  5167     0141  01AC               	clrf	_data_send_cnt
  5168     0142  01AD               	clrf	_data_send_cnt+1
  5169     0143                     i1l2518:
  5170                           
  5171                           ;mcc_generated_files/LINDrivers/lin_master.c: 280:         if (SW_STATE_Data[7] == 0xFF)
      +                           {
  5172     0143  0A4B               	incf	_SW_STATE_Data+7,w
  5173     0144  1D03               	btfss	3,2
  5174     0145  2947               	goto	u230_21
  5175     0146  2948               	goto	u230_20
  5176     0147                     u230_21:
  5177     0147  2997               	goto	i1l2564
  5178     0148                     u230_20:
  5179     0148                     i1l2520:
  5180                           
  5181                           ;mcc_generated_files/LINDrivers/lin_master.c: 281:           SW_STATE_Data[7] = 0x00;
  5182     0148  01CB               	clrf	_SW_STATE_Data+7
  5183     0149                     i1l2522:
  5184                           
  5185                           ;mcc_generated_files/LINDrivers/lin_master.c: 282:           if (SW_STATE_Data[6] == 0xF
      +                          F) {
  5186     0149  0A4A               	incf	_SW_STATE_Data+6,w
  5187     014A  1D03               	btfss	3,2
  5188     014B  294D               	goto	u231_21
  5189     014C  294E               	goto	u231_20
  5190     014D                     u231_21:
  5191     014D  2992               	goto	i1l2562
  5192     014E                     u231_20:
  5193     014E                     i1l2524:
  5194                           
  5195                           ;mcc_generated_files/LINDrivers/lin_master.c: 283:             SW_STATE_Data[6] = 0x00;
  5196     014E  01CA               	clrf	_SW_STATE_Data+6
  5197     014F                     i1l2526:
  5198                           
  5199                           ;mcc_generated_files/LINDrivers/lin_master.c: 284:             if (SW_STATE_Data[5] == 0
      +                          xFF) {
  5200     014F  0A49               	incf	_SW_STATE_Data+5,w
  5201     0150  1D03               	btfss	3,2
  5202     0151  2953               	goto	u232_21
  5203     0152  2954               	goto	u232_20
  5204     0153                     u232_21:
  5205     0153  298D               	goto	i1l2560
  5206     0154                     u232_20:
  5207     0154                     i1l2528:
  5208                           
  5209                           ;mcc_generated_files/LINDrivers/lin_master.c: 285:               SW_STATE_Data[5] = 0x00
      +                          ;
  5210     0154  01C9               	clrf	_SW_STATE_Data+5
  5211     0155                     i1l2530:
  5212                           
  5213                           ;mcc_generated_files/LINDrivers/lin_master.c: 286:               if (SW_STATE_Data[4] ==
      +                           0xFF) {
  5214     0155  0A48               	incf	_SW_STATE_Data+4,w
  5215     0156  1D03               	btfss	3,2
  5216     0157  2959               	goto	u233_21
  5217     0158  295A               	goto	u233_20
  5218     0159                     u233_21:
  5219     0159  2988               	goto	i1l2558
  5220     015A                     u233_20:
  5221     015A                     i1l2532:
  5222                           
  5223                           ;mcc_generated_files/LINDrivers/lin_master.c: 287:                 SW_STATE_Data[4] = 0x
      +                          00;
  5224     015A  01C8               	clrf	_SW_STATE_Data+4
  5225     015B                     i1l2534:
  5226                           
  5227                           ;mcc_generated_files/LINDrivers/lin_master.c: 288:                 if (SW_STATE_Data[3] 
      +                          == 0xFF) {
  5228     015B  0A47               	incf	_SW_STATE_Data+3,w
  5229     015C  1D03               	btfss	3,2
  5230     015D  295F               	goto	u234_21
  5231     015E  2960               	goto	u234_20
  5232     015F                     u234_21:
  5233     015F  2983               	goto	i1l2556
  5234     0160                     u234_20:
  5235     0160                     i1l2536:
  5236                           
  5237                           ;mcc_generated_files/LINDrivers/lin_master.c: 289:                   SW_STATE_Data[3] = 
      +                          0x00;
  5238     0160  01C7               	clrf	_SW_STATE_Data+3
  5239     0161                     i1l2538:
  5240                           
  5241                           ;mcc_generated_files/LINDrivers/lin_master.c: 290:                   if (SW_STATE_Data[2
      +                          ] == 0xFF) {
  5242     0161  0A46               	incf	_SW_STATE_Data+2,w
  5243     0162  1D03               	btfss	3,2
  5244     0163  2965               	goto	u235_21
  5245     0164  2966               	goto	u235_20
  5246     0165                     u235_21:
  5247     0165  297E               	goto	i1l2554
  5248     0166                     u235_20:
  5249     0166                     i1l2540:
  5250                           
  5251                           ;mcc_generated_files/LINDrivers/lin_master.c: 291:                     SW_STATE_Data[2] 
      +                          = 0x00;
  5252     0166  01C6               	clrf	_SW_STATE_Data+2
  5253     0167                     i1l2542:
  5254                           
  5255                           ;mcc_generated_files/LINDrivers/lin_master.c: 292:                     if (SW_STATE_Data
      +                          [1] == 0xFF) {
  5256     0167  0A45               	incf	_SW_STATE_Data+1,w
  5257     0168  1D03               	btfss	3,2
  5258     0169  296B               	goto	u236_21
  5259     016A  296C               	goto	u236_20
  5260     016B                     u236_21:
  5261     016B  2979               	goto	i1l2552
  5262     016C                     u236_20:
  5263     016C                     i1l2544:
  5264                           
  5265                           ;mcc_generated_files/LINDrivers/lin_master.c: 293:                       SW_STATE_Data[1
      +                          ] = 0x00;
  5266     016C  01C5               	clrf	_SW_STATE_Data+1
  5267     016D                     i1l2546:
  5268                           
  5269                           ;mcc_generated_files/LINDrivers/lin_master.c: 294:                       if (SW_STATE_Da
      +                          ta[0] == 0xFF) {
  5270     016D  0A44               	incf	_SW_STATE_Data,w
  5271     016E  1D03               	btfss	3,2
  5272     016F  2971               	goto	u237_21
  5273     0170  2972               	goto	u237_20
  5274     0171                     u237_21:
  5275     0171  2974               	goto	i1l2550
  5276     0172                     u237_20:
  5277     0172                     i1l2548:
  5278                           
  5279                           ;mcc_generated_files/LINDrivers/lin_master.c: 295:                         SW_STATE_Data
      +                          [0] = 0x00;
  5280     0172  01C4               	clrf	_SW_STATE_Data
  5281                           
  5282                           ;mcc_generated_files/LINDrivers/lin_master.c: 296:                       } else {
  5283     0173  299B               	goto	i1l165
  5284     0174                     i1l2550:
  5285                           
  5286                           ;mcc_generated_files/LINDrivers/lin_master.c: 297:                         SW_STATE_Data
      +                          [0]++;
  5287     0174  3001               	movlw	1
  5288     0175  00FD               	movwf	??_LIN_timerHandler
  5289     0176  087D               	movf	??_LIN_timerHandler,w
  5290     0177  07C4               	addwf	_SW_STATE_Data,f
  5291     0178  299B               	goto	i1l165
  5292     0179                     i1l2552:
  5293                           
  5294                           ;mcc_generated_files/LINDrivers/lin_master.c: 300:                       SW_STATE_Data[1
      +                          ]++;
  5295     0179  3001               	movlw	1
  5296     017A  00FD               	movwf	??_LIN_timerHandler
  5297     017B  087D               	movf	??_LIN_timerHandler,w
  5298     017C  07C5               	addwf	_SW_STATE_Data+1,f
  5299     017D  299B               	goto	i1l165
  5300     017E                     i1l2554:
  5301                           
  5302                           ;mcc_generated_files/LINDrivers/lin_master.c: 303:                     SW_STATE_Data[2]+
      +                          +;
  5303     017E  3001               	movlw	1
  5304     017F  00FD               	movwf	??_LIN_timerHandler
  5305     0180  087D               	movf	??_LIN_timerHandler,w
  5306     0181  07C6               	addwf	_SW_STATE_Data+2,f
  5307     0182  299B               	goto	i1l165
  5308     0183                     i1l2556:
  5309                           
  5310                           ;mcc_generated_files/LINDrivers/lin_master.c: 306:                   SW_STATE_Data[3]++;
  5311     0183  3001               	movlw	1
  5312     0184  00FD               	movwf	??_LIN_timerHandler
  5313     0185  087D               	movf	??_LIN_timerHandler,w
  5314     0186  07C7               	addwf	_SW_STATE_Data+3,f
  5315     0187  299B               	goto	i1l165
  5316     0188                     i1l2558:
  5317                           
  5318                           ;mcc_generated_files/LINDrivers/lin_master.c: 309:                 SW_STATE_Data[4]++;
  5319     0188  3001               	movlw	1
  5320     0189  00FD               	movwf	??_LIN_timerHandler
  5321     018A  087D               	movf	??_LIN_timerHandler,w
  5322     018B  07C8               	addwf	_SW_STATE_Data+4,f
  5323     018C  299B               	goto	i1l165
  5324     018D                     i1l2560:
  5325                           
  5326                           ;mcc_generated_files/LINDrivers/lin_master.c: 312:               SW_STATE_Data[5]++;
  5327     018D  3001               	movlw	1
  5328     018E  00FD               	movwf	??_LIN_timerHandler
  5329     018F  087D               	movf	??_LIN_timerHandler,w
  5330     0190  07C9               	addwf	_SW_STATE_Data+5,f
  5331     0191  299B               	goto	i1l165
  5332     0192                     i1l2562:
  5333                           
  5334                           ;mcc_generated_files/LINDrivers/lin_master.c: 315:             SW_STATE_Data[6]++;
  5335     0192  3001               	movlw	1
  5336     0193  00FD               	movwf	??_LIN_timerHandler
  5337     0194  087D               	movf	??_LIN_timerHandler,w
  5338     0195  07CA               	addwf	_SW_STATE_Data+6,f
  5339     0196  299B               	goto	i1l165
  5340     0197                     i1l2564:
  5341                           
  5342                           ;mcc_generated_files/LINDrivers/lin_master.c: 318:           SW_STATE_Data[7]++;
  5343     0197  3001               	movlw	1
  5344     0198  00FD               	movwf	??_LIN_timerHandler
  5345     0199  087D               	movf	??_LIN_timerHandler,w
  5346     019A  07CB               	addwf	_SW_STATE_Data+7,f
  5347     019B                     i1l165:
  5348     019B  0008               	return
  5349     019C                     __end_of_LIN_timerHandler:
  5350                           
  5351                           	psect	text37
  5352     06C4                     __ptext37:	
  5353 ;; *************** function _TMR0_DefaultInterruptHandler *****************
  5354 ;; Defined at:
  5355 ;;		line 129 in file "mcc_generated_files/tmr0.c"
  5356 ;; Parameters:    Size  Location     Type
  5357 ;;		None
  5358 ;; Auto vars:     Size  Location     Type
  5359 ;;		None
  5360 ;; Return value:  Size  Location     Type
  5361 ;;                  1    wreg      void 
  5362 ;; Registers used:
  5363 ;;		None
  5364 ;; Tracked objects:
  5365 ;;		On entry : 0/0
  5366 ;;		On exit  : 0/0
  5367 ;;		Unchanged: 0/0
  5368 ;; Data sizes:     COMMON   BANK0   BANK1   BANK2   BANK3   BANK4   BANK5   BANK6
  5369 ;;      Params:         0       0       0       0       0       0       0       0
  5370 ;;      Locals:         0       0       0       0       0       0       0       0
  5371 ;;      Temps:          0       0       0       0       0       0       0       0
  5372 ;;      Totals:         0       0       0       0       0       0       0       0
  5373 ;;Total ram usage:        0 bytes
  5374 ;; Hardware stack levels used: 1
  5375 ;; This function calls:
  5376 ;;		Nothing
  5377 ;; This function is called by:
  5378 ;;		_TMR0_Initialize
  5379 ;;		_TMR0_ISR
  5380 ;; This function uses a non-reentrant model
  5381 ;;
  5382                           
  5383     06C4                     _TMR0_DefaultInterruptHandler:	
  5384                           ;psect for function _TMR0_DefaultInterruptHandler
  5385                           
  5386     06C4                     i1l496:	
  5387                           ;incstack = 0
  5388                           ; Regs used in _TMR0_DefaultInterruptHandler: []
  5389                           
  5390     06C4  0008               	return
  5391     06C5                     __end_of_TMR0_DefaultInterruptHandler:
  5392                           
  5393                           	psect	text38
  5394     06B4                     __ptext38:	
  5395 ;; *************** function i1_LIN_stopTimer *****************
  5396 ;; Defined at:
  5397 ;;		line 327 in file "mcc_generated_files/LINDrivers/lin_master.c"
  5398 ;; Parameters:    Size  Location     Type
  5399 ;;		None
  5400 ;; Auto vars:     Size  Location     Type
  5401 ;;		None
  5402 ;; Return value:  Size  Location     Type
  5403 ;;                  1    wreg      void 
  5404 ;; Registers used:
  5405 ;;		status,2
  5406 ;; Tracked objects:
  5407 ;;		On entry : 0/0
  5408 ;;		On exit  : 0/0
  5409 ;;		Unchanged: 0/0
  5410 ;; Data sizes:     COMMON   BANK0   BANK1   BANK2   BANK3   BANK4   BANK5   BANK6
  5411 ;;      Params:         0       0       0       0       0       0       0       0
  5412 ;;      Locals:         0       0       0       0       0       0       0       0
  5413 ;;      Temps:          0       0       0       0       0       0       0       0
  5414 ;;      Totals:         0       0       0       0       0       0       0       0
  5415 ;;Total ram usage:        0 bytes
  5416 ;; Hardware stack levels used: 1
  5417 ;; This function calls:
  5418 ;;		Nothing
  5419 ;; This function is called by:
  5420 ;;		_LIN_timerHandler
  5421 ;; This function uses a non-reentrant model
  5422 ;;
  5423                           
  5424     06B4                     i1_LIN_stopTimer:	
  5425                           ;psect for function i1_LIN_stopTimer
  5426                           
  5427     06B4                     i1l1994:	
  5428                           ;incstack = 0
  5429                           ; Regs used in i1_LIN_stopTimer: [status,2]
  5430                           
  5431                           
  5432                           ;mcc_generated_files/LINDrivers/lin_master.c: 329:   LIN_timerCallBack = 0;
  5433     06B4  0020               	movlb	0	; select bank0
  5434     06B5  01BE               	clrf	_LIN_timerCallBack	;volatile
  5435                           
  5436                           ;mcc_generated_files/LINDrivers/lin_master.c: 330:   LIN_timerRunning = 0;
  5437     06B6  01C0               	clrf	_LIN_timerRunning
  5438     06B7                     i1l171:
  5439     06B7  0008               	return
  5440     06B8                     __end_ofi1_LIN_stopTimer:
  5441                           
  5442                           	psect	text39
  5443     0222                     __ptext39:	
  5444 ;; *************** function _LIN_sendPeriodicTx *****************
  5445 ;; Defined at:
  5446 ;;		line 353 in file "mcc_generated_files/LINDrivers/lin_master.c"
  5447 ;; Parameters:    Size  Location     Type
  5448 ;;		None
  5449 ;; Auto vars:     Size  Location     Type
  5450 ;;  periodicTx      2    7[BANK0 ] PTR const struct .
  5451 ;;		 -> NULL(0), scheduleTable(6), 
  5452 ;; Return value:  Size  Location     Type
  5453 ;;                  1    wreg      void 
  5454 ;; Registers used:
  5455 ;;		wreg, fsr0l, fsr0h, fsr1l, fsr1h, status,2, status,0, pclath, cstack
  5456 ;; Tracked objects:
  5457 ;;		On entry : 0/0
  5458 ;;		On exit  : 0/0
  5459 ;;		Unchanged: 0/0
  5460 ;; Data sizes:     COMMON   BANK0   BANK1   BANK2   BANK3   BANK4   BANK5   BANK6
  5461 ;;      Params:         0       0       0       0       0       0       0       0
  5462 ;;      Locals:         0       2       0       0       0       0       0       0
  5463 ;;      Temps:          0       3       0       0       0       0       0       0
  5464 ;;      Totals:         0       5       0       0       0       0       0       0
  5465 ;;Total ram usage:        5 bytes
  5466 ;; Hardware stack levels used: 1
  5467 ;; Hardware stack levels required when called: 2
  5468 ;; This function calls:
  5469 ;;		_LIN_queuePacket
  5470 ;;		___wmul
  5471 ;; This function is called by:
  5472 ;;		_LIN_timerHandler
  5473 ;; This function uses a non-reentrant model
  5474 ;;
  5475                           
  5476     0222                     _LIN_sendPeriodicTx:	
  5477                           ;psect for function _LIN_sendPeriodicTx
  5478                           
  5479     0222                     i1l2482:	
  5480                           ;incstack = 0
  5481                           ; Regs used in _LIN_sendPeriodicTx: [wreg-fsr1h+status,2+status,0+pclath+cstack]
  5482                           
  5483                           
  5484                           ;mcc_generated_files/LINDrivers/lin_master.c: 354:   static volatile uint8_t scheduleInd
      +                          ex = 0;;mcc_generated_files/LINDrivers/lin_master.c: 355:   const lin_cmd_packet_t *peri
      +                          odicTx;;mcc_generated_files/LINDrivers/lin_master.c: 357:   LIN_periodCallBack = 0;
  5485     0222  0020               	movlb	0	; select bank0
  5486     0223  01BD               	clrf	_LIN_periodCallBack	;volatile
  5487     0224                     i1l2484:
  5488                           
  5489                           ;mcc_generated_files/LINDrivers/lin_master.c: 358:   periodicTx = schedule + scheduleInd
      +                          ex;
  5490     0224  083A               	movf	LIN_sendPeriodicTx@scheduleIndex,w	;volatile
  5491     0225  00D0               	movwf	??_LIN_sendPeriodicTx
  5492     0226  01D1               	clrf	??_LIN_sendPeriodicTx+1
  5493     0227  0850               	movf	??_LIN_sendPeriodicTx,w
  5494     0228  00F0               	movwf	___wmul@multiplier
  5495     0229  0851               	movf	??_LIN_sendPeriodicTx+1,w
  5496     022A  00F1               	movwf	___wmul@multiplier+1
  5497     022B  3006               	movlw	6
  5498     022C  00F2               	movwf	___wmul@multiplicand
  5499     022D  3000               	movlw	0
  5500     022E  00F3               	movwf	___wmul@multiplicand+1
  5501     022F  3185  253C  3182   	fcall	___wmul
  5502     0232  0870               	movf	?___wmul,w
  5503     0233  0020               	movlb	0	; select bank0
  5504     0234  072E               	addwf	_schedule,w
  5505     0235  00D3               	movwf	LIN_sendPeriodicTx@periodicTx
  5506     0236  0871               	movf	?___wmul+1,w
  5507     0237  3D2F               	addwfc	_schedule+1,w
  5508     0238  00D4               	movwf	LIN_sendPeriodicTx@periodicTx+1
  5509     0239                     i1l2486:
  5510                           
  5511                           ;mcc_generated_files/LINDrivers/lin_master.c: 360:   if (periodicTx->period > 0) {
  5512     0239  0854               	movf	LIN_sendPeriodicTx@periodicTx+1,w
  5513     023A  00D1               	movwf	??_LIN_sendPeriodicTx+1
  5514     023B  0853               	movf	LIN_sendPeriodicTx@periodicTx,w
  5515     023C  00D0               	movwf	??_LIN_sendPeriodicTx
  5516     023D  3004               	movlw	4
  5517     023E  0750               	addwf	??_LIN_sendPeriodicTx,w
  5518     023F  0084               	movwf	4
  5519     0240  0851               	movf	??_LIN_sendPeriodicTx+1,w
  5520     0241  1803               	skipnc
  5521     0242  0A51               	incf	??_LIN_sendPeriodicTx+1,w
  5522     0243  0085               	movwf	5
  5523     0244  0012               	moviw fsr0++
  5524     0245  1903               	btfsc	3,2
  5525     0246  2A48               	goto	u222_21
  5526     0247  2A49               	goto	u222_20
  5527     0248                     u222_21:
  5528     0248  2A5E               	goto	i1l2490
  5529     0249                     u222_20:
  5530     0249                     i1l2488:
  5531                           
  5532                           ;mcc_generated_files/LINDrivers/lin_master.c: 361:     LIN_queuePacket(periodicTx->cmd, 
      +                          periodicTx->data);
  5533     0249  0854               	movf	LIN_sendPeriodicTx@periodicTx+1,w
  5534     024A  00D1               	movwf	??_LIN_sendPeriodicTx+1
  5535     024B  0853               	movf	LIN_sendPeriodicTx@periodicTx,w
  5536     024C  00D0               	movwf	??_LIN_sendPeriodicTx
  5537     024D  3005               	movlw	5
  5538     024E  0750               	addwf	??_LIN_sendPeriodicTx,w
  5539     024F  0084               	movwf	4
  5540     0250  0851               	movf	??_LIN_sendPeriodicTx+1,w
  5541     0251  1803               	skipnc
  5542     0252  0A51               	incf	??_LIN_sendPeriodicTx+1,w
  5543     0253  0085               	movwf	5
  5544     0254  0800               	movf	0,w	;code access
  5545     0255  00F8               	movwf	LIN_queuePacket@data
  5546     0256  0853               	movf	LIN_sendPeriodicTx@periodicTx,w
  5547     0257  0084               	movwf	4
  5548     0258  0854               	movf	LIN_sendPeriodicTx@periodicTx+1,w
  5549     0259  0085               	movwf	5
  5550     025A  0800               	movf	0,w	;code access
  5551     025B  3180  2052  3182   	fcall	_LIN_queuePacket
  5552     025E                     i1l2490:
  5553                           
  5554                           ;mcc_generated_files/LINDrivers/lin_master.c: 365:     if (++scheduleIndex >= scheduleLe
      +                          ngth) {
  5555     025E  3001               	movlw	1
  5556     025F  0020               	movlb	0	; select bank0
  5557     0260  00D0               	movwf	??_LIN_sendPeriodicTx
  5558     0261  0850               	movf	??_LIN_sendPeriodicTx,w
  5559     0262  07BA               	addwf	LIN_sendPeriodicTx@scheduleIndex,f	;volatile
  5560     0263  0842               	movf	_scheduleLength,w
  5561     0264  023A               	subwf	LIN_sendPeriodicTx@scheduleIndex,w	;volatile
  5562     0265  1C03               	skipc
  5563     0266  2A68               	goto	u223_21
  5564     0267  2A69               	goto	u223_20
  5565     0268                     u223_21:
  5566     0268  2A6A               	goto	i1l2494
  5567     0269                     u223_20:
  5568     0269                     i1l2492:
  5569                           
  5570                           ;mcc_generated_files/LINDrivers/lin_master.c: 366:       scheduleIndex = 0;
  5571     0269  01BA               	clrf	LIN_sendPeriodicTx@scheduleIndex	;volatile
  5572     026A                     i1l2494:
  5573                           
  5574                           ;mcc_generated_files/LINDrivers/lin_master.c: 368:     periodicTx = schedule + scheduleI
      +                          ndex;
  5575     026A  083A               	movf	LIN_sendPeriodicTx@scheduleIndex,w	;volatile
  5576     026B  00D0               	movwf	??_LIN_sendPeriodicTx
  5577     026C  01D1               	clrf	??_LIN_sendPeriodicTx+1
  5578     026D  0850               	movf	??_LIN_sendPeriodicTx,w
  5579     026E  00F0               	movwf	___wmul@multiplier
  5580     026F  0851               	movf	??_LIN_sendPeriodicTx+1,w
  5581     0270  00F1               	movwf	___wmul@multiplier+1
  5582     0271  3006               	movlw	6
  5583     0272  00F2               	movwf	___wmul@multiplicand
  5584     0273  3000               	movlw	0
  5585     0274  00F3               	movwf	___wmul@multiplicand+1
  5586     0275  3185  253C  3182   	fcall	___wmul
  5587     0278  0870               	movf	?___wmul,w
  5588     0279  0020               	movlb	0	; select bank0
  5589     027A  072E               	addwf	_schedule,w
  5590     027B  00D3               	movwf	LIN_sendPeriodicTx@periodicTx
  5591     027C  0871               	movf	?___wmul+1,w
  5592     027D  3D2F               	addwfc	_schedule+1,w
  5593     027E  00D4               	movwf	LIN_sendPeriodicTx@periodicTx+1
  5594     027F                     i1l2496:
  5595                           
  5596                           ;mcc_generated_files/LINDrivers/lin_master.c: 369:   } while (periodicTx->period == 0);
  5597     027F  0854               	movf	LIN_sendPeriodicTx@periodicTx+1,w
  5598     0280  00D1               	movwf	??_LIN_sendPeriodicTx+1
  5599     0281  0853               	movf	LIN_sendPeriodicTx@periodicTx,w
  5600     0282  00D0               	movwf	??_LIN_sendPeriodicTx
  5601     0283  3004               	movlw	4
  5602     0284  0750               	addwf	??_LIN_sendPeriodicTx,w
  5603     0285  0084               	movwf	4
  5604     0286  0851               	movf	??_LIN_sendPeriodicTx+1,w
  5605     0287  1803               	skipnc
  5606     0288  0A51               	incf	??_LIN_sendPeriodicTx+1,w
  5607     0289  0085               	movwf	5
  5608     028A  0012               	moviw fsr0++
  5609     028B  1903               	btfsc	3,2
  5610     028C  2A8E               	goto	u224_21
  5611     028D  2A8F               	goto	u224_20
  5612     028E                     u224_21:
  5613     028E  2A5E               	goto	i1l2490
  5614     028F                     u224_20:
  5615     028F                     i1l2498:
  5616                           
  5617                           ;mcc_generated_files/LINDrivers/lin_master.c: 371:   LIN_period = periodicTx->period;
  5618     028F  0854               	movf	LIN_sendPeriodicTx@periodicTx+1,w
  5619     0290  00D1               	movwf	??_LIN_sendPeriodicTx+1
  5620     0291  0853               	movf	LIN_sendPeriodicTx@periodicTx,w
  5621     0292  00D0               	movwf	??_LIN_sendPeriodicTx
  5622     0293  3004               	movlw	4
  5623     0294  0750               	addwf	??_LIN_sendPeriodicTx,w
  5624     0295  0084               	movwf	4
  5625     0296  0851               	movf	??_LIN_sendPeriodicTx+1,w
  5626     0297  1803               	skipnc
  5627     0298  0A51               	incf	??_LIN_sendPeriodicTx+1,w
  5628     0299  0085               	movwf	5
  5629     029A  0800               	movf	0,w	;code access
  5630     029B  00C1               	movwf	_LIN_period
  5631     029C                     i1l195:
  5632     029C  0008               	return
  5633     029D                     __end_of_LIN_sendPeriodicTx:
  5634                           
  5635                           	psect	text40
  5636     053C                     __ptext40:	
  5637 ;; *************** function ___wmul *****************
  5638 ;; Defined at:
  5639 ;;		line 15 in file "C:\Program Files\Microchip\xc8\v2.46\pic\sources\c99\common\Umul16.c"
  5640 ;; Parameters:    Size  Location     Type
  5641 ;;  multiplier      2    0[COMMON] unsigned int 
  5642 ;;  multiplicand    2    2[COMMON] unsigned int 
  5643 ;; Auto vars:     Size  Location     Type
  5644 ;;  product         2    4[COMMON] unsigned int 
  5645 ;; Return value:  Size  Location     Type
  5646 ;;                  2    0[COMMON] unsigned int 
  5647 ;; Registers used:
  5648 ;;		wreg, status,2, status,0
  5649 ;; Tracked objects:
  5650 ;;		On entry : 0/0
  5651 ;;		On exit  : 0/0
  5652 ;;		Unchanged: 0/0
  5653 ;; Data sizes:     COMMON   BANK0   BANK1   BANK2   BANK3   BANK4   BANK5   BANK6
  5654 ;;      Params:         4       0       0       0       0       0       0       0
  5655 ;;      Locals:         2       0       0       0       0       0       0       0
  5656 ;;      Temps:          0       0       0       0       0       0       0       0
  5657 ;;      Totals:         6       0       0       0       0       0       0       0
  5658 ;;Total ram usage:        6 bytes
  5659 ;; Hardware stack levels used: 1
  5660 ;; This function calls:
  5661 ;;		Nothing
  5662 ;; This function is called by:
  5663 ;;		_LIN_sendPeriodicTx
  5664 ;; This function uses a non-reentrant model
  5665 ;;
  5666                           
  5667     053C                     ___wmul:	
  5668                           ;psect for function ___wmul
  5669                           
  5670     053C                     i1l2452:	
  5671                           ;incstack = 0
  5672                           ; Regs used in ___wmul: [wreg+status,2+status,0]
  5673                           
  5674     053C  01F4               	clrf	___wmul@product
  5675     053D  01F5               	clrf	___wmul@product+1
  5676     053E                     i1l2454:
  5677     053E  1C70               	btfss	___wmul@multiplier,0
  5678     053F  2D41               	goto	u218_21
  5679     0540  2D42               	goto	u218_20
  5680     0541                     u218_21:
  5681     0541  2D46               	goto	i1l664
  5682     0542                     u218_20:
  5683     0542                     i1l2456:
  5684     0542  0872               	movf	___wmul@multiplicand,w
  5685     0543  07F4               	addwf	___wmul@product,f
  5686     0544  0873               	movf	___wmul@multiplicand+1,w
  5687     0545  3DF5               	addwfc	___wmul@product+1,f
  5688     0546                     i1l664:
  5689     0546  3001               	movlw	1
  5690     0547                     u219_25:
  5691     0547  35F2               	lslf	___wmul@multiplicand,f
  5692     0548  0DF3               	rlf	___wmul@multiplicand+1,f
  5693     0549  0B89               	decfsz	9,f
  5694     054A  2D47               	goto	u219_25
  5695     054B                     i1l2458:
  5696     054B  3001               	movlw	1
  5697     054C                     u220_25:
  5698     054C  36F1               	lsrf	___wmul@multiplier+1,f
  5699     054D  0CF0               	rrf	___wmul@multiplier,f
  5700     054E  0B89               	decfsz	9,f
  5701     054F  2D4C               	goto	u220_25
  5702     0550                     i1l2460:
  5703     0550  0870               	movf	___wmul@multiplier,w
  5704     0551  0471               	iorwf	___wmul@multiplier+1,w
  5705     0552  1D03               	btfss	3,2
  5706     0553  2D55               	goto	u221_21
  5707     0554  2D56               	goto	u221_20
  5708     0555                     u221_21:
  5709     0555  2D3E               	goto	i1l2454
  5710     0556                     u221_20:
  5711     0556                     i1l2462:
  5712     0556  0875               	movf	___wmul@product+1,w
  5713     0557  00F1               	movwf	?___wmul+1
  5714     0558  0874               	movf	___wmul@product,w
  5715     0559  00F0               	movwf	?___wmul
  5716     055A                     i1l666:
  5717     055A  0008               	return
  5718     055B                     __end_of___wmul:
  5719                           
  5720                           	psect	text41
  5721     0052                     __ptext41:	
  5722 ;; *************** function _LIN_queuePacket *****************
  5723 ;; Defined at:
  5724 ;;		line 73 in file "mcc_generated_files/LINDrivers/lin_master.c"
  5725 ;; Parameters:    Size  Location     Type
  5726 ;;  cmd             1    wreg     unsigned char 
  5727 ;;  data            1    8[COMMON] PTR unsigned char 
  5728 ;;		 -> SW_STATE_Data(8), 
  5729 ;; Auto vars:     Size  Location     Type
  5730 ;;  cmd             1    0[BANK0 ] unsigned char 
  5731 ;;  i               1    1[BANK0 ] unsigned char 
  5732 ;;  tempSchedule    2    2[BANK0 ] PTR const struct .
  5733 ;;		 -> NULL(0), scheduleTable(6), 
  5734 ;; Return value:  Size  Location     Type
  5735 ;;                  1    wreg      void 
  5736 ;; Registers used:
  5737 ;;		wreg, fsr0l, fsr0h, fsr1l, fsr1h, status,2, status,0, pclath, cstack
  5738 ;; Tracked objects:
  5739 ;;		On entry : 0/0
  5740 ;;		On exit  : 0/0
  5741 ;;		Unchanged: 0/0
  5742 ;; Data sizes:     COMMON   BANK0   BANK1   BANK2   BANK3   BANK4   BANK5   BANK6
  5743 ;;      Params:         1       0       0       0       0       0       0       0
  5744 ;;      Locals:         0       4       0       0       0       0       0       0
  5745 ;;      Temps:          4       0       0       0       0       0       0       0
  5746 ;;      Totals:         5       4       0       0       0       0       0       0
  5747 ;;Total ram usage:        9 bytes
  5748 ;; Hardware stack levels used: 1
  5749 ;; Hardware stack levels required when called: 1
  5750 ;; This function calls:
  5751 ;;		_LIN_calcParity
  5752 ;;		i1_LIN_getChecksum
  5753 ;;		i1_memcpy
  5754 ;;		i1_memset
  5755 ;; This function is called by:
  5756 ;;		_LIN_sendPeriodicTx
  5757 ;; This function uses a non-reentrant model
  5758 ;;
  5759                           
  5760     0052                     _LIN_queuePacket:	
  5761                           ;psect for function _LIN_queuePacket
  5762                           
  5763                           
  5764                           ;incstack = 0
  5765                           ; Regs used in _LIN_queuePacket: [wreg-fsr1h+status,2+status,0+pclath+cstack]
  5766                           ;LIN_queuePacket@cmd stored from wreg
  5767     0052  0020               	movlb	0	; select bank0
  5768     0053  00CC               	movwf	LIN_queuePacket@cmd
  5769     0054                     i1l2402:
  5770                           
  5771                           ;mcc_generated_files/LINDrivers/lin_master.c: 74:   const lin_cmd_packet_t *tempSchedule
      +                           =
  5772     0054  082F               	movf	_schedule+1,w
  5773     0055  00CF               	movwf	LIN_queuePacket@tempSchedule+1
  5774     0056  082E               	movf	_schedule,w
  5775     0057  00CE               	movwf	LIN_queuePacket@tempSchedule
  5776     0058                     i1l2404:
  5777                           
  5778                           ;mcc_generated_files/LINDrivers/lin_master.c: 77:   for (uint8_t i = 0; i < scheduleLeng
      +                          th; i++) {
  5779     0058  01CD               	clrf	LIN_queuePacket@i
  5780     0059  286D               	goto	i1l2414
  5781     005A                     i1l2406:
  5782                           
  5783                           ;mcc_generated_files/LINDrivers/lin_master.c: 78:     if (cmd == tempSchedule->cmd) {
  5784     005A  084E               	movf	LIN_queuePacket@tempSchedule,w
  5785     005B  0084               	movwf	4
  5786     005C  084F               	movf	LIN_queuePacket@tempSchedule+1,w
  5787     005D  0085               	movwf	5
  5788     005E  0800               	movf	0,w	;code access
  5789     005F  064C               	xorwf	LIN_queuePacket@cmd,w
  5790     0060  1D03               	skipz
  5791     0061  2863               	goto	u212_21
  5792     0062  2864               	goto	u212_20
  5793     0063                     u212_21:
  5794     0063  2865               	goto	i1l2410
  5795     0064                     u212_20:
  5796     0064  2873               	goto	i1l2416
  5797     0065                     i1l2410:
  5798                           
  5799                           ;mcc_generated_files/LINDrivers/lin_master.c: 81:     tempSchedule++;
  5800     0065  3006               	movlw	6
  5801     0066  07CE               	addwf	LIN_queuePacket@tempSchedule,f
  5802     0067  3000               	movlw	0
  5803     0068  3DCF               	addwfc	LIN_queuePacket@tempSchedule+1,f
  5804     0069                     i1l2412:
  5805                           
  5806                           ;mcc_generated_files/LINDrivers/lin_master.c: 82:   }
  5807     0069  3001               	movlw	1
  5808     006A  00F9               	movwf	??_LIN_queuePacket
  5809     006B  0879               	movf	??_LIN_queuePacket,w
  5810     006C  07CD               	addwf	LIN_queuePacket@i,f
  5811     006D                     i1l2414:
  5812     006D  0842               	movf	_scheduleLength,w
  5813     006E  024D               	subwf	LIN_queuePacket@i,w
  5814     006F  1C03               	skipc
  5815     0070  2872               	goto	u213_21
  5816     0071  2873               	goto	u213_20
  5817     0072                     u213_21:
  5818     0072  285A               	goto	i1l2406
  5819     0073                     u213_20:
  5820     0073                     i1l2416:
  5821                           
  5822                           ;mcc_generated_files/LINDrivers/lin_master.c: 85:   memset(LIN_packet.rawPacket, 0, size
      +                          of(LIN_packet.rawPacket));
  5823     0073  3000               	movlw	0
  5824     0074  00F0               	movwf	i1memset@c
  5825     0075  00F1               	movwf	i1memset@c+1
  5826     0076  300B               	movlw	11
  5827     0077  00F2               	movwf	i1memset@n
  5828     0078  3000               	movlw	0
  5829     0079  00F3               	movwf	i1memset@n+1
  5830     007A  30C4               	movlw	(low (_LIN_packet| 0))& (0+255)
  5831     007B  3185  2590  3180   	fcall	i1_memset
  5832     007E                     i1l2418:
  5833                           
  5834                           ;mcc_generated_files/LINDrivers/lin_master.c: 88:   LIN_packet.PID = LIN_calcParity(temp
      +                          Schedule->cmd);
  5835     007E  0020               	movlb	0	; select bank0
  5836     007F  084E               	movf	LIN_queuePacket@tempSchedule,w
  5837     0080  0084               	movwf	4
  5838     0081  084F               	movf	LIN_queuePacket@tempSchedule+1,w
  5839     0082  0085               	movwf	5
  5840     0083  0800               	movf	0,w	;code access
  5841     0084  3181  219C  3180   	fcall	_LIN_calcParity
  5842     0087  0021               	movlb	1	; select bank1
  5843     0088  00C4               	movwf	_LIN_packet^(0+128)
  5844     0089                     i1l2420:
  5845                           
  5846                           ;mcc_generated_files/LINDrivers/lin_master.c: 90:   if (tempSchedule->type == TRANSMIT) 
      +                          {
  5847     0089  0020               	movlb	0	; select bank0
  5848     008A  084F               	movf	LIN_queuePacket@tempSchedule+1,w
  5849     008B  00FA               	movwf	??_LIN_queuePacket+1
  5850     008C  084E               	movf	LIN_queuePacket@tempSchedule,w
  5851     008D  00F9               	movwf	??_LIN_queuePacket
  5852     008E  3001               	movlw	1
  5853     008F  0779               	addwf	??_LIN_queuePacket,w
  5854     0090  0084               	movwf	4
  5855     0091  087A               	movf	??_LIN_queuePacket+1,w
  5856     0092  1803               	skipnc
  5857     0093  0A7A               	incf	??_LIN_queuePacket+1,w
  5858     0094  0085               	movwf	5
  5859     0095  0012               	moviw fsr0++
  5860     0096  1D03               	btfss	3,2
  5861     0097  2899               	goto	u214_21
  5862     0098  289A               	goto	u214_20
  5863     0099                     u214_21:
  5864     0099  28E3               	goto	i1l2432
  5865     009A                     u214_20:
  5866     009A                     i1l2422:
  5867                           
  5868                           ;mcc_generated_files/LINDrivers/lin_master.c: 93:     if (tempSchedule->length > 0) {
  5869     009A  084F               	movf	LIN_queuePacket@tempSchedule+1,w
  5870     009B  00FA               	movwf	??_LIN_queuePacket+1
  5871     009C  084E               	movf	LIN_queuePacket@tempSchedule,w
  5872     009D  00F9               	movwf	??_LIN_queuePacket
  5873     009E  3002               	movlw	2
  5874     009F  0779               	addwf	??_LIN_queuePacket,w
  5875     00A0  0084               	movwf	4
  5876     00A1  087A               	movf	??_LIN_queuePacket+1,w
  5877     00A2  1803               	skipnc
  5878     00A3  0A7A               	incf	??_LIN_queuePacket+1,w
  5879     00A4  0085               	movwf	5
  5880     00A5  0012               	moviw fsr0++
  5881     00A6  1903               	btfsc	3,2
  5882     00A7  28A9               	goto	u215_21
  5883     00A8  28AA               	goto	u215_20
  5884     00A9                     u215_21:
  5885     00A9  28D2               	goto	i1l85
  5886     00AA                     u215_20:
  5887     00AA                     i1l2424:
  5888                           
  5889                           ;mcc_generated_files/LINDrivers/lin_master.c: 94:       LIN_packet.length = tempSchedule
      +                          ->length;
  5890     00AA  084F               	movf	LIN_queuePacket@tempSchedule+1,w
  5891     00AB  00FA               	movwf	??_LIN_queuePacket+1
  5892     00AC  084E               	movf	LIN_queuePacket@tempSchedule,w
  5893     00AD  00F9               	movwf	??_LIN_queuePacket
  5894     00AE  3002               	movlw	2
  5895     00AF  0779               	addwf	??_LIN_queuePacket,w
  5896     00B0  0084               	movwf	4
  5897     00B1  087A               	movf	??_LIN_queuePacket+1,w
  5898     00B2  1803               	skipnc
  5899     00B3  0A7A               	incf	??_LIN_queuePacket+1,w
  5900     00B4  0085               	movwf	5
  5901     00B5  0800               	movf	0,w	;code access
  5902     00B6  0021               	movlb	1	; select bank1
  5903     00B7  00CE               	movwf	(_LIN_packet^(0+128)+10)
  5904     00B8                     i1l2426:
  5905                           
  5906                           ;mcc_generated_files/LINDrivers/lin_master.c: 95:       memcpy(LIN_packet.data, data, te
      +                          mpSchedule->length);
  5907     00B8  0878               	movf	LIN_queuePacket@data,w
  5908     00B9  00F0               	movwf	i1memcpy@s1
  5909     00BA  0020               	movlb	0	; select bank0
  5910     00BB  084F               	movf	LIN_queuePacket@tempSchedule+1,w
  5911     00BC  00FA               	movwf	??_LIN_queuePacket+1
  5912     00BD  084E               	movf	LIN_queuePacket@tempSchedule,w
  5913     00BE  00F9               	movwf	??_LIN_queuePacket
  5914     00BF  3002               	movlw	2
  5915     00C0  0779               	addwf	??_LIN_queuePacket,w
  5916     00C1  0084               	movwf	4
  5917     00C2  087A               	movf	??_LIN_queuePacket+1,w
  5918     00C3  1803               	skipnc
  5919     00C4  0A7A               	incf	??_LIN_queuePacket+1,w
  5920     00C5  0085               	movwf	5
  5921     00C6  0800               	movf	0,w	;code access
  5922     00C7  00FB               	movwf	??_LIN_queuePacket+2
  5923     00C8  01FC               	clrf	??_LIN_queuePacket+3
  5924     00C9  087B               	movf	??_LIN_queuePacket+2,w
  5925     00CA  00F1               	movwf	i1memcpy@n
  5926     00CB  087C               	movf	??_LIN_queuePacket+3,w
  5927     00CC  00F2               	movwf	i1memcpy@n+1
  5928     00CD  30C5               	movlw	(low ((_LIN_packet| 0+1)))& (0+255)
  5929     00CE  3184  24D5  3180   	fcall	i1_memcpy
  5930                           
  5931                           ;mcc_generated_files/LINDrivers/lin_master.c: 96:     } else {
  5932     00D1  28D7               	goto	i1l2430
  5933     00D2                     i1l85:
  5934                           
  5935                           ;mcc_generated_files/LINDrivers/lin_master.c: 97:       LIN_packet.length = 1;
  5936     00D2  0021               	movlb	1	; select bank1
  5937     00D3  01CE               	clrf	(_LIN_packet^(0+128)+10)
  5938     00D4  0ACE               	incf	(_LIN_packet^(0+128)+10),f
  5939     00D5                     i1l2428:
  5940                           
  5941                           ;mcc_generated_files/LINDrivers/lin_master.c: 98:       LIN_packet.data[0] = 0xAA;
  5942     00D5  30AA               	movlw	170
  5943     00D6  00C5               	movwf	(_LIN_packet^(0+128)+1)
  5944     00D7                     i1l2430:
  5945                           
  5946                           ;mcc_generated_files/LINDrivers/lin_master.c: 102:     LIN_packet.checksum =
  5947     00D7  0021               	movlb	1	; select bank1
  5948     00D8  0844               	movf	_LIN_packet^(0+128),w
  5949     00D9  00F0               	movwf	i1LIN_getChecksum@pid
  5950     00DA  30C5               	movlw	(low ((_LIN_packet| 0+1)))& (0+255)
  5951     00DB  00F1               	movwf	i1LIN_getChecksum@data
  5952     00DC  084E               	movf	(_LIN_packet^(0+128)+10),w
  5953     00DD  3184  242C  3180   	fcall	i1_LIN_getChecksum
  5954     00E0  0021               	movlb	1	; select bank1
  5955     00E1  00CD               	movwf	(_LIN_packet^(0+128)+9)
  5956                           
  5957                           ;mcc_generated_files/LINDrivers/lin_master.c: 111:   } else {
  5958     00E2  2908               	goto	i1l2434
  5959     00E3                     i1l2432:
  5960                           
  5961                           ;mcc_generated_files/LINDrivers/lin_master.c: 112:     LIN_rxPacket.rxLength =
  5962     00E3  084F               	movf	LIN_queuePacket@tempSchedule+1,w
  5963     00E4  00FA               	movwf	??_LIN_queuePacket+1
  5964     00E5  084E               	movf	LIN_queuePacket@tempSchedule,w
  5965     00E6  00F9               	movwf	??_LIN_queuePacket
  5966     00E7  3002               	movlw	2
  5967     00E8  0779               	addwf	??_LIN_queuePacket,w
  5968     00E9  0084               	movwf	4
  5969     00EA  087A               	movf	??_LIN_queuePacket+1,w
  5970     00EB  1803               	skipnc
  5971     00EC  0A7A               	incf	??_LIN_queuePacket+1,w
  5972     00ED  0085               	movwf	5
  5973     00EE  0800               	movf	0,w	;code access
  5974     00EF  0021               	movlb	1	; select bank1
  5975     00F0  00B9               	movwf	(_LIN_rxPacket^(0+128)+1)
  5976                           
  5977                           ;mcc_generated_files/LINDrivers/lin_master.c: 114:     LIN_rxPacket.cmd = tempSchedule->
      +                          cmd;
  5978     00F1  0020               	movlb	0	; select bank0
  5979     00F2  084E               	movf	LIN_queuePacket@tempSchedule,w
  5980     00F3  0084               	movwf	4
  5981     00F4  084F               	movf	LIN_queuePacket@tempSchedule+1,w
  5982     00F5  0085               	movwf	5
  5983     00F6  0800               	movf	0,w	;code access
  5984     00F7  0021               	movlb	1	; select bank1
  5985     00F8  00B8               	movwf	_LIN_rxPacket^(0+128)
  5986                           
  5987                           ;mcc_generated_files/LINDrivers/lin_master.c: 115:     LIN_rxPacket.timeout = tempSchedu
      +                          le->timeout;
  5988     00F9  0020               	movlb	0	; select bank0
  5989     00FA  084F               	movf	LIN_queuePacket@tempSchedule+1,w
  5990     00FB  00FA               	movwf	??_LIN_queuePacket+1
  5991     00FC  084E               	movf	LIN_queuePacket@tempSchedule,w
  5992     00FD  00F9               	movwf	??_LIN_queuePacket
  5993     00FE  3003               	movlw	3
  5994     00FF  0779               	addwf	??_LIN_queuePacket,w
  5995     0100  0084               	movwf	4
  5996     0101  087A               	movf	??_LIN_queuePacket+1,w
  5997     0102  1803               	skipnc
  5998     0103  0A7A               	incf	??_LIN_queuePacket+1,w
  5999     0104  0085               	movwf	5
  6000     0105  0800               	movf	0,w	;code access
  6001     0106  0021               	movlb	1	; select bank1
  6002     0107  00C3               	movwf	(_LIN_rxPacket^(0+128)+11)
  6003     0108                     i1l2434:
  6004                           
  6005                           ;mcc_generated_files/LINDrivers/lin_master.c: 118:   LIN_txReady = 1;
  6006     0108  0020               	movlb	0	; select bank0
  6007     0109  01C3               	clrf	_LIN_txReady
  6008     010A  0AC3               	incf	_LIN_txReady,f
  6009     010B                     i1l88:
  6010     010B  0008               	return
  6011     010C                     __end_of_LIN_queuePacket:
  6012                           
  6013                           	psect	text42
  6014     0590                     __ptext42:	
  6015 ;; *************** function i1_memset *****************
  6016 ;; Defined at:
  6017 ;;		line 3 in file "C:\Program Files\Microchip\xc8\v2.46\pic\sources\c99\common\memset.c"
  6018 ;; Parameters:    Size  Location     Type
  6019 ;;  dest            1    wreg     PTR void 
  6020 ;;		 -> LIN_rxPacket(12), LIN_packet(11), 
  6021 ;;  c               2    0[COMMON] int 
  6022 ;;  n               2    2[COMMON] unsigned int 
  6023 ;; Auto vars:     Size  Location     Type
  6024 ;;  dest            1    5[COMMON] PTR void 
  6025 ;;		 -> LIN_rxPacket(12), LIN_packet(11), 
  6026 ;;  p               1    6[COMMON] PTR unsigned char 
  6027 ;;		 -> LIN_rxPacket(12), LIN_packet(11), 
  6028 ;; Return value:  Size  Location     Type
  6029 ;;                  2    0[COMMON] PTR void 
  6030 ;; Registers used:
  6031 ;;		wreg, fsr1l, fsr1h, status,2, status,0
  6032 ;; Tracked objects:
  6033 ;;		On entry : 0/0
  6034 ;;		On exit  : 0/0
  6035 ;;		Unchanged: 0/0
  6036 ;; Data sizes:     COMMON   BANK0   BANK1   BANK2   BANK3   BANK4   BANK5   BANK6
  6037 ;;      Params:         4       0       0       0       0       0       0       0
  6038 ;;      Locals:         2       0       0       0       0       0       0       0
  6039 ;;      Temps:          1       0       0       0       0       0       0       0
  6040 ;;      Totals:         7       0       0       0       0       0       0       0
  6041 ;;Total ram usage:        7 bytes
  6042 ;; Hardware stack levels used: 1
  6043 ;; This function calls:
  6044 ;;		Nothing
  6045 ;; This function is called by:
  6046 ;;		_LIN_queuePacket
  6047 ;; This function uses a non-reentrant model
  6048 ;;
  6049                           
  6050     0590                     i1_memset:	
  6051                           ;psect for function i1_memset
  6052                           
  6053                           
  6054                           ;incstack = 0
  6055                           ; Regs used in i1_memset: [wreg+fsr1l+fsr1h+status,2+status,0]
  6056                           ;i1memset@dest stored from wreg
  6057     0590  00F5               	movwf	i1memset@dest
  6058     0591                     i1l2392:
  6059     0591  0875               	movf	i1memset@dest,w
  6060     0592  00F6               	movwf	i1memset@p
  6061     0593  2D9D               	goto	i1l2398
  6062     0594                     i1l2394:
  6063     0594  0876               	movf	i1memset@p,w
  6064     0595  0086               	movwf	6
  6065     0596  0187               	clrf	7
  6066     0597  0870               	movf	i1memset@c,w
  6067     0598  0081               	movwf	1
  6068     0599                     i1l2396:
  6069     0599  3001               	movlw	1
  6070     059A  00F4               	movwf	??i1_memset
  6071     059B  0874               	movf	??i1_memset,w
  6072     059C  07F6               	addwf	i1memset@p,f
  6073     059D                     i1l2398:
  6074     059D  3001               	movlw	1
  6075     059E  02F2               	subwf	i1memset@n,f
  6076     059F  3000               	movlw	0
  6077     05A0  3BF3               	subwfb	i1memset@n+1,f
  6078     05A1  0A72               	incf	i1memset@n,w
  6079     05A2  1D03               	skipz
  6080     05A3  2DA8               	goto	u211_21
  6081     05A4  0A73               	incf	i1memset@n+1,w
  6082     05A5  1D03               	btfss	3,2
  6083     05A6  2DA8               	goto	u211_21
  6084     05A7  2DA9               	goto	u211_20
  6085     05A8                     u211_21:
  6086     05A8  2D94               	goto	i1l2394
  6087     05A9                     u211_20:
  6088     05A9                     i1l1132:
  6089     05A9  0008               	return
  6090     05AA                     __end_ofi1_memset:
  6091                           
  6092                           	psect	text43
  6093     04D5                     __ptext43:	
  6094 ;; *************** function i1_memcpy *****************
  6095 ;; Defined at:
  6096 ;;		line 4 in file "C:\Program Files\Microchip\xc8\v2.46\pic\sources\c99\common\memcpy.c"
  6097 ;; Parameters:    Size  Location     Type
  6098 ;;  d1              1    wreg     PTR void 
  6099 ;;		 -> processLIN@tempRxData(8), LIN_packet(11), 
  6100 ;;  s1              1    0[COMMON] PTR const void 
  6101 ;;		 -> SW_STATE_Data(8), LIN_rxPacket(12), 
  6102 ;;  n               2    1[COMMON] unsigned int 
  6103 ;; Auto vars:     Size  Location     Type
  6104 ;;  d1              1    4[COMMON] PTR void 
  6105 ;;		 -> processLIN@tempRxData(8), LIN_packet(11), 
  6106 ;;  s               1    7[COMMON] PTR const unsigned char 
  6107 ;;		 -> SW_STATE_Data(8), LIN_rxPacket(12), 
  6108 ;;  d               1    6[COMMON] PTR unsigned char 
  6109 ;;		 -> processLIN@tempRxData(8), LIN_packet(11), 
  6110 ;;  tmp             1    5[COMMON] unsigned char 
  6111 ;; Return value:  Size  Location     Type
  6112 ;;                  2    0[COMMON] PTR void 
  6113 ;; Registers used:
  6114 ;;		wreg, fsr1l, fsr1h, status,2, status,0
  6115 ;; Tracked objects:
  6116 ;;		On entry : 0/0
  6117 ;;		On exit  : 0/0
  6118 ;;		Unchanged: 0/0
  6119 ;; Data sizes:     COMMON   BANK0   BANK1   BANK2   BANK3   BANK4   BANK5   BANK6
  6120 ;;      Params:         3       0       0       0       0       0       0       0
  6121 ;;      Locals:         4       0       0       0       0       0       0       0
  6122 ;;      Temps:          1       0       0       0       0       0       0       0
  6123 ;;      Totals:         8       0       0       0       0       0       0       0
  6124 ;;Total ram usage:        8 bytes
  6125 ;; Hardware stack levels used: 1
  6126 ;; This function calls:
  6127 ;;		Nothing
  6128 ;; This function is called by:
  6129 ;;		_LIN_queuePacket
  6130 ;; This function uses a non-reentrant model
  6131 ;;
  6132                           
  6133     04D5                     i1_memcpy:	
  6134                           ;psect for function i1_memcpy
  6135                           
  6136                           
  6137                           ;incstack = 0
  6138                           ; Regs used in i1_memcpy: [wreg+fsr1l+fsr1h+status,2+status,0]
  6139                           ;i1memcpy@d1 stored from wreg
  6140     04D5  00F4               	movwf	i1memcpy@d1
  6141     04D6                     i1l2384:
  6142     04D6  0870               	movf	i1memcpy@s1,w
  6143     04D7  00F7               	movwf	i1memcpy@s
  6144     04D8  0874               	movf	i1memcpy@d1,w
  6145     04D9  00F6               	movwf	i1memcpy@d
  6146     04DA  2CED               	goto	i1l1123
  6147     04DB                     i1l2386:
  6148     04DB  0877               	movf	i1memcpy@s,w
  6149     04DC  0086               	movwf	6
  6150     04DD  0187               	clrf	7
  6151     04DE  0801               	movf	1,w
  6152     04DF  00F5               	movwf	i1memcpy@tmp
  6153     04E0                     i1l2388:
  6154     04E0  3001               	movlw	1
  6155     04E1  00F3               	movwf	??i1_memcpy
  6156     04E2  0873               	movf	??i1_memcpy,w
  6157     04E3  07F7               	addwf	i1memcpy@s,f
  6158     04E4                     i1l2390:
  6159     04E4  0876               	movf	i1memcpy@d,w
  6160     04E5  0086               	movwf	6
  6161     04E6  0187               	clrf	7
  6162     04E7  0875               	movf	i1memcpy@tmp,w
  6163     04E8  0081               	movwf	1
  6164     04E9  3001               	movlw	1
  6165     04EA  00F3               	movwf	??i1_memcpy
  6166     04EB  0873               	movf	??i1_memcpy,w
  6167     04EC  07F6               	addwf	i1memcpy@d,f
  6168     04ED                     i1l1123:
  6169     04ED  3001               	movlw	1
  6170     04EE  02F1               	subwf	i1memcpy@n,f
  6171     04EF  3000               	movlw	0
  6172     04F0  3BF2               	subwfb	i1memcpy@n+1,f
  6173     04F1  0A71               	incf	i1memcpy@n,w
  6174     04F2  1D03               	skipz
  6175     04F3  2CF8               	goto	u210_21
  6176     04F4  0A72               	incf	i1memcpy@n+1,w
  6177     04F5  1D03               	btfss	3,2
  6178     04F6  2CF8               	goto	u210_21
  6179     04F7  2CF9               	goto	u210_20
  6180     04F8                     u210_21:
  6181     04F8  2CDB               	goto	i1l2386
  6182     04F9                     u210_20:
  6183     04F9                     i1l1126:
  6184     04F9  0008               	return
  6185     04FA                     __end_ofi1_memcpy:
  6186                           
  6187                           	psect	text44
  6188     042C                     __ptext44:	
  6189 ;; *************** function i1_LIN_getChecksum *****************
  6190 ;; Defined at:
  6191 ;;		line 244 in file "mcc_generated_files/LINDrivers/lin_master.c"
  6192 ;; Parameters:    Size  Location     Type
  6193 ;;  length          1    wreg     unsigned char 
  6194 ;;  pid             1    0[COMMON] unsigned char 
  6195 ;;  data            1    1[COMMON] PTR unsigned char 
  6196 ;;		 -> LIN_rxPacket(12), LIN_packet(11), 
  6197 ;; Auto vars:     Size  Location     Type
  6198 ;;  length          1    4[COMMON] unsigned char 
  6199 ;;  checksum        2    6[COMMON] unsigned short 
  6200 ;;  i               1    5[COMMON] unsigned char 
  6201 ;; Return value:  Size  Location     Type
  6202 ;;                  1    wreg      unsigned char 
  6203 ;; Registers used:
  6204 ;;		wreg, fsr1l, fsr1h, status,2, status,0
  6205 ;; Tracked objects:
  6206 ;;		On entry : 0/0
  6207 ;;		On exit  : 0/0
  6208 ;;		Unchanged: 0/0
  6209 ;; Data sizes:     COMMON   BANK0   BANK1   BANK2   BANK3   BANK4   BANK5   BANK6
  6210 ;;      Params:         2       0       0       0       0       0       0       0
  6211 ;;      Locals:         4       0       0       0       0       0       0       0
  6212 ;;      Temps:          2       0       0       0       0       0       0       0
  6213 ;;      Totals:         8       0       0       0       0       0       0       0
  6214 ;;Total ram usage:        8 bytes
  6215 ;; Hardware stack levels used: 1
  6216 ;; This function calls:
  6217 ;;		Nothing
  6218 ;; This function is called by:
  6219 ;;		_LIN_queuePacket
  6220 ;; This function uses a non-reentrant model
  6221 ;;
  6222                           
  6223     042C                     i1_LIN_getChecksum:	
  6224                           ;psect for function i1_LIN_getChecksum
  6225                           
  6226                           
  6227                           ;incstack = 0
  6228                           ; Regs used in i1_LIN_getChecksum: [wreg+fsr1l+fsr1h+status,2+status,0]
  6229                           ;i1LIN_getChecksum@length stored from wreg
  6230     042C  00F4               	movwf	i1LIN_getChecksum@length
  6231     042D                     i1l2364:
  6232                           
  6233                           ;mcc_generated_files/LINDrivers/lin_master.c: 245:   uint16_t checksum = pid;
  6234     042D  0870               	movf	i1LIN_getChecksum@pid,w
  6235     042E  00F2               	movwf	??i1_LIN_getChecksum
  6236     042F  01F3               	clrf	??i1_LIN_getChecksum+1
  6237     0430  0872               	movf	??i1_LIN_getChecksum,w
  6238     0431  00F6               	movwf	i1LIN_getChecksum@checksum
  6239     0432  0873               	movf	??i1_LIN_getChecksum+1,w
  6240     0433  00F7               	movwf	i1LIN_getChecksum@checksum+1
  6241     0434                     i1l2366:
  6242                           
  6243                           ;mcc_generated_files/LINDrivers/lin_master.c: 247:   for (uint8_t i = 0; i < length; i++
      +                          ) {
  6244     0434  01F5               	clrf	i1LIN_getChecksum@i
  6245     0435  2C55               	goto	i1l2378
  6246     0436                     i1l2368:
  6247                           
  6248                           ;mcc_generated_files/LINDrivers/lin_master.c: 248:     checksum = checksum + *data++;
  6249     0436  0871               	movf	i1LIN_getChecksum@data,w
  6250     0437  0086               	movwf	6
  6251     0438  0187               	clrf	7
  6252     0439  0801               	movf	1,w
  6253     043A  0776               	addwf	i1LIN_getChecksum@checksum,w
  6254     043B  00F6               	movwf	i1LIN_getChecksum@checksum
  6255     043C  0877               	movf	i1LIN_getChecksum@checksum+1,w
  6256     043D  1803               	skipnc
  6257     043E  0A77               	incf	i1LIN_getChecksum@checksum+1,w
  6258     043F  00F7               	movwf	i1LIN_getChecksum@checksum+1
  6259     0440                     i1l2370:
  6260     0440  3001               	movlw	1
  6261     0441  00F2               	movwf	??i1_LIN_getChecksum
  6262     0442  0872               	movf	??i1_LIN_getChecksum,w
  6263     0443  07F1               	addwf	i1LIN_getChecksum@data,f
  6264     0444                     i1l2372:
  6265                           
  6266                           ;mcc_generated_files/LINDrivers/lin_master.c: 249:     if (checksum > 0xFF)
  6267     0444  3001               	movlw	1
  6268     0445  0277               	subwf	i1LIN_getChecksum@checksum+1,w
  6269     0446  3000               	movlw	0
  6270     0447  1903               	skipnz
  6271     0448  0276               	subwf	i1LIN_getChecksum@checksum,w
  6272     0449  1C03               	skipc
  6273     044A  2C4C               	goto	u208_21
  6274     044B  2C4D               	goto	u208_20
  6275     044C                     u208_21:
  6276     044C  2C51               	goto	i1l2376
  6277     044D                     u208_20:
  6278     044D                     i1l2374:
  6279                           
  6280                           ;mcc_generated_files/LINDrivers/lin_master.c: 250:       checksum -= 0xFF;
  6281     044D  30FF               	movlw	255
  6282     044E  02F6               	subwf	i1LIN_getChecksum@checksum,f
  6283     044F  3000               	movlw	0
  6284     0450  3BF7               	subwfb	i1LIN_getChecksum@checksum+1,f
  6285     0451                     i1l2376:
  6286                           
  6287                           ;mcc_generated_files/LINDrivers/lin_master.c: 251:   }
  6288     0451  3001               	movlw	1
  6289     0452  00F2               	movwf	??i1_LIN_getChecksum
  6290     0453  0872               	movf	??i1_LIN_getChecksum,w
  6291     0454  07F5               	addwf	i1LIN_getChecksum@i,f
  6292     0455                     i1l2378:
  6293     0455  0874               	movf	i1LIN_getChecksum@length,w
  6294     0456  0275               	subwf	i1LIN_getChecksum@i,w
  6295     0457  1C03               	skipc
  6296     0458  2C5A               	goto	u209_21
  6297     0459  2C5B               	goto	u209_20
  6298     045A                     u209_21:
  6299     045A  2C36               	goto	i1l2368
  6300     045B                     u209_20:
  6301     045B                     i1l136:
  6302                           
  6303                           ;mcc_generated_files/LINDrivers/lin_master.c: 252:   checksum = ~checksum;
  6304     045B  09F6               	comf	i1LIN_getChecksum@checksum,f
  6305     045C  09F7               	comf	i1LIN_getChecksum@checksum+1,f
  6306     045D                     i1l2380:
  6307                           
  6308                           ;mcc_generated_files/LINDrivers/lin_master.c: 254:   return (uint8_t)checksum;
  6309     045D  0876               	movf	i1LIN_getChecksum@checksum,w
  6310     045E                     i1l137:
  6311     045E  0008               	return
  6312     045F                     __end_ofi1_LIN_getChecksum:
  6313                           
  6314                           	psect	text45
  6315     019C                     __ptext45:	
  6316 ;; *************** function _LIN_calcParity *****************
  6317 ;; Defined at:
  6318 ;;		line 226 in file "mcc_generated_files/LINDrivers/lin_master.c"
  6319 ;; Parameters:    Size  Location     Type
  6320 ;;  CMD             1    wreg     unsigned char 
  6321 ;; Auto vars:     Size  Location     Type
  6322 ;;  CMD             1    1[COMMON] unsigned char 
  6323 ;;  PID             1    2[COMMON] struct .
  6324 ;; Return value:  Size  Location     Type
  6325 ;;                  1    wreg      unsigned char 
  6326 ;; Registers used:
  6327 ;;		wreg, status,0
  6328 ;; Tracked objects:
  6329 ;;		On entry : 0/0
  6330 ;;		On exit  : 0/0
  6331 ;;		Unchanged: 0/0
  6332 ;; Data sizes:     COMMON   BANK0   BANK1   BANK2   BANK3   BANK4   BANK5   BANK6
  6333 ;;      Params:         0       0       0       0       0       0       0       0
  6334 ;;      Locals:         2       0       0       0       0       0       0       0
  6335 ;;      Temps:          1       0       0       0       0       0       0       0
  6336 ;;      Totals:         3       0       0       0       0       0       0       0
  6337 ;;Total ram usage:        3 bytes
  6338 ;; Hardware stack levels used: 1
  6339 ;; This function calls:
  6340 ;;		Nothing
  6341 ;; This function is called by:
  6342 ;;		_LIN_queuePacket
  6343 ;; This function uses a non-reentrant model
  6344 ;;
  6345                           
  6346     019C                     _LIN_calcParity:	
  6347                           ;psect for function _LIN_calcParity
  6348                           
  6349                           
  6350                           ;incstack = 0
  6351                           ; Regs used in _LIN_calcParity: [wreg+status,0]
  6352                           ;LIN_calcParity@CMD stored from wreg
  6353     019C  00F1               	movwf	LIN_calcParity@CMD
  6354     019D                     i1l2356:
  6355                           
  6356                           ;mcc_generated_files/LINDrivers/lin_master.c: 227:   lin_pid_t PID;;mcc_generated_files/
      +                          LINDrivers/lin_master.c: 228:   PID.rawPID = CMD;
  6357     019D  0871               	movf	LIN_calcParity@CMD,w
  6358     019E  00F2               	movwf	LIN_calcParity@PID
  6359                           
  6360                           ;mcc_generated_files/LINDrivers/lin_master.c: 233:   PID.P0 = PID.ID0 ^ PID.ID1;
  6361     019F  18F2               	btfsc	LIN_calcParity@PID,1
  6362     01A0  29A2               	goto	u182_21
  6363     01A1  29A4               	goto	u182_20
  6364     01A2                     u182_21:
  6365     01A2  3001               	movlw	1
  6366     01A3  29A5               	goto	u182_22
  6367     01A4                     u182_20:
  6368     01A4  3000               	movlw	0
  6369     01A5                     u182_22:
  6370     01A5  00F0               	movwf	??_LIN_calcParity
  6371     01A6  1872               	btfsc	LIN_calcParity@PID,0
  6372     01A7  29A9               	goto	u183_21
  6373     01A8  29AB               	goto	u183_20
  6374     01A9                     u183_21:
  6375     01A9  3001               	movlw	1
  6376     01AA  29AC               	goto	u183_22
  6377     01AB                     u183_20:
  6378     01AB  3000               	movlw	0
  6379     01AC                     u183_22:
  6380     01AC  0670               	xorwf	??_LIN_calcParity,w
  6381     01AD  1D03               	skipz
  6382     01AE  29B0               	goto	u184_21
  6383     01AF  29B2               	goto	u184_20
  6384     01B0                     u184_21:
  6385     01B0  1772               	bsf	LIN_calcParity@PID,6
  6386     01B1  29B3               	goto	u185_24
  6387     01B2                     u184_20:
  6388     01B2  1372               	bcf	LIN_calcParity@PID,6
  6389     01B3                     u185_24:
  6390                           
  6391                           ;mcc_generated_files/LINDrivers/lin_master.c: 234:   PID.P0 = PID.P0 ^ PID.ID2;
  6392     01B3  1972               	btfsc	LIN_calcParity@PID,2
  6393     01B4  29B6               	goto	u186_21
  6394     01B5  29B8               	goto	u186_20
  6395     01B6                     u186_21:
  6396     01B6  3001               	movlw	1
  6397     01B7  29B9               	goto	u186_22
  6398     01B8                     u186_20:
  6399     01B8  3000               	movlw	0
  6400     01B9                     u186_22:
  6401     01B9  00F0               	movwf	??_LIN_calcParity
  6402     01BA  1B72               	btfsc	LIN_calcParity@PID,6
  6403     01BB  29BD               	goto	u187_21
  6404     01BC  29BF               	goto	u187_20
  6405     01BD                     u187_21:
  6406     01BD  3001               	movlw	1
  6407     01BE  29C0               	goto	u187_22
  6408     01BF                     u187_20:
  6409     01BF  3000               	movlw	0
  6410     01C0                     u187_22:
  6411     01C0  0670               	xorwf	??_LIN_calcParity,w
  6412     01C1  1D03               	skipz
  6413     01C2  29C4               	goto	u188_21
  6414     01C3  29C6               	goto	u188_20
  6415     01C4                     u188_21:
  6416     01C4  1772               	bsf	LIN_calcParity@PID,6
  6417     01C5  29C7               	goto	u189_24
  6418     01C6                     u188_20:
  6419     01C6  1372               	bcf	LIN_calcParity@PID,6
  6420     01C7                     u189_24:
  6421                           
  6422                           ;mcc_generated_files/LINDrivers/lin_master.c: 235:   PID.P0 = PID.P0 ^ PID.ID4;
  6423     01C7  1A72               	btfsc	LIN_calcParity@PID,4
  6424     01C8  29CA               	goto	u190_21
  6425     01C9  29CC               	goto	u190_20
  6426     01CA                     u190_21:
  6427     01CA  3001               	movlw	1
  6428     01CB  29CD               	goto	u190_22
  6429     01CC                     u190_20:
  6430     01CC  3000               	movlw	0
  6431     01CD                     u190_22:
  6432     01CD  00F0               	movwf	??_LIN_calcParity
  6433     01CE  1B72               	btfsc	LIN_calcParity@PID,6
  6434     01CF  29D1               	goto	u191_21
  6435     01D0  29D3               	goto	u191_20
  6436     01D1                     u191_21:
  6437     01D1  3001               	movlw	1
  6438     01D2  29D4               	goto	u191_22
  6439     01D3                     u191_20:
  6440     01D3  3000               	movlw	0
  6441     01D4                     u191_22:
  6442     01D4  0670               	xorwf	??_LIN_calcParity,w
  6443     01D5  1D03               	skipz
  6444     01D6  29D8               	goto	u192_21
  6445     01D7  29DA               	goto	u192_20
  6446     01D8                     u192_21:
  6447     01D8  1772               	bsf	LIN_calcParity@PID,6
  6448     01D9  29DB               	goto	u193_24
  6449     01DA                     u192_20:
  6450     01DA  1372               	bcf	LIN_calcParity@PID,6
  6451     01DB                     u193_24:
  6452                           
  6453                           ;mcc_generated_files/LINDrivers/lin_master.c: 236:   PID.P1 = PID.ID1 ^ PID.ID3;
  6454     01DB  19F2               	btfsc	LIN_calcParity@PID,3
  6455     01DC  29DE               	goto	u194_21
  6456     01DD  29E0               	goto	u194_20
  6457     01DE                     u194_21:
  6458     01DE  3001               	movlw	1
  6459     01DF  29E1               	goto	u194_22
  6460     01E0                     u194_20:
  6461     01E0  3000               	movlw	0
  6462     01E1                     u194_22:
  6463     01E1  00F0               	movwf	??_LIN_calcParity
  6464     01E2  18F2               	btfsc	LIN_calcParity@PID,1
  6465     01E3  29E5               	goto	u195_21
  6466     01E4  29E7               	goto	u195_20
  6467     01E5                     u195_21:
  6468     01E5  3001               	movlw	1
  6469     01E6  29E8               	goto	u195_22
  6470     01E7                     u195_20:
  6471     01E7  3000               	movlw	0
  6472     01E8                     u195_22:
  6473     01E8  0670               	xorwf	??_LIN_calcParity,w
  6474     01E9  1D03               	skipz
  6475     01EA  29EC               	goto	u196_21
  6476     01EB  29EE               	goto	u196_20
  6477     01EC                     u196_21:
  6478     01EC  17F2               	bsf	LIN_calcParity@PID,7
  6479     01ED  29EF               	goto	u197_24
  6480     01EE                     u196_20:
  6481     01EE  13F2               	bcf	LIN_calcParity@PID,7
  6482     01EF                     u197_24:
  6483                           
  6484                           ;mcc_generated_files/LINDrivers/lin_master.c: 237:   PID.P1 = PID.P1 ^ PID.ID4;
  6485     01EF  1A72               	btfsc	LIN_calcParity@PID,4
  6486     01F0  29F2               	goto	u198_21
  6487     01F1  29F4               	goto	u198_20
  6488     01F2                     u198_21:
  6489     01F2  3001               	movlw	1
  6490     01F3  29F5               	goto	u198_22
  6491     01F4                     u198_20:
  6492     01F4  3000               	movlw	0
  6493     01F5                     u198_22:
  6494     01F5  00F0               	movwf	??_LIN_calcParity
  6495     01F6  1BF2               	btfsc	LIN_calcParity@PID,7
  6496     01F7  29F9               	goto	u199_21
  6497     01F8  29FB               	goto	u199_20
  6498     01F9                     u199_21:
  6499     01F9  3001               	movlw	1
  6500     01FA  29FC               	goto	u199_22
  6501     01FB                     u199_20:
  6502     01FB  3000               	movlw	0
  6503     01FC                     u199_22:
  6504     01FC  0670               	xorwf	??_LIN_calcParity,w
  6505     01FD  1D03               	skipz
  6506     01FE  2A00               	goto	u200_21
  6507     01FF  2A02               	goto	u200_20
  6508     0200                     u200_21:
  6509     0200  17F2               	bsf	LIN_calcParity@PID,7
  6510     0201  2A03               	goto	u201_24
  6511     0202                     u200_20:
  6512     0202  13F2               	bcf	LIN_calcParity@PID,7
  6513     0203                     u201_24:
  6514                           
  6515                           ;mcc_generated_files/LINDrivers/lin_master.c: 238:   PID.P1 = PID.P1 ^ PID.ID5;
  6516     0203  1AF2               	btfsc	LIN_calcParity@PID,5
  6517     0204  2A06               	goto	u202_21
  6518     0205  2A08               	goto	u202_20
  6519     0206                     u202_21:
  6520     0206  3001               	movlw	1
  6521     0207  2A09               	goto	u202_22
  6522     0208                     u202_20:
  6523     0208  3000               	movlw	0
  6524     0209                     u202_22:
  6525     0209  00F0               	movwf	??_LIN_calcParity
  6526     020A  1BF2               	btfsc	LIN_calcParity@PID,7
  6527     020B  2A0D               	goto	u203_21
  6528     020C  2A0F               	goto	u203_20
  6529     020D                     u203_21:
  6530     020D  3001               	movlw	1
  6531     020E  2A10               	goto	u203_22
  6532     020F                     u203_20:
  6533     020F  3000               	movlw	0
  6534     0210                     u203_22:
  6535     0210  0670               	xorwf	??_LIN_calcParity,w
  6536     0211  1D03               	skipz
  6537     0212  2A14               	goto	u204_21
  6538     0213  2A16               	goto	u204_20
  6539     0214                     u204_21:
  6540     0214  17F2               	bsf	LIN_calcParity@PID,7
  6541     0215  2A17               	goto	u205_24
  6542     0216                     u204_20:
  6543     0216  13F2               	bcf	LIN_calcParity@PID,7
  6544     0217                     u205_24:
  6545     0217                     i1l2358:
  6546                           
  6547                           ;mcc_generated_files/LINDrivers/lin_master.c: 239:   PID.P1 = ~PID.P1;
  6548     0217  1003               	clrc
  6549     0218  1FF2               	btfss	LIN_calcParity@PID,7
  6550     0219  1403               	setc
  6551     021A  1803               	btfsc	3,0
  6552     021B  2A1D               	goto	u206_21
  6553     021C  2A1F               	goto	u206_20
  6554     021D                     u206_21:
  6555     021D  17F2               	bsf	LIN_calcParity@PID,7
  6556     021E  2A20               	goto	u207_24
  6557     021F                     u206_20:
  6558     021F  13F2               	bcf	LIN_calcParity@PID,7
  6559     0220                     u207_24:
  6560     0220                     i1l2360:
  6561                           
  6562                           ;mcc_generated_files/LINDrivers/lin_master.c: 241:   return PID.rawPID;
  6563     0220  0872               	movf	LIN_calcParity@PID,w
  6564     0221                     i1l130:
  6565     0221  0008               	return
  6566     0222                     __end_of_LIN_calcParity:
  6567                           
  6568                           	psect	text46
  6569     04FA                     __ptext46:	
  6570 ;; *************** function _EUSART_Transmit_ISR *****************
  6571 ;; Defined at:
  6572 ;;		line 197 in file "mcc_generated_files/eusart.c"
  6573 ;; Parameters:    Size  Location     Type
  6574 ;;		None
  6575 ;; Auto vars:     Size  Location     Type
  6576 ;;		None
  6577 ;; Return value:  Size  Location     Type
  6578 ;;                  1    wreg      void 
  6579 ;; Registers used:
  6580 ;;		wreg, fsr1l, fsr1h, status,2, status,0
  6581 ;; Tracked objects:
  6582 ;;		On entry : 0/0
  6583 ;;		On exit  : 0/0
  6584 ;;		Unchanged: 0/0
  6585 ;; Data sizes:     COMMON   BANK0   BANK1   BANK2   BANK3   BANK4   BANK5   BANK6
  6586 ;;      Params:         0       0       0       0       0       0       0       0
  6587 ;;      Locals:         0       0       0       0       0       0       0       0
  6588 ;;      Temps:          1       0       0       0       0       0       0       0
  6589 ;;      Totals:         1       0       0       0       0       0       0       0
  6590 ;;Total ram usage:        1 bytes
  6591 ;; Hardware stack levels used: 1
  6592 ;; This function calls:
  6593 ;;		Nothing
  6594 ;; This function is called by:
  6595 ;;		_EUSART_Initialize
  6596 ;;		_INTERRUPT_InterruptManager
  6597 ;; This function uses a non-reentrant model
  6598 ;;
  6599                           
  6600     04FA                     _EUSART_Transmit_ISR:	
  6601                           ;psect for function _EUSART_Transmit_ISR
  6602                           
  6603     04FA                     i1l2250:	
  6604                           ;incstack = 0
  6605                           ; Regs used in _EUSART_Transmit_ISR: [wreg+fsr1l+fsr1h+status,2+status,0]
  6606                           
  6607                           
  6608                           ;mcc_generated_files/eusart.c: 201:     if(sizeof(eusartTxBuffer) > eusartTxBufferRemain
      +                          ing)
  6609     04FA  3008               	movlw	8
  6610     04FB  0020               	movlb	0	; select bank0
  6611     04FC  0237               	subwf	_eusartTxBufferRemaining,w	;volatile
  6612     04FD  1803               	skipnc
  6613     04FE  2D00               	goto	u169_21
  6614     04FF  2D01               	goto	u169_20
  6615     0500                     u169_21:
  6616     0500  2D19               	goto	i1l321
  6617     0501                     u169_20:
  6618     0501                     i1l2252:
  6619                           
  6620                           ;mcc_generated_files/eusart.c: 202:     {;mcc_generated_files/eusart.c: 203:         TXR
      +                          EG = eusartTxBuffer[eusartTxTail++];
  6621     0501  0838               	movf	_eusartTxTail,w
  6622     0502  3EB0               	addlw	(low (_eusartTxBuffer| 0))& (0+255)
  6623     0503  0086               	movwf	6
  6624     0504  0187               	clrf	7
  6625     0505  0801               	movf	1,w
  6626     0506  0023               	movlb	3	; select bank3
  6627     0507  009A               	movwf	26	;volatile
  6628     0508                     i1l2254:
  6629     0508  3001               	movlw	1
  6630     0509  00F0               	movwf	??_EUSART_Transmit_ISR
  6631     050A  0870               	movf	??_EUSART_Transmit_ISR,w
  6632     050B  0020               	movlb	0	; select bank0
  6633     050C  07B8               	addwf	_eusartTxTail,f	;volatile
  6634     050D                     i1l2256:
  6635                           
  6636                           ;mcc_generated_files/eusart.c: 204:         if(sizeof(eusartTxBuffer) <= eusartTxTail)
  6637     050D  3008               	movlw	8
  6638     050E  0238               	subwf	_eusartTxTail,w	;volatile
  6639     050F  1C03               	skipc
  6640     0510  2D12               	goto	u170_21
  6641     0511  2D13               	goto	u170_20
  6642     0512                     u170_21:
  6643     0512  2D14               	goto	i1l2260
  6644     0513                     u170_20:
  6645     0513                     i1l2258:
  6646                           
  6647                           ;mcc_generated_files/eusart.c: 205:         {;mcc_generated_files/eusart.c: 206:        
      +                               eusartTxTail = 0;
  6648     0513  01B8               	clrf	_eusartTxTail	;volatile
  6649     0514                     i1l2260:
  6650                           
  6651                           ;mcc_generated_files/eusart.c: 208:         eusartTxBufferRemaining++;
  6652     0514  3001               	movlw	1
  6653     0515  00F0               	movwf	??_EUSART_Transmit_ISR
  6654     0516  0870               	movf	??_EUSART_Transmit_ISR,w
  6655     0517  07B7               	addwf	_eusartTxBufferRemaining,f	;volatile
  6656                           
  6657                           ;mcc_generated_files/eusart.c: 209:     }
  6658     0518  2D1B               	goto	i1l324
  6659     0519                     i1l321:	
  6660                           ;mcc_generated_files/eusart.c: 210:     else
  6661                           
  6662                           
  6663                           ;mcc_generated_files/eusart.c: 211:     {;mcc_generated_files/eusart.c: 212:         PIE
      +                          1bits.TXIE = 0;
  6664     0519  0021               	movlb	1	; select bank1
  6665     051A  1211               	bcf	17,4	;volatile
  6666     051B                     i1l324:
  6667     051B  0008               	return
  6668     051C                     __end_of_EUSART_Transmit_ISR:
  6669                           
  6670                           	psect	text47
  6671     0356                     __ptext47:	
  6672 ;; *************** function _EUSART_Receive_ISR *****************
  6673 ;; Defined at:
  6674 ;;		line 216 in file "mcc_generated_files/eusart.c"
  6675 ;; Parameters:    Size  Location     Type
  6676 ;;		None
  6677 ;; Auto vars:     Size  Location     Type
  6678 ;;		None
  6679 ;; Return value:  Size  Location     Type
  6680 ;;                  1    wreg      void 
  6681 ;; Registers used:
  6682 ;;		wreg, fsr1l, fsr1h, status,2, status,0, pclath, cstack
  6683 ;; Tracked objects:
  6684 ;;		On entry : 0/0
  6685 ;;		On exit  : 0/0
  6686 ;;		Unchanged: 0/0
  6687 ;; Data sizes:     COMMON   BANK0   BANK1   BANK2   BANK3   BANK4   BANK5   BANK6
  6688 ;;      Params:         0       0       0       0       0       0       0       0
  6689 ;;      Locals:         0       0       0       0       0       0       0       0
  6690 ;;      Temps:          0       0       0       0       0       0       0       0
  6691 ;;      Totals:         0       0       0       0       0       0       0       0
  6692 ;;Total ram usage:        0 bytes
  6693 ;; Hardware stack levels used: 1
  6694 ;; Hardware stack levels required when called: 2
  6695 ;; This function calls:
  6696 ;;		NULL
  6697 ;;		_EUSART_DefaultErrorHandler
  6698 ;;		_EUSART_DefaultFramingErrorHandler
  6699 ;;		_EUSART_DefaultOverrunErrorHandler
  6700 ;;		_EUSART_RxDataHandler
  6701 ;; This function is called by:
  6702 ;;		_EUSART_Initialize
  6703 ;;		_INTERRUPT_InterruptManager
  6704 ;; This function uses a non-reentrant model
  6705 ;;
  6706                           
  6707     0356                     _EUSART_Receive_ISR:	
  6708                           ;psect for function _EUSART_Receive_ISR
  6709                           
  6710     0356                     i1l2262:	
  6711                           ;incstack = 0
  6712                           ; Regs used in _EUSART_Receive_ISR: [wreg+fsr1l+fsr1h+status,2+status,0+pclath+cstack]
  6713                           
  6714                           
  6715                           ;mcc_generated_files/eusart.c: 219:     eusartRxStatusBuffer[eusartRxHead].status = 0;
  6716     0356  0020               	movlb	0	; select bank0
  6717     0357  0836               	movf	_eusartRxHead,w	;volatile
  6718     0358  3EA0               	addlw	(low (_eusartRxStatusBuffer| 0))& (0+255)
  6719     0359  0086               	movwf	6
  6720     035A  0187               	clrf	7
  6721     035B  0181               	clrf	1
  6722     035C                     i1l2264:
  6723                           
  6724                           ;mcc_generated_files/eusart.c: 221:     if(RCSTAbits.FERR){
  6725     035C  0023               	movlb	3	; select bank3
  6726     035D  1D1D               	btfss	29,2	;volatile
  6727     035E  2B60               	goto	u171_21
  6728     035F  2B61               	goto	u171_20
  6729     0360                     u171_21:
  6730     0360  2B6C               	goto	i1l2270
  6731     0361                     u171_20:
  6732     0361                     i1l2266:
  6733                           
  6734                           ;mcc_generated_files/eusart.c: 222:         eusartRxStatusBuffer[eusartRxHead].ferr = 1;
  6735     0361  0020               	movlb	0	; select bank0
  6736     0362  0836               	movf	_eusartRxHead,w	;volatile
  6737     0363  3EA0               	addlw	(low (_eusartRxStatusBuffer| 0))& (0+255)
  6738     0364  0086               	movwf	6
  6739     0365  0187               	clrf	7
  6740     0366  1481               	bsf	1,1
  6741     0367                     i1l2268:
  6742                           
  6743                           ;mcc_generated_files/eusart.c: 223:         EUSART_FramingErrorHandler();
  6744     0367  0827               	movf	_EUSART_FramingErrorHandler+1,w
  6745     0368  008A               	movwf	10
  6746     0369  0826               	movf	_EUSART_FramingErrorHandler,w
  6747     036A  000A               	callw
  6748     036B  3183               	pagesel	$
  6749     036C                     i1l2270:
  6750                           
  6751                           ;mcc_generated_files/eusart.c: 226:     if(RCSTAbits.OERR){
  6752     036C  0023               	movlb	3	; select bank3
  6753     036D  1C9D               	btfss	29,1	;volatile
  6754     036E  2B70               	goto	u172_21
  6755     036F  2B71               	goto	u172_20
  6756     0370                     u172_21:
  6757     0370  2B7C               	goto	i1l2276
  6758     0371                     u172_20:
  6759     0371                     i1l2272:
  6760                           
  6761                           ;mcc_generated_files/eusart.c: 227:         eusartRxStatusBuffer[eusartRxHead].oerr = 1;
  6762     0371  0020               	movlb	0	; select bank0
  6763     0372  0836               	movf	_eusartRxHead,w	;volatile
  6764     0373  3EA0               	addlw	(low (_eusartRxStatusBuffer| 0))& (0+255)
  6765     0374  0086               	movwf	6
  6766     0375  0187               	clrf	7
  6767     0376  1501               	bsf	1,2
  6768     0377                     i1l2274:
  6769                           
  6770                           ;mcc_generated_files/eusart.c: 228:         EUSART_OverrunErrorHandler();
  6771     0377  0825               	movf	_EUSART_OverrunErrorHandler+1,w
  6772     0378  008A               	movwf	10
  6773     0379  0824               	movf	_EUSART_OverrunErrorHandler,w
  6774     037A  000A               	callw
  6775     037B  3183               	pagesel	$
  6776     037C                     i1l2276:
  6777                           
  6778                           ;mcc_generated_files/eusart.c: 231:     if(eusartRxStatusBuffer[eusartRxHead].status){
  6779     037C  0020               	movlb	0	; select bank0
  6780     037D  0836               	movf	_eusartRxHead,w	;volatile
  6781     037E  3EA0               	addlw	(low (_eusartRxStatusBuffer| 0))& (0+255)
  6782     037F  0086               	movwf	6
  6783     0380  0187               	clrf	7
  6784     0381  0801               	movf	1,w
  6785     0382  1903               	btfsc	3,2
  6786     0383  2B85               	goto	u173_21
  6787     0384  2B86               	goto	u173_20
  6788     0385                     u173_21:
  6789     0385  2B8C               	goto	i1l2280
  6790     0386                     u173_20:
  6791     0386                     i1l2278:
  6792                           
  6793                           ;mcc_generated_files/eusart.c: 232:         EUSART_ErrorHandler();
  6794     0386  0823               	movf	_EUSART_ErrorHandler+1,w
  6795     0387  008A               	movwf	10
  6796     0388  0822               	movf	_EUSART_ErrorHandler,w
  6797     0389  000A               	callw
  6798     038A  3183               	pagesel	$
  6799                           
  6800                           ;mcc_generated_files/eusart.c: 233:     } else {
  6801     038B  2B8F               	goto	i1l331
  6802     038C                     i1l2280:
  6803                           
  6804                           ;mcc_generated_files/eusart.c: 234:         EUSART_RxDataHandler();
  6805     038C  3185  25AA  3183   	fcall	_EUSART_RxDataHandler
  6806     038F                     i1l331:
  6807     038F  0008               	return
  6808     0390                     __end_of_EUSART_Receive_ISR:
  6809                           
  6810                           	psect	text48
  6811     06B8                     __ptext48:	
  6812 ;; *************** function _EUSART_DefaultOverrunErrorHandler *****************
  6813 ;; Defined at:
  6814 ;;		line 252 in file "mcc_generated_files/eusart.c"
  6815 ;; Parameters:    Size  Location     Type
  6816 ;;		None
  6817 ;; Auto vars:     Size  Location     Type
  6818 ;;		None
  6819 ;; Return value:  Size  Location     Type
  6820 ;;                  1    wreg      void 
  6821 ;; Registers used:
  6822 ;;		None
  6823 ;; Tracked objects:
  6824 ;;		On entry : 0/0
  6825 ;;		On exit  : 0/0
  6826 ;;		Unchanged: 0/0
  6827 ;; Data sizes:     COMMON   BANK0   BANK1   BANK2   BANK3   BANK4   BANK5   BANK6
  6828 ;;      Params:         0       0       0       0       0       0       0       0
  6829 ;;      Locals:         0       0       0       0       0       0       0       0
  6830 ;;      Temps:          0       0       0       0       0       0       0       0
  6831 ;;      Totals:         0       0       0       0       0       0       0       0
  6832 ;;Total ram usage:        0 bytes
  6833 ;; Hardware stack levels used: 1
  6834 ;; This function calls:
  6835 ;;		Nothing
  6836 ;; This function is called by:
  6837 ;;		_EUSART_Initialize
  6838 ;;		_EUSART_Receive_ISR
  6839 ;; This function uses a non-reentrant model
  6840 ;;
  6841                           
  6842     06B8                     _EUSART_DefaultOverrunErrorHandler:	
  6843                           ;psect for function _EUSART_DefaultOverrunErrorHandler
  6844                           
  6845     06B8                     i1l2158:	
  6846                           ;incstack = 0
  6847                           ; Regs used in _EUSART_DefaultOverrunErrorHandler: []
  6848                           
  6849                           
  6850                           ;mcc_generated_files/eusart.c: 255:     RCSTAbits.CREN = 0;
  6851     06B8  0023               	movlb	3	; select bank3
  6852     06B9  121D               	bcf	29,4	;volatile
  6853                           
  6854                           ;mcc_generated_files/eusart.c: 256:     RCSTAbits.CREN = 1;
  6855     06BA  161D               	bsf	29,4	;volatile
  6856     06BB                     i1l341:
  6857     06BB  0008               	return
  6858     06BC                     __end_of_EUSART_DefaultOverrunErrorHandler:
  6859                           
  6860                           	psect	text49
  6861     06C5                     __ptext49:	
  6862 ;; *************** function _EUSART_DefaultFramingErrorHandler *****************
  6863 ;; Defined at:
  6864 ;;		line 250 in file "mcc_generated_files/eusart.c"
  6865 ;; Parameters:    Size  Location     Type
  6866 ;;		None
  6867 ;; Auto vars:     Size  Location     Type
  6868 ;;		None
  6869 ;; Return value:  Size  Location     Type
  6870 ;;                  1    wreg      void 
  6871 ;; Registers used:
  6872 ;;		None
  6873 ;; Tracked objects:
  6874 ;;		On entry : 0/0
  6875 ;;		On exit  : 0/0
  6876 ;;		Unchanged: 0/0
  6877 ;; Data sizes:     COMMON   BANK0   BANK1   BANK2   BANK3   BANK4   BANK5   BANK6
  6878 ;;      Params:         0       0       0       0       0       0       0       0
  6879 ;;      Locals:         0       0       0       0       0       0       0       0
  6880 ;;      Temps:          0       0       0       0       0       0       0       0
  6881 ;;      Totals:         0       0       0       0       0       0       0       0
  6882 ;;Total ram usage:        0 bytes
  6883 ;; Hardware stack levels used: 1
  6884 ;; This function calls:
  6885 ;;		Nothing
  6886 ;; This function is called by:
  6887 ;;		_EUSART_Initialize
  6888 ;;		_EUSART_Receive_ISR
  6889 ;; This function uses a non-reentrant model
  6890 ;;
  6891                           
  6892     06C5                     _EUSART_DefaultFramingErrorHandler:	
  6893                           ;psect for function _EUSART_DefaultFramingErrorHandler
  6894                           
  6895     06C5                     i1l338:	
  6896                           ;incstack = 0
  6897                           ; Regs used in _EUSART_DefaultFramingErrorHandler: []
  6898                           
  6899     06C5  0008               	return
  6900     06C6                     __end_of_EUSART_DefaultFramingErrorHandler:
  6901                           
  6902                           	psect	text50
  6903     06BC                     __ptext50:	
  6904 ;; *************** function _EUSART_DefaultErrorHandler *****************
  6905 ;; Defined at:
  6906 ;;		line 260 in file "mcc_generated_files/eusart.c"
  6907 ;; Parameters:    Size  Location     Type
  6908 ;;		None
  6909 ;; Auto vars:     Size  Location     Type
  6910 ;;		None
  6911 ;; Return value:  Size  Location     Type
  6912 ;;                  1    wreg      void 
  6913 ;; Registers used:
  6914 ;;		wreg, fsr1l, fsr1h, status,2, status,0, pclath, cstack
  6915 ;; Tracked objects:
  6916 ;;		On entry : 0/0
  6917 ;;		On exit  : 0/0
  6918 ;;		Unchanged: 0/0
  6919 ;; Data sizes:     COMMON   BANK0   BANK1   BANK2   BANK3   BANK4   BANK5   BANK6
  6920 ;;      Params:         0       0       0       0       0       0       0       0
  6921 ;;      Locals:         0       0       0       0       0       0       0       0
  6922 ;;      Temps:          0       0       0       0       0       0       0       0
  6923 ;;      Totals:         0       0       0       0       0       0       0       0
  6924 ;;Total ram usage:        0 bytes
  6925 ;; Hardware stack levels used: 1
  6926 ;; Hardware stack levels required when called: 1
  6927 ;; This function calls:
  6928 ;;		_EUSART_RxDataHandler
  6929 ;; This function is called by:
  6930 ;;		_EUSART_Initialize
  6931 ;;		_EUSART_Receive_ISR
  6932 ;; This function uses a non-reentrant model
  6933 ;;
  6934                           
  6935     06BC                     _EUSART_DefaultErrorHandler:	
  6936                           ;psect for function _EUSART_DefaultErrorHandler
  6937                           
  6938     06BC                     i1l2160:	
  6939                           ;incstack = 0
  6940                           ; Regs used in _EUSART_DefaultErrorHandler: [wreg+fsr1l+fsr1h+status,2+status,0+pclath+c
      +                          stack]
  6941                           
  6942                           
  6943                           ;mcc_generated_files/eusart.c: 261:     EUSART_RxDataHandler();
  6944     06BC  3185  25AA  3186   	fcall	_EUSART_RxDataHandler
  6945     06BF                     i1l344:
  6946     06BF  0008               	return
  6947     06C0                     __end_of_EUSART_DefaultErrorHandler:
  6948                           
  6949                           	psect	text51
  6950     05AA                     __ptext51:	
  6951 ;; *************** function _EUSART_RxDataHandler *****************
  6952 ;; Defined at:
  6953 ;;		line 240 in file "mcc_generated_files/eusart.c"
  6954 ;; Parameters:    Size  Location     Type
  6955 ;;		None
  6956 ;; Auto vars:     Size  Location     Type
  6957 ;;		None
  6958 ;; Return value:  Size  Location     Type
  6959 ;;                  1    wreg      void 
  6960 ;; Registers used:
  6961 ;;		wreg, fsr1l, fsr1h, status,2, status,0
  6962 ;; Tracked objects:
  6963 ;;		On entry : 0/0
  6964 ;;		On exit  : 0/0
  6965 ;;		Unchanged: 0/0
  6966 ;; Data sizes:     COMMON   BANK0   BANK1   BANK2   BANK3   BANK4   BANK5   BANK6
  6967 ;;      Params:         0       0       0       0       0       0       0       0
  6968 ;;      Locals:         0       0       0       0       0       0       0       0
  6969 ;;      Temps:          1       0       0       0       0       0       0       0
  6970 ;;      Totals:         1       0       0       0       0       0       0       0
  6971 ;;Total ram usage:        1 bytes
  6972 ;; Hardware stack levels used: 1
  6973 ;; This function calls:
  6974 ;;		Nothing
  6975 ;; This function is called by:
  6976 ;;		_EUSART_Receive_ISR
  6977 ;;		_EUSART_DefaultErrorHandler
  6978 ;; This function uses a non-reentrant model
  6979 ;;
  6980                           
  6981     05AA                     _EUSART_RxDataHandler:	
  6982                           ;psect for function _EUSART_RxDataHandler
  6983                           
  6984     05AA                     i1l1984:	
  6985                           ;incstack = 0
  6986                           ; Regs used in _EUSART_RxDataHandler: [wreg+fsr1l+fsr1h+status,2+status,0]
  6987                           
  6988                           
  6989                           ;mcc_generated_files/eusart.c: 242:     eusartRxBuffer[eusartRxHead++] = RCREG;
  6990     05AA  0020               	movlb	0	; select bank0
  6991     05AB  0836               	movf	_eusartRxHead,w
  6992     05AC  3EA8               	addlw	(low (_eusartRxBuffer| 0))& (0+255)
  6993     05AD  0086               	movwf	6
  6994     05AE  0187               	clrf	7
  6995     05AF  0023               	movlb	3	; select bank3
  6996     05B0  0819               	movf	25,w	;volatile
  6997     05B1  0081               	movwf	1
  6998     05B2                     i1l1986:
  6999     05B2  3001               	movlw	1
  7000     05B3  00F0               	movwf	??_EUSART_RxDataHandler
  7001     05B4  0870               	movf	??_EUSART_RxDataHandler,w
  7002     05B5  0020               	movlb	0	; select bank0
  7003     05B6  07B6               	addwf	_eusartRxHead,f	;volatile
  7004     05B7                     i1l1988:
  7005                           
  7006                           ;mcc_generated_files/eusart.c: 243:     if(sizeof(eusartRxBuffer) <= eusartRxHead)
  7007     05B7  3008               	movlw	8
  7008     05B8  0236               	subwf	_eusartRxHead,w	;volatile
  7009     05B9  1C03               	skipc
  7010     05BA  2DBC               	goto	u141_21
  7011     05BB  2DBD               	goto	u141_20
  7012     05BC                     u141_21:
  7013     05BC  2DBE               	goto	i1l1992
  7014     05BD                     u141_20:
  7015     05BD                     i1l1990:
  7016                           
  7017                           ;mcc_generated_files/eusart.c: 244:     {;mcc_generated_files/eusart.c: 245:         eus
      +                          artRxHead = 0;
  7018     05BD  01B6               	clrf	_eusartRxHead	;volatile
  7019     05BE                     i1l1992:
  7020                           
  7021                           ;mcc_generated_files/eusart.c: 247:     eusartRxCount++;
  7022     05BE  3001               	movlw	1
  7023     05BF  00F0               	movwf	??_EUSART_RxDataHandler
  7024     05C0  0870               	movf	??_EUSART_RxDataHandler,w
  7025     05C1  07B4               	addwf	_eusartRxCount,f	;volatile
  7026     05C2                     i1l335:
  7027     05C2  0008               	return
  7028     05C3                     __end_of_EUSART_RxDataHandler:
  7029     007E                     btemp	set	126	;btemp
  7030     007E                     int$flags	set	126
  7031     007E                     wtemp0	set	126
  7032                           
  7033                           	psect	config
  7034                           
  7035                           ;Config register CONFIG1 @ 0x8007
  7036                           ;	Oscillator Selection
  7037                           ;	FOSC = INTOSC, INTOSC oscillator: I/O function on CLKIN pin
  7038                           ;	Watchdog Timer Enable
  7039                           ;	WDTE = OFF, WDT disabled
  7040                           ;	Power-up Timer Enable
  7041                           ;	PWRTE = OFF, PWRT disabled
  7042                           ;	MCLR Pin Function Select
  7043                           ;	MCLRE = ON, MCLR/VPP pin function is MCLR
  7044                           ;	Flash Program Memory Code Protection
  7045                           ;	CP = OFF, Program memory code protection is disabled
  7046                           ;	Data Memory Code Protection
  7047                           ;	CPD = OFF, Data memory code protection is disabled
  7048                           ;	Brown-out Reset Enable
  7049                           ;	BOREN = ON, Brown-out Reset enabled
  7050                           ;	Clock Out Enable
  7051                           ;	CLKOUTEN = OFF, CLKOUT function is disabled. I/O or oscillator function on the CLKOUT 
      +                          pin
  7052                           ;	Internal/External Switchover
  7053                           ;	IESO = ON, Internal/External Switchover mode is enabled
  7054                           ;	Fail-Safe Clock Monitor Enable
  7055                           ;	FCMEN = ON, Fail-Safe Clock Monitor is enabled
  7056     8007                     	org	32775
  7057     8007  3FE4               	dw	16356
  7058                           
  7059                           ;Config register CONFIG2 @ 0x8008
  7060                           ;	Flash Memory Self-Write Protection
  7061                           ;	WRT = OFF, Write protection off
  7062                           ;	Voltage Regulator Capacitor Enable
  7063                           ;	VCAPEN = OFF, All VCAP pin functionality is disabled
  7064                           ;	PLL Enable
  7065                           ;	PLLEN = ON, 4x PLL enabled
  7066                           ;	Stack Overflow/Underflow Reset Enable
  7067                           ;	STVREN = ON, Stack Overflow or Underflow will cause a Reset
  7068                           ;	Brown-out Reset Voltage Selection
  7069                           ;	BORV = LO, Brown-out Reset Voltage (Vbor), low trip point selected.
  7070                           ;	Low-Voltage Programming Enable
  7071                           ;	LVP = OFF, High-voltage on MCLR/VPP must be used for programming
  7072     8008                     	org	32776
  7073     8008  1FFF               	dw	8191

Data Sizes:
    Strings     0
    Constant    6
    Data        1
    BSS         91
    Persistent  32
    Stack       0

Auto Spaces:
    Space          Size  Autos    Used
    COMMON           14     14      14
    BANK0            80     21      66
    BANK1            80      9      56
    BANK2            80      0       0
    BANK3            80      0       0
    BANK4            80      0       0
    BANK5            80      0       0
    BANK6            16      0       0

Pointer List with Targets:

    EUSART_ErrorHandler	PTR FTN()void  size(2) Largest target is 1
		 -> EUSART_DefaultErrorHandler(), NULL(), 

    EUSART_FramingErrorHandler	PTR FTN()void  size(2) Largest target is 1
		 -> EUSART_DefaultFramingErrorHandler(), NULL(), 

    EUSART_OverrunErrorHandler	PTR FTN()void  size(2) Largest target is 1
		 -> EUSART_DefaultOverrunErrorHandler(), NULL(), 

    EUSART_RxDefaultInterruptHandler	PTR FTN()void  size(2) Largest target is 1
		 -> EUSART_Receive_ISR(), NULL(), 

    EUSART_SetErrorHandler@interruptHandler	PTR FTN()void  size(2) Largest target is 1
		 -> EUSART_DefaultErrorHandler(), 

    EUSART_SetFramingErrorHandler@interruptHandler	PTR FTN()void  size(2) Largest target is 1
		 -> EUSART_DefaultFramingErrorHandler(), 

    EUSART_SetOverrunErrorHandler@interruptHandler	PTR FTN()void  size(2) Largest target is 1
		 -> EUSART_DefaultOverrunErrorHandler(), 

    EUSART_SetRxInterruptHandler@interruptHandler	PTR FTN()void  size(2) Largest target is 1
		 -> EUSART_Receive_ISR(), 

    EUSART_SetTxInterruptHandler@interruptHandler	PTR FTN()void  size(2) Largest target is 1
		 -> EUSART_Transmit_ISR(), 

    EUSART_TxDefaultInterruptHandler	PTR FTN()void  size(2) Largest target is 1
		 -> EUSART_Transmit_ISR(), NULL(), 

    LIN_getChecksum@data	PTR unsigned char  size(1) Largest target is 12
		 -> LIN_packet(BANK1[11]), LIN_rxPacket(BANK1[12]), 

    LIN_getPacket@data	PTR unsigned char  size(1) Largest target is 8
		 -> processLIN@tempRxData(BANK1[8]), 

    LIN_init@processData	PTR FTN()void  size(2) Largest target is 1
		 -> processLIN(), 

    LIN_init@table	const PTR const struct . size(2) Largest target is 7
		 -> scheduleTable(CODE[6]), 

    LIN_processData	PTR FTN()void  size(2) Largest target is 1
		 -> processLIN(), NULL(), 

    LIN_queuePacket@data	PTR unsigned char  size(1) Largest target is 8
		 -> SW_STATE_Data(BANK0[8]), 

    LIN_queuePacket@tempSchedule	PTR const struct . size(2) Largest target is 7
		 -> scheduleTable(CODE[6]), NULL(NULL[0]), 

    LIN_queuePacket@tempSchedule$data	PTR unsigned char  size(1) Largest target is 8
		 -> SW_STATE_Data(BANK0[8]), 

    LIN_sendPeriodicTx@periodicTx	PTR const struct . size(2) Largest target is 7
		 -> scheduleTable(CODE[6]), NULL(NULL[0]), 

    LIN_sendPeriodicTx@periodicTx$data	PTR unsigned char  size(1) Largest target is 8
		 -> SW_STATE_Data(BANK0[8]), 

    memcpy@d	PTR unsigned char  size(1) Largest target is 11
		 -> LIN_packet(BANK1[11]), processLIN@tempRxData(BANK1[8]), 

    memcpy@d1	PTR void  size(1) Largest target is 11
		 -> LIN_packet(BANK1[11]), processLIN@tempRxData(BANK1[8]), 

    memcpy@s	PTR const unsigned char  size(1) Largest target is 12
		 -> LIN_rxPacket(BANK1[12]), LIN_rxPacket$data(BANK1[8]), SW_STATE_Data(BANK0[8]), 

    memcpy@s1	PTR const void  size(1) Largest target is 12
		 -> LIN_rxPacket(BANK1[12]), LIN_rxPacket$data(BANK1[8]), SW_STATE_Data(BANK0[8]), 

    memset@dest	PTR void  size(1) Largest target is 12
		 -> LIN_packet(BANK1[11]), LIN_rxPacket(BANK1[12]), 

    memset@p	PTR unsigned char  size(1) Largest target is 12
		 -> LIN_packet(BANK1[11]), LIN_rxPacket(BANK1[12]), 

    S43$data	PTR unsigned char  size(1) Largest target is 8
		 -> SW_STATE_Data(BANK0[8]), 

    schedule	PTR const struct . size(2) Largest target is 7
		 -> scheduleTable(CODE[6]), NULL(NULL[0]), 

    schedule$data	PTR unsigned char  size(1) Largest target is 8
		 -> SW_STATE_Data(BANK0[8]), 

    scheduleTable$data	PTR unsigned char  size(1) Largest target is 8
		 -> SW_STATE_Data(BANK0[8]), 

    sp__memcpy	PTR void  size(1) Largest target is 11
		 -> LIN_packet(BANK1[11]), processLIN@tempRxData(BANK1[8]), 

    sp__memset	PTR void  size(1) Largest target is 12
		 -> LIN_packet(BANK1[11]), LIN_rxPacket(BANK1[12]), 

    TMR0_InterruptHandler	PTR FTN()void  size(2) Largest target is 1
		 -> LIN_timerHandler(), TMR0_DefaultInterruptHandler(), NULL(), 

    TMR0_SetInterruptHandler@InterruptHandler	PTR FTN()void  size(2) Largest target is 1
		 -> LIN_timerHandler(), TMR0_DefaultInterruptHandler(), 


Critical Paths under _main in COMMON

    None.

Critical Paths under _INTERRUPT_InterruptManager in COMMON

    _TMR0_ISR->_LIN_timerHandler
    _LIN_sendPeriodicTx->_LIN_queuePacket
    _LIN_queuePacket->i1_LIN_getChecksum
    _LIN_queuePacket->i1_memcpy
    _EUSART_Receive_ISR->_EUSART_RxDataHandler
    _EUSART_DefaultErrorHandler->_EUSART_RxDataHandler

Critical Paths under _main in BANK0

    _main->_LIN_handler
    _TMR0_Initialize->_TMR0_SetInterruptHandler
    _LIN_Master_Initialize->_LIN_init
    _LIN_setTimerHandler->_TMR0_SetInterruptHandler
    _EUSART_Initialize->_EUSART_SetErrorHandler
    _EUSART_Initialize->_EUSART_SetFramingErrorHandler
    _EUSART_Initialize->_EUSART_SetOverrunErrorHandler
    _EUSART_Initialize->_EUSART_SetRxInterruptHandler
    _EUSART_Initialize->_EUSART_SetTxInterruptHandler
    _processLIN->_LIN_getPacket
    _LIN_getPacket->_memcpy
    _LIN_startTimer->_TMR0_WriteTimer
    _LIN_sendPacket->_EUSART_Write
    _LIN_receivePacket->_LIN_getChecksum

Critical Paths under _INTERRUPT_InterruptManager in BANK0

    _LIN_timerHandler->_LIN_sendPeriodicTx
    _LIN_sendPeriodicTx->_LIN_queuePacket

Critical Paths under _main in BANK1

    _LIN_handler->_processLIN

Critical Paths under _INTERRUPT_InterruptManager in BANK1

    None.

Critical Paths under _main in BANK2

    None.

Critical Paths under _INTERRUPT_InterruptManager in BANK2

    None.

Critical Paths under _main in BANK3

    None.

Critical Paths under _INTERRUPT_InterruptManager in BANK3

    None.

Critical Paths under _main in BANK4

    None.

Critical Paths under _INTERRUPT_InterruptManager in BANK4

    None.

Critical Paths under _main in BANK5

    None.

Critical Paths under _INTERRUPT_InterruptManager in BANK5

    None.

Critical Paths under _main in BANK6

    None.

Critical Paths under _INTERRUPT_InterruptManager in BANK6

    None.

Call Graph Tables:

 ---------------------------------------------------------------------------------
 (Depth) Function   	        Calls       Base Space   Used Autos Params    Refs
 ---------------------------------------------------------------------------------
 (0) _main                                                 0     0      0    3882
                        _LIN_handler
                  _SYSTEM_Initialize
 ---------------------------------------------------------------------------------
 (1) _SYSTEM_Initialize                                    0     0      0    1111
                  _EUSART_Initialize
              _LIN_Master_Initialize
              _OSCILLATOR_Initialize
             _PIN_MANAGER_Initialize
                    _TMR0_Initialize
                     _WDT_Initialize
 ---------------------------------------------------------------------------------
 (2) _WDT_Initialize                                       0     0      0       0
 ---------------------------------------------------------------------------------
 (2) _TMR0_Initialize                                      0     0      0     174
           _TMR0_SetInterruptHandler
 ---------------------------------------------------------------------------------
 (2) _PIN_MANAGER_Initialize                               0     0      0       0
 ---------------------------------------------------------------------------------
 (2) _OSCILLATOR_Initialize                                0     0      0       0
 ---------------------------------------------------------------------------------
 (2) _LIN_Master_Initialize                                0     0      0     447
                           _LIN_init
 ---------------------------------------------------------------------------------
 (3) _LIN_init                                             5     1      4     447
                                             11 BANK0      5     1      4
                _LIN_setTimerHandler
                    _LIN_startPeriod
                      _LIN_stopTimer
 ---------------------------------------------------------------------------------
 (4) _LIN_stopTimer                                        0     0      0       0
 ---------------------------------------------------------------------------------
 (4) _LIN_startPeriod                                      0     0      0       0
 ---------------------------------------------------------------------------------
 (4) _LIN_setTimerHandler                                  0     0      0     174
           _TMR0_SetInterruptHandler
 ---------------------------------------------------------------------------------
 (3) _TMR0_SetInterruptHandler                             2     0      2     174
                                              9 BANK0      2     0      2
 ---------------------------------------------------------------------------------
 (2) _EUSART_Initialize                                    0     0      0     490
             _EUSART_SetErrorHandler
      _EUSART_SetFramingErrorHandler
      _EUSART_SetOverrunErrorHandler
       _EUSART_SetRxInterruptHandler
       _EUSART_SetTxInterruptHandler
 ---------------------------------------------------------------------------------
 (3) _EUSART_SetTxInterruptHandler                         2     0      2      98
                                              9 BANK0      2     0      2
 ---------------------------------------------------------------------------------
 (3) _EUSART_SetRxInterruptHandler                         2     0      2      98
                                              9 BANK0      2     0      2
 ---------------------------------------------------------------------------------
 (3) _EUSART_SetOverrunErrorHandler                        2     0      2      98
                                              9 BANK0      2     0      2
 ---------------------------------------------------------------------------------
 (3) _EUSART_SetFramingErrorHandler                        2     0      2      98
                                              9 BANK0      2     0      2
 ---------------------------------------------------------------------------------
 (3) _EUSART_SetErrorHandler                               2     0      2      98
                                              9 BANK0      2     0      2
 ---------------------------------------------------------------------------------
 (1) _LIN_handler                                          2     2      0    2771
                                             19 BANK0      2     2      0
                                NULL *
                 _EUSART_is_rx_ready
                      _LIN_disableRx
                       _LIN_enableRx
                  _LIN_receivePacket
                     _LIN_sendPacket
                     _LIN_startTimer
                             _memset
                         _processLIN *
 ---------------------------------------------------------------------------------
 (2) _processLIN                                           9     9      0    1463
                                              0 BANK1      9     9      0
                      _LIN_getPacket
 ---------------------------------------------------------------------------------
 (3) _LIN_getPacket                                        2     2      0    1386
                                             17 BANK0      2     2      0
                             _memcpy
                             _memset
 ---------------------------------------------------------------------------------
 (4) _memset                                               7     3      4     715
                                              9 BANK0      7     3      4
 ---------------------------------------------------------------------------------
 (4) _memcpy                                               8     5      3     570
                                              9 BANK0      8     5      3
 ---------------------------------------------------------------------------------
 (2) _LIN_startTimer                                       1     1      0      44
                                             10 BANK0      1     1      0
                    _TMR0_WriteTimer
 ---------------------------------------------------------------------------------
 (3) _TMR0_WriteTimer                                      1     1      0      22
                                              9 BANK0      1     1      0
 ---------------------------------------------------------------------------------
 (2) _LIN_sendPacket                                       2     2      0      90
                                             11 BANK0      2     2      0
                       _EUSART_Write
                      _LIN_sendBreak
 ---------------------------------------------------------------------------------
 (3) _LIN_sendBreak                                        0     0      0       0
 ---------------------------------------------------------------------------------
 (3) _EUSART_Write                                         2     2      0      44
                                              9 BANK0      2     2      0
 ---------------------------------------------------------------------------------
 (2) _LIN_receivePacket                                    1     1      0     459
                                             17 BANK0      1     1      0
                        _EUSART_Read
                    _LIN_getChecksum
 ---------------------------------------------------------------------------------
 (3) _LIN_getChecksum                                      8     6      2     435
                                              9 BANK0      8     6      2
 ---------------------------------------------------------------------------------
 (3) _EUSART_Read                                          2     2      0      24
                                              9 BANK0      2     2      0
 ---------------------------------------------------------------------------------
 (2) _LIN_enableRx                                         0     0      0       0
 ---------------------------------------------------------------------------------
 (2) _LIN_disableRx                                        0     0      0       0
 ---------------------------------------------------------------------------------
 (2) _EUSART_is_rx_ready                                   0     0      0       0
 ---------------------------------------------------------------------------------
 (8) NULL(Fake)                                            0     0      0       0
 ---------------------------------------------------------------------------------
 Estimated maximum stack depth 8
 ---------------------------------------------------------------------------------
 (Depth) Function   	        Calls       Base Space   Used Autos Params    Refs
 ---------------------------------------------------------------------------------
 (6) _INTERRUPT_InterruptManager                           0     0      0    2444
                                NULL *
                 _EUSART_Receive_ISR *
                _EUSART_Transmit_ISR *
                           _TMR0_ISR
 ---------------------------------------------------------------------------------
 (7) _TMR0_ISR                                             0     0      0    2444
                                NULL *
                   _LIN_timerHandler *
       _TMR0_DefaultInterruptHandler *
 ---------------------------------------------------------------------------------
 (8) _TMR0_DefaultInterruptHandler                         0     0      0       0
 ---------------------------------------------------------------------------------
 (8) _LIN_timerHandler                                     1     1      0    2444
                                             13 COMMON     1     1      0
                 _LIN_sendPeriodicTx
                    i1_LIN_stopTimer
 ---------------------------------------------------------------------------------
 (9) i1_LIN_stopTimer                                      0     0      0       0
 ---------------------------------------------------------------------------------
 (9) _LIN_sendPeriodicTx                                   5     5      0    2444
                                              4 BANK0      5     5      0
                    _LIN_queuePacket
                             ___wmul
 ---------------------------------------------------------------------------------
 (10) ___wmul                                              6     2      4     496
                                              0 COMMON     6     2      4
 ---------------------------------------------------------------------------------
 (10) _LIN_queuePacket                                     9     8      1    1787
                                              8 COMMON     5     4      1
                                              0 BANK0      4     4      0
                     _LIN_calcParity
                  i1_LIN_getChecksum
                           i1_memcpy
                           i1_memset
 ---------------------------------------------------------------------------------
 (11) i1_memset                                            7     3      4     207
                                              0 COMMON     7     3      4
 ---------------------------------------------------------------------------------
 (11) i1_memcpy                                            8     5      3     278
                                              0 COMMON     8     5      3
 ---------------------------------------------------------------------------------
 (11) i1_LIN_getChecksum                                   8     6      2     339
                                              0 COMMON     8     6      2
 ---------------------------------------------------------------------------------
 (11) _LIN_calcParity                                      3     3      0     489
                                              0 COMMON     3     3      0
 ---------------------------------------------------------------------------------
 (7) _EUSART_Transmit_ISR                                  1     1      0       0
                                              0 COMMON     1     1      0
 ---------------------------------------------------------------------------------
 (7) _EUSART_Receive_ISR                                   0     0      0       0
                                NULL *
         _EUSART_DefaultErrorHandler *
  _EUSART_DefaultFramingErrorHandler *
  _EUSART_DefaultOverrunErrorHandler *
               _EUSART_RxDataHandler
 ---------------------------------------------------------------------------------
 (8) _EUSART_DefaultOverrunErrorHandler                    0     0      0       0
 ---------------------------------------------------------------------------------
 (8) _EUSART_DefaultFramingErrorHandler                    0     0      0       0
 ---------------------------------------------------------------------------------
 (8) _EUSART_DefaultErrorHandler                           0     0      0       0
               _EUSART_RxDataHandler
 ---------------------------------------------------------------------------------
 (8) _EUSART_RxDataHandler                                 1     1      0       0
                                              0 COMMON     1     1      0
 ---------------------------------------------------------------------------------
 (8) NULL(Fake)                                            0     0      0       0
 ---------------------------------------------------------------------------------
 Estimated maximum stack depth 11
 ---------------------------------------------------------------------------------

 Call Graph Graphs:

 _main (ROOT)
   _LIN_handler
     NULL(Fake) *
     _EUSART_is_rx_ready *
     _LIN_disableRx *
     _LIN_enableRx *
     _LIN_receivePacket *
       _EUSART_Read
       _LIN_getChecksum
     _LIN_sendPacket *
       _EUSART_Write
       _LIN_sendBreak
     _LIN_startTimer *
       _TMR0_WriteTimer
     _memset *
     _processLIN *
       _LIN_getPacket
         _memcpy
         _memset
   _SYSTEM_Initialize
     _EUSART_Initialize
       _EUSART_SetErrorHandler
       _EUSART_SetFramingErrorHandler
       _EUSART_SetOverrunErrorHandler
       _EUSART_SetRxInterruptHandler
       _EUSART_SetTxInterruptHandler
     _LIN_Master_Initialize
       _LIN_init
         _LIN_setTimerHandler
           _TMR0_SetInterruptHandler
         _LIN_startPeriod
         _LIN_stopTimer
     _OSCILLATOR_Initialize
     _PIN_MANAGER_Initialize
     _TMR0_Initialize
       _TMR0_SetInterruptHandler
     _WDT_Initialize

 _INTERRUPT_InterruptManager (ROOT)
   NULL(Fake) *
   _EUSART_Receive_ISR *
     NULL(Fake) *
     _EUSART_DefaultErrorHandler *
       _EUSART_RxDataHandler
     _EUSART_DefaultFramingErrorHandler *
     _EUSART_DefaultOverrunErrorHandler *
     _EUSART_RxDataHandler *
   _EUSART_Transmit_ISR *
   _TMR0_ISR *
     NULL(Fake) *
     _LIN_timerHandler *
       _LIN_sendPeriodicTx
         _LIN_queuePacket
           _LIN_calcParity
           i1_LIN_getChecksum
           i1_memcpy
           i1_memset
         ___wmul
       i1_LIN_stopTimer
     _TMR0_DefaultInterruptHandler *

 Address spaces:
Name               Size   Autos  Total    Cost      Usage
BIGRAM             1F0      0       0       0        0.0%
EEDATA             100      0       0       0        0.0%
NULL                 0      0       0       0        0.0%
CODE                 0      0       0       0        0.0%
BITCOMMON            E      0       0       1        0.0%
BITSFR0              0      0       0       1        0.0%
SFR0                 0      0       0       1        0.0%
COMMON               E      E       E       2      100.0%
BITSFR1              0      0       0       2        0.0%
SFR1                 0      0       0       2        0.0%
BITSFR2              0      0       0       3        0.0%
SFR2                 0      0       0       3        0.0%
STACK                0      0       0       3        0.0%
BITSFR3              0      0       0       4        0.0%
SFR3                 0      0       0       4        0.0%
ABS                  0      0      88       4        0.0%
BITBANK0            50      0       0       5        0.0%
BITSFR4              0      0       0       5        0.0%
SFR4                 0      0       0       5        0.0%
BANK0               50     15      42       6       82.5%
BITSFR5              0      0       0       6        0.0%
SFR5                 0      0       0       6        0.0%
BITBANK1            50      0       0       7        0.0%
BITSFR6              0      0       0       7        0.0%
SFR6                 0      0       0       7        0.0%
BANK1               50      9      38       8       70.0%
BITSFR7              0      0       0       8        0.0%
SFR7                 0      0       0       8        0.0%
BITBANK2            50      0       0       9        0.0%
BITSFR8              0      0       0       9        0.0%
SFR8                 0      0       0       9        0.0%
BANK2               50      0       0      10        0.0%
BITSFR9              0      0       0      10        0.0%
SFR9                 0      0       0      10        0.0%
BITBANK3            50      0       0      11        0.0%
BITSFR10             0      0       0      11        0.0%
SFR10                0      0       0      11        0.0%
BANK3               50      0       0      12        0.0%
BITSFR11             0      0       0      12        0.0%
SFR11                0      0       0      12        0.0%
BITBANK4            50      0       0      13        0.0%
BITSFR12             0      0       0      13        0.0%
SFR12                0      0       0      13        0.0%
BANK4               50      0       0      14        0.0%
BITSFR13             0      0       0      14        0.0%
SFR13                0      0       0      14        0.0%
BITBANK5            50      0       0      15        0.0%
BITSFR14             0      0       0      15        0.0%
SFR14                0      0       0      15        0.0%
BANK5               50      0       0      16        0.0%
BITSFR15             0      0       0      16        0.0%
SFR15                0      0       0      16        0.0%
BITBANK6            10      0       0      17        0.0%
BITSFR16             0      0       0      17        0.0%
SFR16                0      0       0      17        0.0%
BANK6               10      0       0      18        0.0%
BITSFR17             0      0       0      18        0.0%
SFR17                0      0       0      18        0.0%
BITSFR18             0      0       0      19        0.0%
SFR18                0      0       0      19        0.0%
DATA                 0      0      88      19        0.0%
BITSFR19             0      0       0      20        0.0%
SFR19                0      0       0      20        0.0%
BITSFR20             0      0       0      21        0.0%
SFR20                0      0       0      21        0.0%
BITSFR21             0      0       0      22        0.0%
SFR21                0      0       0      22        0.0%
BITSFR22             0      0       0      23        0.0%
SFR22                0      0       0      23        0.0%
BITSFR23             0      0       0      24        0.0%
SFR23                0      0       0      24        0.0%
BITSFR24             0      0       0      25        0.0%
SFR24                0      0       0      25        0.0%
BITSFR25             0      0       0      26        0.0%
SFR25                0      0       0      26        0.0%
BITSFR26             0      0       0      27        0.0%
SFR26                0      0       0      27        0.0%
BITSFR27             0      0       0      28        0.0%
SFR27                0      0       0      28        0.0%
BITSFR28             0      0       0      29        0.0%
SFR28                0      0       0      29        0.0%
BITSFR29             0      0       0      30        0.0%
SFR29                0      0       0      30        0.0%
BITSFR30             0      0       0      31        0.0%
SFR30                0      0       0      31        0.0%
BITSFR31             0      0       0      32        0.0%
SFR31                0      0       0      32        0.0%


Microchip Technology PIC Macro Assembler V2.46 build 20240104201356 
Symbol Table                                                                                   Fri Dec 05 09:29:13 2025

                ?_EUSART_SetRxInterruptHandler 0055                          __end_of_LIN_getPacket 053C  
                        ??_LIN_setTimerHandler 0057                          __end_of_LIN_disableRx 06A8  
                               _scheduleLength 0042                                             l77 05D8  
                                           l98 02AE                            ___wmul@multiplicand 0072  
                              _timer0ReloadVal 0032                                ?_LIN_calcParity 0070  
                                          l124 03C3                                            l140 063E  
                                          l117 03F7                                            l109 0312  
                                          l127 053B                                            l215 0656  
                                          l136 0428                                            l208 0631  
                                          l137 042B                                            l314 0466  
                                          l315 0470                                            l171 06AF  
                                          l180 06A2                                            l309 04AE  
                                          l318 0487                                            l350 068C  
                                          l174 06B3                                            l183 06A7  
                                          l168 065F                                            l353 0698  
                                          l186 06C2                                            l290 0355  
                                          l347 0692                                            l451 0613  
                                          l356 0680                                            l460 06AB  
                                          l454 0645                                            l390 058F  
                                          l359 0686                                            l296 0668  
                                          l457 064A                                            l483 069D  
                                          l493 067A                                            l477 0600  
                       ??_EUSART_RxDataHandler 0070                 ?_EUSART_SetFramingErrorHandler 0055  
                                          wreg 0009                          __end_of_scheduleTable 066F  
                                 ?_EUSART_Read 0070                                           l2000 0393  
                                         l2010 03A9                                           l2002 0397  
                                         l1123 04C8                                           l2012 03B1  
                                         l2004 039B                                           l2020 0636  
                                         l1132 0575                                           l2014 03B6  
                                         l2006 03A0                                           l2022 063A  
                                         l1126 04D4                                           l2040 03DD  
                                         l2032 03C4                                           l2016 03BE  
                                         l2008 03A6                                           l2024 063B  
                                         l2200 05F9                                           l2026 069E  
                                         l2042 03DE                                           l2034 03CC  
                                         l2018 0634                                           l2130 031D  
                                         l2028 0660                                           l2044 03F4  
                                         l2036 03D7                                           l2140 0330  
                                         l2132 0327                                           l2038 03DB  
                                         l2150 034C                                           l2142 0332  
                                         l2134 032A                                           l2126 0313  
                                         l2048 03F6                                           l2152 034D  
                                         l2144 033A                                           l2136 032C  
                                         l2128 0315                                           l2400 0657  
                                         l2154 034E                                           l2146 0342  
                                         l2138 032E                                           l2170 0582  
                                         l2162 0576                                           l2156 0353  
                                         l2148 034A                                           l2180 058D  
                                         l2172 0586                                           l2164 057B  
                                         l2182 063F                                           l2174 0588  
                                         l2166 057E                                           l2190 05ED  
                                         l2440 0565                                           l2600 02D2  
                                         l2184 0642                                           l2176 058A  
                                         l2168 0580                                           l2192 05F2  
                                         l2450 04BF                                           l2442 0569  
                                         l2610 02F5                                           l2602 02DE  
                                         l1810 06B0                                           l2186 0643  
                                         l2178 058B                                           l2194 05F5  
                                         l2444 04B1                                           l2436 055D  
                                         l2604 02E6                                           l2196 05F7  
                                         l2188 06A8                                           l1910 049E  
                                         l1902 0488                                           l2446 04B6  
                                         l2438 0560                                           l2606 02EE  
                                         l1806 06AC                                           l2470 05D5  
                                         l2198 05F8                                           l2630 0601  
                                         l1920 04AC                                           l1912 04A4  
                                         l1904 0488                                           l2448 04BB  
                                         l2472 051E                                           l2608 02F1  
                                         l2616 02FB                                           l1914 04A5  
                                         l1906 048E                                           l1930 046B  
                                         l2474 0523                                           l2466 05C5  
                                         l2650 05DC                                           l1916 04A7  
                                         l1908 049A                                           l1940 0483  
                                         l1932 0471                                           l1924 06C0  
                                         l2476 052D                                           l2572 0651  
                                         l2580 02A4                                           l2468 05CF  
                                         l2660 05E2                                           l2652 05DD  
                                         l1918 04AA                                           l1934 0478  
                                         l1942 0485                                           l1926 0461  
                                         l2478 0539                                           l2590 02BE  
                                         l2582 02A7                                           l2574 029D  
                                         l2566 0624                                           l2670 05E7  
                                         l2662 05E3                                           l2654 05DE  
                                         l1936 047C                                           l1928 0461  
                                         l2568 064B                                           l2592 02C2  
                                         l2584 02AA                                           l2576 029E  
                                         l1768 0675                                           l2664 05E4  
                                         l2656 05E0                                           l2648 05D9  
                                         l1890 0411                                           l1882 03FA  
                                         l1938 0482                                           l1954 069B  
                                         l2594 02C9                                           l2586 02B3  
                                         l2578 02A3                                           l2666 05E5  
                                         l2658 05E1                                           l1892 041A  
                                         l1884 0401                                           l2692 0304  
                                         l2596 02CC                                           l2588 02B8  
                                         l1980 0687                                           l2668 05E6  
                                         l1894 041E                                           l1886 0403  
                                         l2598 02D1                                           l1982 0693  
                                         l1974 0681                                           l1888 040D  
                                         l1896 0422                                           l1976 067B  
                                         l1898 042A                                           l1978 068D  
                                         l1996 06A3                                           l1998 0390  
                                         u1310 041A                                           u1311 0419  
                                         u1320 0428                                           u1321 0427  
                                         u1330 048E                                           u1331 048D  
                                         u1340 04A4                                           u1420 03A6  
                                         u1341 04A3                                           u1421 03A5  
                                         _LATA 010C                                           u1350 0466  
                                         u1430 03BE                                           _LATB 010D  
                                         u1351 0465                                           u1431 03BD  
                                         _LATC 010E                                           u1440 0667  
                                         u1360 046B                                           u2160 0575  
                                         u2400 02B8                                           u1441 0665  
                                         u1361 046A                                           u2161 0574  
                                         u2401 02B7                                           _LATE 0110  
                                         u1450 0668                                           u1370 0482  
                                         u2170 04D4                                           u2410 02BE  
                                         u1610 064A                                           u1371 0481  
                                         u2171 04D3                                           u2411 02BD  
                                         u1611 0649                                           u1460 03CC  
                                         u2420 02D1                                           u1461 03CB  
                                         u2421 02D0                                           u1470 03F4  
                                         u2430 02E6                                           u1471 03F3  
                                         u2431 02E5                                           u2440 02EE  
                                         u2441 02ED                                           u2380 02A3  
                                         u2381 02A2                                           u2390 02B3  
                                         u2391 02B2                                           i1l85 00D2  
                                         i1l88 010B                                           _PLLR 04D6  
                                         _TMR0 0015                                           _WPUB 020D  
                                         _WPUE 0210                                 _LIN_sendPacket 0390  
                        __end_of_LIN_sendBreak 06C3                                           _main 05D9  
                                         fsr0h 0005                                           fsr1h 0007  
                                         indf0 0000                                           fsr0l 0004  
                                         indf1 0001                                           fsr1l 0006  
                                         btemp 007E                                           start 0038  
                                processLIN@cmd 00D7                       LIN_receivePacket@rxIndex 003B  
                      __end_of_TMR0_Initialize 0601                 ??_TMR0_DefaultInterruptHandler 0070  
                                ?_EUSART_Write 0070                  __end_of_OSCILLATOR_Initialize 064B  
                                        ?_main 0070                                          i1l130 0221  
                                        i1l136 045B                                          i1l321 0519  
                                        i1l137 045E                                          i1l331 038F  
                                        i1l171 06B7                                          i1l324 051B  
                                        i1l341 06BB                                          i1l165 019B  
                                        i1l421 0036                                          i1l422 0036  
                                        i1l414 0012                                          i1l335 05C2  
                                        i1l344 06BF                                          i1l417 0026  
                                        i1l338 06C5                                     i1memcpy@d1 0074  
                                        i1l195 029C                                          i1l490 0623  
                              _TMR0_WriteTimer 0699                                          i1l664 0546  
                                        i1l496 06C4                                          i1l666 055A  
                                   i1memcpy@s1 0070                                          _RCREG 0199  
                                        _RCSTA 019D                                          _TRISA 008C  
                                        _TRISB 008D                                          _TRISC 008E  
                                        _TRISE 0090                                          _TXREG 019A  
                             __end_of_LIN_init 05D9                          __end_of_LIN_stopTimer 06B0  
                                        _TXSTA 019E                      ?_TMR0_SetInterruptHandler 0055  
                             __end_of_TMR0_ISR 0624                                 _WDT_Initialize 06A8  
                       __end_of_LIN_sendPacket 03C4                                          pclath 000A  
                               _LIN_startTimer 0632                                          status 0003  
                                        wtemp0 007E                               __end_ofi1_memcpy 04FA  
                             __end_ofi1_memset 05AA                         ?_LIN_Master_Initialize 0070  
                             ?_LIN_getChecksum 0055                    LIN_queuePacket@tempSchedule 004E  
                              __initialization 003A                                   ?_LIN_handler 0070  
                                 __end_of_main 05ED                                 ??_EUSART_Write 0055  
                  ?_INTERRUPT_InterruptManager 0070                 ??_EUSART_SetRxInterruptHandler 0057  
                                       ??_main 0061                         __end_of_WDT_Initialize 06AC  
    __end_of_EUSART_DefaultFramingErrorHandler 06C6            ??_EUSART_DefaultFramingErrorHandler 0070  
           ?_EUSART_DefaultFramingErrorHandler 0070              _EUSART_DefaultFramingErrorHandler 06C5  
                   _EUSART_OverrunErrorHandler 0024                         __end_of_LIN_startTimer 063F  
                              ?_LIN_sendPacket 0070                                         _APFCON 011D  
                                       _ANSELA 018C                                         _ANSELB 018D  
                   __end_of_EUSART_is_rx_ready 0669                                         _BORCON 0116  
                                       i1l1123 04ED                                         i1l1132 05A9  
                                       i1l1126 04F9                                         i1l2160 06BC  
                                       u200_20 0202                                         u200_21 0200  
                                       i1l2250 04FA                                         i1l2410 0065  
                                       i1l2402 0054                                         i1l2260 0514  
                                       i1l2252 0501                                         i1l2420 0089  
                                       i1l2412 0069                                         i1l2404 0058  
                                       i1l2500 010C                                         i1l2158 06B8  
                                       i1l2270 036C                                         i1l2262 0356  
                                       i1l2254 0508                                         i1l2430 00D7  
                                       i1l2422 009A                                         i1l2406 005A  
                                       i1l2414 006D                                         i1l2510 012F  
                                       i1l2502 0112                                         i1l2280 038C  
                                       i1l2272 0371                                         i1l2264 035C  
                                       i1l2256 050D                                         i1l2360 0220  
                                       i1l2424 00AA                                         i1l2432 00E3  
                                       i1l2416 0073                                         i1l2520 0148  
                                       i1l2512 0132                                         i1l2504 011C  
                                       i1l2274 0377                                         i1l2266 0361  
                                       i1l2258 0513                                         i1l2370 0440  
                                       i1l2434 0108                                         i1l2426 00B8  
                                       i1l2418 007E                                         i1l2530 0155  
                                       i1l2522 0149                                         i1l2514 013C  
                                       i1l2506 011F                                         i1l2276 037C  
                                       i1l2268 0367                                         u201_24 0203  
                                       i1l2356 019D                                         i1l2380 045D  
                                       i1l2372 0444                                         i1l2364 042D  
                                       i1l2428 00D5                                         i1l2460 0550  
                                       i1l2452 053C                                         i1l2540 0166  
                                       i1l2532 015A                                         i1l2524 014E  
                                       i1l2516 0141                                         i1l2508 0125  
                                       i1l2278 0386                                         i1l2358 0217  
                                       i1l2374 044D                                         i1l2366 0434  
                                       i1l2390 04E4                                         i1l2462 0556  
                                       i1l2454 053E                                         i1l2550 0174  
                                       i1l2542 0167                                         i1l2534 015B  
                                       i1l2526 014F                                         i1l2518 0143  
                                       i1l2622 0614                                         u202_20 0208  
                                       i1l2376 0451                                         i1l2368 0436  
                                       u210_20 04F9                                         i1l2384 04D6  
                                       i1l2392 0591                                         i1l2456 0542  
                                       i1l2544 016C                                         i1l2552 0179  
                                       i1l2536 0160                                         i1l2528 0154  
                                       i1l2560 018D                                         i1l2624 0615  
                                       i1l2640 001B                                         i1l2632 0006  
                                       u202_21 0206                                         u210_21 04F8  
                                       u202_22 0209                                         i1l2378 0455  
                                       i1l2386 04DB                                         i1l2394 0594  
                                       i1l2458 054B                                         i1l2490 025E  
                                       i1l2482 0222                                         i1l2546 016D  
                                       i1l2554 017E                                         i1l2538 0161  
                                       i1l2562 0192                                         i1l2626 0618  
                                       i1l2642 0020                                         i1l2634 000A  
                                       i1l2388 04E0                                         i1l2396 0599  
                                       i1l2492 0269                                         i1l2484 0224  
                                       i1l2548 0172                                         i1l2556 0183  
                                       i1l2564 0197                                         i1l2628 061E  
                                       i1l2644 002B                                         i1l2636 000E  
                                       i1l2398 059D                                         i1l2494 026A  
                                       i1l2486 0239                                         i1l2558 0188  
                                       i1l2646 0030                                         i1l2638 0016  
                                       u203_20 020F                                         u211_20 05A9  
                                       i1l2496 027F                                         i1l2488 0249  
                                       u203_21 020D                                         u211_21 05A8  
                                       u203_22 0210                                         i1l2498 028F  
                                       i1l1990 05BD                                         i1l1992 05BE  
                                       i1l1984 05AA                                         u204_20 0216  
                                       u212_20 0064                                         u204_21 0214  
                                       u212_21 0063                                         i1l1986 05B2  
                                       i1l1994 06B4                                         i1l1988 05B7  
                                       u220_25 054C                                         u141_20 05BD  
                                       u213_20 0073                                         u221_20 0556  
                                       u141_21 05BC                                         u213_21 0072  
                                       u221_21 0555                                         u205_24 0217  
                                       u206_20 021F                                         u214_20 009A  
                                       u222_20 0249                                         u230_20 0148  
                                       u206_21 021D                                         u214_21 0099  
                                       u222_21 0248                                         u230_21 0147  
                                       u215_20 00AA                                         u223_20 0269  
                                       u231_20 014E                                         u215_21 00A9  
                                       u223_21 0268                                         u231_21 014D  
                                       u207_24 0220                                         u208_20 044D  
                                       u224_20 028F                                         u232_20 0154  
                                       u208_21 044C                                         u224_21 028E  
                                       u232_21 0153                                         u209_20 045B  
                                       u233_20 015A                                         u225_20 0112  
                                       u209_21 045A                                         u233_21 0159  
                                       u225_21 0111                                         u170_20 0513  
                                       u218_20 0542                                         u234_20 0160  
                                       u226_20 011C                                         u250_20 0020  
                                       u170_21 0512                                         u218_21 0541  
                                       u234_21 015F                                         u226_21 011B  
                                       u250_21 001F                                         u171_20 0361  
                                       u235_20 0166                                         u227_20 0125  
                                       u251_20 002B                                         u171_21 0360  
                                       u235_21 0165                                         u227_21 0124  
                                       u251_21 002A                                         u219_25 0547  
                                       u172_20 0371                                         u236_20 016C  
                                       u228_20 012F                                         u252_20 0030  
                                       u172_21 0370                                         u236_21 016B  
                                       u228_21 012E                                         u252_21 002F  
                                       u173_20 0386                                         u237_20 0172  
                                       u229_20 013C                                         u245_20 061E  
                                       u173_21 0385                                         u237_21 0171  
                                       u229_21 013B                                         u245_21 061D  
                                       u190_20 01CC                                         u182_20 01A4  
                                       u246_20 000A                                         u190_21 01CA  
                                       u182_21 01A2                                         u246_21 0009  
                                       u190_22 01CD                                         u182_22 01A5  
                                       u191_20 01D3                                         u183_20 01AB  
                                       u247_20 000E                                         u191_21 01D1  
                                       u183_21 01A9                                         u247_21 000D  
                                       u191_22 01D4                                         u183_22 01AC  
                                       u192_20 01DA                                         u184_20 01B2  
                                       u248_20 0016                                         u192_21 01D8  
                                       u184_21 01B0                                         u248_21 0015  
                                       u169_20 0501                                         u249_20 001B  
                                       u169_21 0500                                         u249_21 001A  
                                       u193_24 01DB                                         u185_24 01B3  
                                       u194_20 01E0                                         u186_20 01B8  
                                       u194_21 01DE                                         u186_21 01B6  
                                       u194_22 01E1                                         u186_22 01B9  
                                       u195_20 01E7                                         u187_20 01BF  
                                       u195_21 01E5                                         u187_21 01BD  
                                       u195_22 01E8                                         u187_22 01C0  
                                       u196_20 01EE                                         u188_20 01C6  
                                       u196_21 01EC                                         u188_21 01C4  
                                       u197_24 01EF                                         u189_24 01C7  
                                       u198_20 01F4                                         u198_21 01F2  
                                       u198_22 01F5                                         u199_20 01FB  
                                       u199_21 01F9                                         u199_22 01FC  
                                       _OSCCON 0099                                    i1memcpy@tmp 0075  
                                       _SPBRGH 019C                                         _SPBRGL 019B  
                                       _WDTCON 0097                                _LIN_processData 0030  
                                       ___wmul 053C                                _LIN_queuePacket 0052  
                      __end_of_TMR0_WriteTimer 069E                        i1LIN_getChecksum@length 0074  
                          _EUSART_Transmit_ISR 04FA                                         _memcpy 04AF  
                             ?_TMR0_Initialize 0070                                         _memset 055B  
                           _LIN_enablePeriodTx 003F                                _LIN_startPeriod 06B0  
                              ?_WDT_Initialize 0070       TMR0_SetInterruptHandler@InterruptHandler 0055  
                              ?_LIN_startTimer 0070                           ?_EUSART_Transmit_ISR 0070  
                            _SYSTEM_Initialize 0601                        __end_of__initialization 004E  
                           ?_SYSTEM_Initialize 0070           __end_of_EUSART_SetTxInterruptHandler 0681  
                 _EUSART_SetTxInterruptHandler 067B                                      ?_LIN_init 0057  
                               __pcstackCOMMON 0070                                  ?_LIN_enableRx 0070  
                             ??_LIN_calcParity 0070                                LIN_sendPacket@i 0058  
                                 __pidataBANK0 06C3                            ??_SYSTEM_Initialize 005C  
                            _LIN_receivePacket 03C4                                  LIN_init@table 0057  
                                    ?_TMR0_ISR 0070                             ?_LIN_receivePacket 0070  
                               _OPTION_REGbits 0095                                      ?i1_memcpy 0070  
                                    ?i1_memset 0070                           _eusartRxStatusBuffer 00A0  
                          ??_LIN_receivePacket 005D                ??_EUSART_SetOverrunErrorHandler 0057  
                    __end_of_SYSTEM_Initialize 0614                          ??_EUSART_Transmit_ISR 0070  
                                   __pbssBANK0 0020                                     __pbssBANK1 00A0  
                         __end_of_EUSART_Write 0488                    __end_of_LIN_setTimerHandler 0660  
                      __end_of_LIN_queuePacket 010C                           LIN_handler@LIN_state 003C  
                    __end_of_LIN_receivePacket 03F8                                 ??_LIN_enableRx 0055  
                                   __pmaintext 05D9                               _LIN_timerHandler 010C  
                                   ??_LIN_init 005B                            LIN_getChecksum@data 0056  
                ?_EUSART_SetTxInterruptHandler 0055               _EUSART_TxDefaultInterruptHandler 002A  
             __end_of_TMR0_SetInterruptHandler 067B                                        ?___wmul 0070  
                                   ??_TMR0_ISR 007E                                     __pintentry 0004  
                             ?_TMR0_WriteTimer 0070                        __end_of_LIN_startPeriod 06B4  
                                      ?_memcpy 0055                                        _BAUDCON 019F  
                                      ?_memset 0055                   ??_EUSART_DefaultErrorHandler 0071  
                        LIN_getChecksum@length 0059                               _LIN_timerRunning 0040  
                                _eusartRxCount 0034                                     ??i1_memcpy 0073  
                                   ??i1_memset 0074                                        _OSCTUNE 0098  
                     ??_EUSART_SetErrorHandler 0057                        ??_LIN_Master_Initialize 005C  
                                 i1memset@dest 0075                        LIN_getChecksum@checksum 005B  
                         i1LIN_getChecksum@pid 0070                                  _SW_STATE_Data 0044  
                    i1LIN_getChecksum@checksum 0076                                        __ptext1 0601  
                                      __ptext2 06A8                                        __ptext3 05ED  
                                      __ptext4 0576                                        __ptext5 063F  
                                      __ptext6 0624                                        __ptext7 05C3  
                                      __ptext8 06AC                                        __ptext9 06B0  
                        _OSCILLATOR_Initialize 063F                               ??_LIN_sendPacket 0057  
                     ??_PIN_MANAGER_Initialize 0055                                        clrloop0 0670  
                         end_of_initialization 004E          __end_of_EUSART_SetOverrunErrorHandler 068D  
                _EUSART_SetOverrunErrorHandler 0687                                        memcpy@d 005A  
                                      memcpy@n 0056                                        memcpy@s 005B  
                                      memset@c 0055                                        memset@n 0057  
                                      memset@p 005A                              _EUSART_Initialize 0313  
                             ?_LIN_queuePacket 0078                             ?_EUSART_Initialize 0070  
                            i1_LIN_getChecksum 042C                                      _RCSTAbits 019D  
                            ??i1_LIN_stopTimer 0070                             _EUSART_is_rx_ready 0660  
                                _LIN_getPacket 051C                             ?i1_LIN_getChecksum 0070  
                                _LIN_disableRx 06A3                               ?_LIN_startPeriod 0070  
                          ??_EUSART_Initialize 0057                               ??_WDT_Initialize 0055  
               ??_EUSART_SetTxInterruptHandler 0057                              LIN_getPacket@data 005D  
                     _TMR0_SetInterruptHandler 0675                            ?_EUSART_is_rx_ready 0070  
                                   _processLIN 064B                            ??i1_LIN_getChecksum 0072  
                          LIN_init@tableLength 005B                               ??_LIN_startTimer 0056  
                         __end_of_LIN_enableRx 06A3                                  _scheduleTable 0669  
                 LIN_sendPeriodicTx@periodicTx 0053                      __end_of_EUSART_Initialize 0356  
                         ??_EUSART_is_rx_ready 0055                     __end_of_LIN_sendPeriodicTx 029D  
                                _LIN_sendBreak 06C0                                      _TXSTAbits 019E  
                    __end_ofi1_LIN_getChecksum 045F                                 ?_LIN_getPacket 0070  
                               ?_LIN_disableRx 0070             __end_of_EUSART_DefaultErrorHandler 06C0  
                   _EUSART_DefaultErrorHandler 06BC                                      i1memcpy@d 0076  
                                    i1memcpy@n 0071                                      i1memcpy@s 0077  
                               __end_of___wmul 055B                                      i1memset@c 0070  
                                    i1memset@n 0072                                      i1memset@p 0076  
                                 _EUSART_Write 045F                                 __end_of_memcpy 04D5  
                       ?_OSCILLATOR_Initialize 0070                LIN_sendPeriodicTx@scheduleIndex 003A  
                               __end_of_memset 0576                            start_initialization 003A  
                                _LIN_stopTimer 06AC                                  _data_send_cnt 002C  
                     __end_of_LIN_timerHandler 019C                                  ??_EUSART_Read 0055  
 EUSART_SetRxInterruptHandler@interruptHandler 0055   EUSART_SetTxInterruptHandler@interruptHandler 0055  
                        LIN_startTimer@timeout 0056                                 ?_LIN_sendBreak 0070  
                            LIN_calcParity@CMD 0071                 ?_EUSART_SetOverrunErrorHandler 0055  
                            LIN_calcParity@PID 0072                     _EUSART_FramingErrorHandler 0026  
                                     ??___wmul 0074                         _EUSART_SetErrorHandler 0693  
                                  __pdataBANK0 0061                                       ??_memcpy 0058  
                                     ??_memset 0059                           processLIN@tempRxData 00CF  
                                   memset@dest 005B                                    ?_processLIN 0070  
                          LIN_init@processData 0059                    __end_of_EUSART_Transmit_ISR 051C  
                               ?_LIN_stopTimer 0070                                      ___latbits 0002  
                                __pcstackBANK0 004C                                  __pcstackBANK1 00CF  
                            ??_LIN_getChecksum 0057                     __end_of_EUSART_Receive_ISR 0390  
                            _LIN_timerCallBack 003E               _EUSART_RxDefaultInterruptHandler 0028  
                          __end_of_EUSART_Read 04AF                  __end_of_LIN_Master_Initialize 0632  
                        _TMR0_InterruptHandler 0020                   __end_of_EUSART_RxDataHandler 05C3  
                              ??_LIN_getPacket 005D                         _PIN_MANAGER_Initialize 0576  
                                ??_LIN_handler 005F                               LIN_getChecksum@i 005A  
                              ??_LIN_disableRx 0055                           EUSART_Read@readValue 0056  
                           LIN_getChecksum@pid 0055                                   _eusartRxHead 0036  
                                 _eusartTxHead 0039                                   _eusartRxTail 0035  
                                 _eusartTxTail 0038                   ??_INTERRUPT_InterruptManager 007E  
                      _eusartTxBufferRemaining 0037                                ??_LIN_sendBreak 0055  
                              i1_LIN_stopTimer 06B4                                 _eusartRxBuffer 00A8  
                            ??_TMR0_Initialize 0057                                 _eusartTxBuffer 00B0  
                               ___wmul@product 0074         EUSART_SetErrorHandler@interruptHandler 0055  
                                    clear_ram0 066F                                       _PIE1bits 0091  
                            _eusartRxLastError 0033                     ??_TMR0_SetInterruptHandler 0057  
                                     _PIR1bits 0011                ??_EUSART_SetFramingErrorHandler 0057  
                                     _LIN_init 05C3                                   _LIN_enableRx 069E  
                                     _TMR0_ISR 0614      __end_of_EUSART_DefaultOverrunErrorHandler 06BC  
          ??_EUSART_DefaultOverrunErrorHandler 0070             ?_EUSART_DefaultOverrunErrorHandler 0070  
            _EUSART_DefaultOverrunErrorHandler 06B8                               LIN_getPacket@cmd 005E  
                          __end_of_LIN_handler 0313                              ___wmul@multiplier 0070  
                              ??_LIN_stopTimer 0055                                       i1_memcpy 04D5  
                                     i1_memset 0590                                   _LIN_rxPacket 00B8  
                                  _EUSART_Read 0488                             _LIN_periodCallBack 003D  
                                    memcpy@tmp 0059                          i1LIN_getChecksum@data 0071  
                      ??_OSCILLATOR_Initialize 0055                            _EUSART_ErrorHandler 0022  
                  ?_EUSART_DefaultErrorHandler 0070                             _LIN_sendPeriodicTx 0222  
                      __end_ofi1_LIN_stopTimer 06B8                            ?_LIN_sendPeriodicTx 0070  
                         _EUSART_RxDataHandler 05AA                                       __ptext10 0657  
                                     __ptext11 0675                                       __ptext20 051C  
                                     __ptext12 0313                                       __ptext21 055B  
                                     __ptext13 067B                                       __ptext30 0488  
                                     __ptext22 04AF                                       __ptext14 0681  
                                     __ptext31 069E                                       __ptext23 0632  
                                     __ptext15 0687                                       __ptext40 053C  
                                     __ptext32 06A3                                       __ptext24 0699  
                                     __ptext16 068D                                       __ptext41 0052  
                                     __ptext33 0660                                       __ptext25 0390  
                                     __ptext17 0693                                       __ptext50 06BC  
                                     __ptext42 0590                                       __ptext26 06C0  
                                     __ptext18 029D                                       __ptext51 05AA  
                                     __ptext43 04D5                                       __ptext35 0614  
                                     __ptext27 045F                                       __ptext19 064B  
                                     __ptext44 042C                                       __ptext36 010C  
                                     __ptext28 03C4                                       __ptext45 019C  
                                     __ptext37 06C4                                       __ptext29 03F8  
                                     __ptext46 04FA                                       __ptext38 06B4  
                                     __ptext47 0356                                       __ptext39 0222  
                                     __ptext48 06B8                                       __ptext49 06C5  
                            ?_LIN_timerHandler 0070                        TMR0_WriteTimer@timerVal 0055  
                           ??_LIN_timerHandler 007D                              ??_TMR0_WriteTimer 0055  
                           i1LIN_getChecksum@i 0075           __end_of_TMR0_DefaultInterruptHandler 06C5  
                 _TMR0_DefaultInterruptHandler 06C4                                       _schedule 002E  
                      ?_EUSART_SetErrorHandler 0055                           ??_LIN_sendPeriodicTx 0050  
EUSART_SetOverrunErrorHandler@interruptHandler 0055                                    _LIN_handler 029D  
                                     int$flags 007E                                _LIN_getChecksum 03F8  
           __end_of_INTERRUPT_InterruptManager 0038                     _INTERRUPT_InterruptManager 0004  
        __end_of_EUSART_SetFramingErrorHandler 0693                  _EUSART_SetFramingErrorHandler 068D  
                                 ??_processLIN 005F                                    _LIN_txReady 0043  
                                  _LIN_timeout 0061                                 _LIN_calcParity 019C  
                                   _INTCONbits 000B                          ?_EUSART_RxDataHandler 0070  
                                     memcpy@d1 005C                                       memcpy@s1 0055  
                          LIN_queuePacket@data 0078                            _LIN_setTimerHandler 0657  
                                     intlevel1 0000                        ?_PIN_MANAGER_Initialize 0070  
               __end_of_EUSART_SetErrorHandler 0699                             __end_of_processLIN 0657  
         __end_of_EUSART_SetRxInterruptHandler 0687                   _EUSART_SetRxInterruptHandler 0681  
                ?_TMR0_DefaultInterruptHandler 0070                                     _LIN_packet 00C4  
                           _EUSART_Receive_ISR 0356                           ?_LIN_setTimerHandler 0070  
                                   _LIN_period 0041  EUSART_SetFramingErrorHandler@interruptHandler 0055  
                       __end_of_LIN_calcParity 0222                                  __pstringtext1 0669  
                           LIN_queuePacket@cmd 004C                                     _OPTION_REG 0095  
                          ?_EUSART_Receive_ISR 0070                                _TMR0_Initialize 05ED  
                            ??_LIN_queuePacket 0079                               ?i1_LIN_stopTimer 0070  
                           EUSART_Write@txData 0056                 __end_of_PIN_MANAGER_Initialize 0590  
                            ??_LIN_startPeriod 0055                               LIN_queuePacket@i 004D  
                         ??_EUSART_Receive_ISR 0071                        __end_of_LIN_getChecksum 042C  
                        _LIN_Master_Initialize 0624  
