

Microchip MPLAB XC8 Assembler V2.46 build 20240104201356 
                                                                                               Wed Dec 17 15:38:26 2025

Microchip MPLAB XC8 C Compiler v2.46 (Free license) build 20240104201356 Og1 
     1                           	processor	16F1936
     2                           	pagewidth 120
     3                           	opt	flic
     4                           	psect	idataBANK0,global,class=CODE,delta=2,noexec
     5                           	psect	stringtext1,global,class=STRCODE,delta=2,noexec
     6                           	psect	cinit,global,class=CODE,merge=1,delta=2
     7                           	psect	bssBANK0,global,class=BANK0,space=1,delta=1,noexec
     8                           	psect	dataBANK0,global,class=BANK0,space=1,delta=1,noexec
     9                           	psect	bssBANK1,global,class=BANK1,space=1,delta=1,noexec
    10                           	psect	clrtext,global,class=CODE,delta=2
    11                           	psect	cstackBANK1,global,class=BANK1,space=1,delta=1,noexec
    12                           	psect	cstackCOMMON,global,class=COMMON,space=1,delta=1,noexec
    13                           	psect	cstackBANK0,global,class=BANK0,space=1,delta=1,noexec
    14                           	psect	maintext,global,class=CODE,merge=1,split=1,delta=2
    15                           	psect	text1,local,class=CODE,merge=1,delta=2
    16                           	psect	text2,local,class=CODE,merge=1,delta=2
    17                           	psect	text3,local,class=CODE,merge=1,delta=2
    18                           	psect	text4,local,class=CODE,merge=1,delta=2
    19                           	psect	text5,local,class=CODE,merge=1,delta=2
    20                           	psect	text6,local,class=CODE,merge=1,delta=2
    21                           	psect	text7,local,class=CODE,merge=1,delta=2
    22                           	psect	text8,local,class=CODE,merge=1,delta=2
    23                           	psect	text9,local,class=CODE,merge=1,delta=2
    24                           	psect	text10,local,class=CODE,merge=1,delta=2
    25                           	psect	text11,local,class=CODE,merge=1,delta=2
    26                           	psect	text12,local,class=CODE,merge=1,delta=2
    27                           	psect	text13,local,class=CODE,merge=1,delta=2
    28                           	psect	text14,local,class=CODE,merge=1,delta=2
    29                           	psect	text15,local,class=CODE,merge=1,delta=2
    30                           	psect	text16,local,class=CODE,merge=1,delta=2
    31                           	psect	text17,local,class=CODE,merge=1,delta=2
    32                           	psect	text18,local,class=CODE,merge=1,delta=2
    33                           	psect	text19,local,class=CODE,merge=1,delta=2
    34                           	psect	text20,local,class=CODE,merge=1,delta=2
    35                           	psect	text21,local,class=CODE,merge=1,delta=2,group=2
    36                           	psect	text22,local,class=CODE,merge=1,delta=2,group=2
    37                           	psect	text23,local,class=CODE,merge=1,delta=2
    38                           	psect	text24,local,class=CODE,merge=1,delta=2
    39                           	psect	text25,local,class=CODE,merge=1,delta=2
    40                           	psect	text26,local,class=CODE,merge=1,delta=2
    41                           	psect	text27,local,class=CODE,merge=1,delta=2
    42                           	psect	text28,local,class=CODE,merge=1,delta=2
    43                           	psect	text29,local,class=CODE,merge=1,delta=2
    44                           	psect	text30,local,class=CODE,merge=1,delta=2
    45                           	psect	text31,local,class=CODE,merge=1,delta=2
    46                           	psect	text32,local,class=CODE,merge=1,delta=2
    47                           	psect	text33,local,class=CODE,merge=1,delta=2
    48                           	psect	text34,local,class=CODE,merge=1,delta=2
    49                           	psect	text35,local,class=CODE,merge=1,delta=2
    50                           	psect	text36,local,class=CODE,merge=1,delta=2
    51                           	psect	text37,local,class=CODE,merge=1,delta=2
    52                           	psect	text38,local,class=CODE,merge=1,delta=2
    53                           	psect	text39,local,class=CODE,merge=1,delta=2
    54                           	psect	text40,local,class=CODE,merge=1,delta=2
    55                           	psect	intentry,global,class=CODE,delta=2
    56                           	psect	text42,local,class=CODE,merge=1,delta=2
    57                           	psect	text43,local,class=CODE,merge=1,delta=2
    58                           	psect	text44,local,class=CODE,merge=1,delta=2
    59                           	psect	text45,local,class=CODE,merge=1,delta=2
    60                           	psect	text46,local,class=CODE,merge=1,delta=2
    61                           	psect	text47,local,class=CODE,merge=1,delta=2,group=1
    62                           	psect	text48,local,class=CODE,merge=1,delta=2
    63                           	psect	text49,local,class=CODE,merge=1,delta=2
    64                           	psect	text50,local,class=CODE,merge=1,delta=2
    65                           	psect	text51,local,class=CODE,merge=1,delta=2
    66                           	psect	text52,local,class=CODE,merge=1,delta=2
    67                           	psect	text53,local,class=CODE,merge=1,delta=2
    68                           	psect	text54,local,class=CODE,merge=1,delta=2
    69                           	psect	text55,local,class=CODE,merge=1,delta=2
    70                           	psect	text56,local,class=CODE,merge=1,delta=2
    71                           	psect	text57,local,class=CODE,merge=1,delta=2
    72                           	psect	text58,local,class=CODE,merge=1,delta=2
    73                           	psect	config,global,abs,ovrld,class=CONFIG,space=4,delta=2,noexec
    74                           	dabs	1,0x7E,2
    75     0000                     
    76                           ; Version 2.20
    77                           ; Generated 12/02/2020 GMT
    78                           ; 
    79                           ; Copyright © 2020, Microchip Technology Inc. and its subsidiaries ("Microchip")
    80                           ; All rights reserved.
    81                           ; 
    82                           ; This software is developed by Microchip Technology Inc. and its subsidiaries ("Microch
      +                          ip").
    83                           ; 
    84                           ; Redistribution and use in source and binary forms, with or without modification, are
    85                           ; permitted provided that the following conditions are met:
    86                           ; 
    87                           ;     1. Redistributions of source code must retain the above copyright notice, this lis
      +                          t of
    88                           ;        conditions and the following disclaimer.
    89                           ; 
    90                           ;     2. Redistributions in binary form must reproduce the above copyright notice, this 
      +                          list
    91                           ;        of conditions and the following disclaimer in the documentation and/or other
    92                           ;        materials provided with the distribution.
    93                           ; 
    94                           ;     3. Microchip's name may not be used to endorse or promote products derived from th
      +                          is
    95                           ;        software without specific prior written permission.
    96                           ; 
    97                           ; THIS SOFTWARE IS PROVIDED BY MICROCHIP "AS IS" AND ANY EXPRESS OR IMPLIED WARRANTIES,
    98                           ; INCLUDING, BUT NOT LIMITED TO, THE IMPLIED WARRANTIES OF MERCHANTABILITY AND FITNESS F
      +                          OR
    99                           ; PURPOSE ARE DISCLAIMED.  IN NO EVENT SHALL MICROCHIP BE LIABLE FOR ANY DIRECT, INDIREC
      +                          T,
   100                           ; INCIDENTAL, SPECIAL, EXEMPLARY, OR CONSEQUENTIAL DAMAGES (INCLUDING BUT NOT LIMITED TO
   101                           ; PROCUREMENT OF SUBSTITUTE GOODS OR SERVICES; LOSS OF USE, DATA OR PROFITS; OR BUSINESS
   102                           ; INTERRUPTION) HOWSOEVER CAUSED AND ON ANY THEORY OF LIABILITY, WHETHER IN CONTRACT, ST
      +                          RICT
   103                           ; LIABILITY, OR TORT (INCLUDING NEGLIGENCE OR OTHERWISE) ARISING IN ANY WAY OUT OF THE U
      +                          SE OF
   104                           ; THIS SOFTWARE, EVEN IF ADVISED OF THE POSSIBILITY OF SUCH DAMAGE.
   105                           ; 
   106                           ; 
   107                           ; Code-generator required, PIC16F1936 Definitions
   108                           ; 
   109                           ; SFR Addresses
   110     0000                     	;# 
   111     0001                     	;# 
   112     0002                     	;# 
   113     0003                     	;# 
   114     0004                     	;# 
   115     0005                     	;# 
   116     0006                     	;# 
   117     0007                     	;# 
   118     0008                     	;# 
   119     0009                     	;# 
   120     000A                     	;# 
   121     000B                     	;# 
   122     000C                     	;# 
   123     000D                     	;# 
   124     000E                     	;# 
   125     0010                     	;# 
   126     0011                     	;# 
   127     0012                     	;# 
   128     0013                     	;# 
   129     0015                     	;# 
   130     0016                     	;# 
   131     0016                     	;# 
   132     0017                     	;# 
   133     0018                     	;# 
   134     0019                     	;# 
   135     001A                     	;# 
   136     001B                     	;# 
   137     001C                     	;# 
   138     001E                     	;# 
   139     001F                     	;# 
   140     008C                     	;# 
   141     008D                     	;# 
   142     008E                     	;# 
   143     0090                     	;# 
   144     0091                     	;# 
   145     0092                     	;# 
   146     0093                     	;# 
   147     0095                     	;# 
   148     0096                     	;# 
   149     0097                     	;# 
   150     0098                     	;# 
   151     0099                     	;# 
   152     009A                     	;# 
   153     009B                     	;# 
   154     009B                     	;# 
   155     009C                     	;# 
   156     009D                     	;# 
   157     009E                     	;# 
   158     010C                     	;# 
   159     010D                     	;# 
   160     010E                     	;# 
   161     0110                     	;# 
   162     0111                     	;# 
   163     0112                     	;# 
   164     0113                     	;# 
   165     0114                     	;# 
   166     0115                     	;# 
   167     0116                     	;# 
   168     0117                     	;# 
   169     0118                     	;# 
   170     0119                     	;# 
   171     011A                     	;# 
   172     011B                     	;# 
   173     011D                     	;# 
   174     018C                     	;# 
   175     018D                     	;# 
   176     0191                     	;# 
   177     0191                     	;# 
   178     0192                     	;# 
   179     0193                     	;# 
   180     0193                     	;# 
   181     0193                     	;# 
   182     0194                     	;# 
   183     0195                     	;# 
   184     0196                     	;# 
   185     0199                     	;# 
   186     019A                     	;# 
   187     019B                     	;# 
   188     019B                     	;# 
   189     019B                     	;# 
   190     019B                     	;# 
   191     019C                     	;# 
   192     019C                     	;# 
   193     019D                     	;# 
   194     019E                     	;# 
   195     019F                     	;# 
   196     020D                     	;# 
   197     0210                     	;# 
   198     0211                     	;# 
   199     0212                     	;# 
   200     0213                     	;# 
   201     0214                     	;# 
   202     0215                     	;# 
   203     0215                     	;# 
   204     0216                     	;# 
   205     0217                     	;# 
   206     0291                     	;# 
   207     0291                     	;# 
   208     0292                     	;# 
   209     0293                     	;# 
   210     0294                     	;# 
   211     0295                     	;# 
   212     0295                     	;# 
   213     0296                     	;# 
   214     0298                     	;# 
   215     0298                     	;# 
   216     0299                     	;# 
   217     029A                     	;# 
   218     029B                     	;# 
   219     029C                     	;# 
   220     029C                     	;# 
   221     029D                     	;# 
   222     029E                     	;# 
   223     029F                     	;# 
   224     0311                     	;# 
   225     0311                     	;# 
   226     0312                     	;# 
   227     0313                     	;# 
   228     0314                     	;# 
   229     0315                     	;# 
   230     0315                     	;# 
   231     0316                     	;# 
   232     0318                     	;# 
   233     0318                     	;# 
   234     0319                     	;# 
   235     031A                     	;# 
   236     031C                     	;# 
   237     031C                     	;# 
   238     031D                     	;# 
   239     031E                     	;# 
   240     0394                     	;# 
   241     0395                     	;# 
   242     0396                     	;# 
   243     0415                     	;# 
   244     0416                     	;# 
   245     0417                     	;# 
   246     041C                     	;# 
   247     041D                     	;# 
   248     041E                     	;# 
   249     0791                     	;# 
   250     0792                     	;# 
   251     0793                     	;# 
   252     0794                     	;# 
   253     0795                     	;# 
   254     0798                     	;# 
   255     0799                     	;# 
   256     07A0                     	;# 
   257     07A1                     	;# 
   258     07A3                     	;# 
   259     07A4                     	;# 
   260     07A6                     	;# 
   261     07A7                     	;# 
   262     07A9                     	;# 
   263     07AA                     	;# 
   264     0FE4                     	;# 
   265     0FE5                     	;# 
   266     0FE6                     	;# 
   267     0FE7                     	;# 
   268     0FE8                     	;# 
   269     0FE9                     	;# 
   270     0FEA                     	;# 
   271     0FEB                     	;# 
   272     0FED                     	;# 
   273     0FEE                     	;# 
   274     0FEF                     	;# 
   275     0000                     	;# 
   276     0001                     	;# 
   277     0002                     	;# 
   278     0003                     	;# 
   279     0004                     	;# 
   280     0005                     	;# 
   281     0006                     	;# 
   282     0007                     	;# 
   283     0008                     	;# 
   284     0009                     	;# 
   285     000A                     	;# 
   286     000B                     	;# 
   287     000C                     	;# 
   288     000D                     	;# 
   289     000E                     	;# 
   290     0010                     	;# 
   291     0011                     	;# 
   292     0012                     	;# 
   293     0013                     	;# 
   294     0015                     	;# 
   295     0016                     	;# 
   296     0016                     	;# 
   297     0017                     	;# 
   298     0018                     	;# 
   299     0019                     	;# 
   300     001A                     	;# 
   301     001B                     	;# 
   302     001C                     	;# 
   303     001E                     	;# 
   304     001F                     	;# 
   305     008C                     	;# 
   306     008D                     	;# 
   307     008E                     	;# 
   308     0090                     	;# 
   309     0091                     	;# 
   310     0092                     	;# 
   311     0093                     	;# 
   312     0095                     	;# 
   313     0096                     	;# 
   314     0097                     	;# 
   315     0098                     	;# 
   316     0099                     	;# 
   317     009A                     	;# 
   318     009B                     	;# 
   319     009B                     	;# 
   320     009C                     	;# 
   321     009D                     	;# 
   322     009E                     	;# 
   323     010C                     	;# 
   324     010D                     	;# 
   325     010E                     	;# 
   326     0110                     	;# 
   327     0111                     	;# 
   328     0112                     	;# 
   329     0113                     	;# 
   330     0114                     	;# 
   331     0115                     	;# 
   332     0116                     	;# 
   333     0117                     	;# 
   334     0118                     	;# 
   335     0119                     	;# 
   336     011A                     	;# 
   337     011B                     	;# 
   338     011D                     	;# 
   339     018C                     	;# 
   340     018D                     	;# 
   341     0191                     	;# 
   342     0191                     	;# 
   343     0192                     	;# 
   344     0193                     	;# 
   345     0193                     	;# 
   346     0193                     	;# 
   347     0194                     	;# 
   348     0195                     	;# 
   349     0196                     	;# 
   350     0199                     	;# 
   351     019A                     	;# 
   352     019B                     	;# 
   353     019B                     	;# 
   354     019B                     	;# 
   355     019B                     	;# 
   356     019C                     	;# 
   357     019C                     	;# 
   358     019D                     	;# 
   359     019E                     	;# 
   360     019F                     	;# 
   361     020D                     	;# 
   362     0210                     	;# 
   363     0211                     	;# 
   364     0212                     	;# 
   365     0213                     	;# 
   366     0214                     	;# 
   367     0215                     	;# 
   368     0215                     	;# 
   369     0216                     	;# 
   370     0217                     	;# 
   371     0291                     	;# 
   372     0291                     	;# 
   373     0292                     	;# 
   374     0293                     	;# 
   375     0294                     	;# 
   376     0295                     	;# 
   377     0295                     	;# 
   378     0296                     	;# 
   379     0298                     	;# 
   380     0298                     	;# 
   381     0299                     	;# 
   382     029A                     	;# 
   383     029B                     	;# 
   384     029C                     	;# 
   385     029C                     	;# 
   386     029D                     	;# 
   387     029E                     	;# 
   388     029F                     	;# 
   389     0311                     	;# 
   390     0311                     	;# 
   391     0312                     	;# 
   392     0313                     	;# 
   393     0314                     	;# 
   394     0315                     	;# 
   395     0315                     	;# 
   396     0316                     	;# 
   397     0318                     	;# 
   398     0318                     	;# 
   399     0319                     	;# 
   400     031A                     	;# 
   401     031C                     	;# 
   402     031C                     	;# 
   403     031D                     	;# 
   404     031E                     	;# 
   405     0394                     	;# 
   406     0395                     	;# 
   407     0396                     	;# 
   408     0415                     	;# 
   409     0416                     	;# 
   410     0417                     	;# 
   411     041C                     	;# 
   412     041D                     	;# 
   413     041E                     	;# 
   414     0791                     	;# 
   415     0792                     	;# 
   416     0793                     	;# 
   417     0794                     	;# 
   418     0795                     	;# 
   419     0798                     	;# 
   420     0799                     	;# 
   421     07A0                     	;# 
   422     07A1                     	;# 
   423     07A3                     	;# 
   424     07A4                     	;# 
   425     07A6                     	;# 
   426     07A7                     	;# 
   427     07A9                     	;# 
   428     07AA                     	;# 
   429     0FE4                     	;# 
   430     0FE5                     	;# 
   431     0FE6                     	;# 
   432     0FE7                     	;# 
   433     0FE8                     	;# 
   434     0FE9                     	;# 
   435     0FEA                     	;# 
   436     0FEB                     	;# 
   437     0FED                     	;# 
   438     0FEE                     	;# 
   439     0FEF                     	;# 
   440     0000                     	;# 
   441     0001                     	;# 
   442     0002                     	;# 
   443     0003                     	;# 
   444     0004                     	;# 
   445     0005                     	;# 
   446     0006                     	;# 
   447     0007                     	;# 
   448     0008                     	;# 
   449     0009                     	;# 
   450     000A                     	;# 
   451     000B                     	;# 
   452     000C                     	;# 
   453     000D                     	;# 
   454     000E                     	;# 
   455     0010                     	;# 
   456     0011                     	;# 
   457     0012                     	;# 
   458     0013                     	;# 
   459     0015                     	;# 
   460     0016                     	;# 
   461     0016                     	;# 
   462     0017                     	;# 
   463     0018                     	;# 
   464     0019                     	;# 
   465     001A                     	;# 
   466     001B                     	;# 
   467     001C                     	;# 
   468     001E                     	;# 
   469     001F                     	;# 
   470     008C                     	;# 
   471     008D                     	;# 
   472     008E                     	;# 
   473     0090                     	;# 
   474     0091                     	;# 
   475     0092                     	;# 
   476     0093                     	;# 
   477     0095                     	;# 
   478     0096                     	;# 
   479     0097                     	;# 
   480     0098                     	;# 
   481     0099                     	;# 
   482     009A                     	;# 
   483     009B                     	;# 
   484     009B                     	;# 
   485     009C                     	;# 
   486     009D                     	;# 
   487     009E                     	;# 
   488     010C                     	;# 
   489     010D                     	;# 
   490     010E                     	;# 
   491     0110                     	;# 
   492     0111                     	;# 
   493     0112                     	;# 
   494     0113                     	;# 
   495     0114                     	;# 
   496     0115                     	;# 
   497     0116                     	;# 
   498     0117                     	;# 
   499     0118                     	;# 
   500     0119                     	;# 
   501     011A                     	;# 
   502     011B                     	;# 
   503     011D                     	;# 
   504     018C                     	;# 
   505     018D                     	;# 
   506     0191                     	;# 
   507     0191                     	;# 
   508     0192                     	;# 
   509     0193                     	;# 
   510     0193                     	;# 
   511     0193                     	;# 
   512     0194                     	;# 
   513     0195                     	;# 
   514     0196                     	;# 
   515     0199                     	;# 
   516     019A                     	;# 
   517     019B                     	;# 
   518     019B                     	;# 
   519     019B                     	;# 
   520     019B                     	;# 
   521     019C                     	;# 
   522     019C                     	;# 
   523     019D                     	;# 
   524     019E                     	;# 
   525     019F                     	;# 
   526     020D                     	;# 
   527     0210                     	;# 
   528     0211                     	;# 
   529     0212                     	;# 
   530     0213                     	;# 
   531     0214                     	;# 
   532     0215                     	;# 
   533     0215                     	;# 
   534     0216                     	;# 
   535     0217                     	;# 
   536     0291                     	;# 
   537     0291                     	;# 
   538     0292                     	;# 
   539     0293                     	;# 
   540     0294                     	;# 
   541     0295                     	;# 
   542     0295                     	;# 
   543     0296                     	;# 
   544     0298                     	;# 
   545     0298                     	;# 
   546     0299                     	;# 
   547     029A                     	;# 
   548     029B                     	;# 
   549     029C                     	;# 
   550     029C                     	;# 
   551     029D                     	;# 
   552     029E                     	;# 
   553     029F                     	;# 
   554     0311                     	;# 
   555     0311                     	;# 
   556     0312                     	;# 
   557     0313                     	;# 
   558     0314                     	;# 
   559     0315                     	;# 
   560     0315                     	;# 
   561     0316                     	;# 
   562     0318                     	;# 
   563     0318                     	;# 
   564     0319                     	;# 
   565     031A                     	;# 
   566     031C                     	;# 
   567     031C                     	;# 
   568     031D                     	;# 
   569     031E                     	;# 
   570     0394                     	;# 
   571     0395                     	;# 
   572     0396                     	;# 
   573     0415                     	;# 
   574     0416                     	;# 
   575     0417                     	;# 
   576     041C                     	;# 
   577     041D                     	;# 
   578     041E                     	;# 
   579     0791                     	;# 
   580     0792                     	;# 
   581     0793                     	;# 
   582     0794                     	;# 
   583     0795                     	;# 
   584     0798                     	;# 
   585     0799                     	;# 
   586     07A0                     	;# 
   587     07A1                     	;# 
   588     07A3                     	;# 
   589     07A4                     	;# 
   590     07A6                     	;# 
   591     07A7                     	;# 
   592     07A9                     	;# 
   593     07AA                     	;# 
   594     0FE4                     	;# 
   595     0FE5                     	;# 
   596     0FE6                     	;# 
   597     0FE7                     	;# 
   598     0FE8                     	;# 
   599     0FE9                     	;# 
   600     0FEA                     	;# 
   601     0FEB                     	;# 
   602     0FED                     	;# 
   603     0FEE                     	;# 
   604     0FEF                     	;# 
   605     0000                     	;# 
   606     0001                     	;# 
   607     0002                     	;# 
   608     0003                     	;# 
   609     0004                     	;# 
   610     0005                     	;# 
   611     0006                     	;# 
   612     0007                     	;# 
   613     0008                     	;# 
   614     0009                     	;# 
   615     000A                     	;# 
   616     000B                     	;# 
   617     000C                     	;# 
   618     000D                     	;# 
   619     000E                     	;# 
   620     0010                     	;# 
   621     0011                     	;# 
   622     0012                     	;# 
   623     0013                     	;# 
   624     0015                     	;# 
   625     0016                     	;# 
   626     0016                     	;# 
   627     0017                     	;# 
   628     0018                     	;# 
   629     0019                     	;# 
   630     001A                     	;# 
   631     001B                     	;# 
   632     001C                     	;# 
   633     001E                     	;# 
   634     001F                     	;# 
   635     008C                     	;# 
   636     008D                     	;# 
   637     008E                     	;# 
   638     0090                     	;# 
   639     0091                     	;# 
   640     0092                     	;# 
   641     0093                     	;# 
   642     0095                     	;# 
   643     0096                     	;# 
   644     0097                     	;# 
   645     0098                     	;# 
   646     0099                     	;# 
   647     009A                     	;# 
   648     009B                     	;# 
   649     009B                     	;# 
   650     009C                     	;# 
   651     009D                     	;# 
   652     009E                     	;# 
   653     010C                     	;# 
   654     010D                     	;# 
   655     010E                     	;# 
   656     0110                     	;# 
   657     0111                     	;# 
   658     0112                     	;# 
   659     0113                     	;# 
   660     0114                     	;# 
   661     0115                     	;# 
   662     0116                     	;# 
   663     0117                     	;# 
   664     0118                     	;# 
   665     0119                     	;# 
   666     011A                     	;# 
   667     011B                     	;# 
   668     011D                     	;# 
   669     018C                     	;# 
   670     018D                     	;# 
   671     0191                     	;# 
   672     0191                     	;# 
   673     0192                     	;# 
   674     0193                     	;# 
   675     0193                     	;# 
   676     0193                     	;# 
   677     0194                     	;# 
   678     0195                     	;# 
   679     0196                     	;# 
   680     0199                     	;# 
   681     019A                     	;# 
   682     019B                     	;# 
   683     019B                     	;# 
   684     019B                     	;# 
   685     019B                     	;# 
   686     019C                     	;# 
   687     019C                     	;# 
   688     019D                     	;# 
   689     019E                     	;# 
   690     019F                     	;# 
   691     020D                     	;# 
   692     0210                     	;# 
   693     0211                     	;# 
   694     0212                     	;# 
   695     0213                     	;# 
   696     0214                     	;# 
   697     0215                     	;# 
   698     0215                     	;# 
   699     0216                     	;# 
   700     0217                     	;# 
   701     0291                     	;# 
   702     0291                     	;# 
   703     0292                     	;# 
   704     0293                     	;# 
   705     0294                     	;# 
   706     0295                     	;# 
   707     0295                     	;# 
   708     0296                     	;# 
   709     0298                     	;# 
   710     0298                     	;# 
   711     0299                     	;# 
   712     029A                     	;# 
   713     029B                     	;# 
   714     029C                     	;# 
   715     029C                     	;# 
   716     029D                     	;# 
   717     029E                     	;# 
   718     029F                     	;# 
   719     0311                     	;# 
   720     0311                     	;# 
   721     0312                     	;# 
   722     0313                     	;# 
   723     0314                     	;# 
   724     0315                     	;# 
   725     0315                     	;# 
   726     0316                     	;# 
   727     0318                     	;# 
   728     0318                     	;# 
   729     0319                     	;# 
   730     031A                     	;# 
   731     031C                     	;# 
   732     031C                     	;# 
   733     031D                     	;# 
   734     031E                     	;# 
   735     0394                     	;# 
   736     0395                     	;# 
   737     0396                     	;# 
   738     0415                     	;# 
   739     0416                     	;# 
   740     0417                     	;# 
   741     041C                     	;# 
   742     041D                     	;# 
   743     041E                     	;# 
   744     0791                     	;# 
   745     0792                     	;# 
   746     0793                     	;# 
   747     0794                     	;# 
   748     0795                     	;# 
   749     0798                     	;# 
   750     0799                     	;# 
   751     07A0                     	;# 
   752     07A1                     	;# 
   753     07A3                     	;# 
   754     07A4                     	;# 
   755     07A6                     	;# 
   756     07A7                     	;# 
   757     07A9                     	;# 
   758     07AA                     	;# 
   759     0FE4                     	;# 
   760     0FE5                     	;# 
   761     0FE6                     	;# 
   762     0FE7                     	;# 
   763     0FE8                     	;# 
   764     0FE9                     	;# 
   765     0FEA                     	;# 
   766     0FEB                     	;# 
   767     0FED                     	;# 
   768     0FEE                     	;# 
   769     0FEF                     	;# 
   770     0000                     	;# 
   771     0001                     	;# 
   772     0002                     	;# 
   773     0003                     	;# 
   774     0004                     	;# 
   775     0005                     	;# 
   776     0006                     	;# 
   777     0007                     	;# 
   778     0008                     	;# 
   779     0009                     	;# 
   780     000A                     	;# 
   781     000B                     	;# 
   782     000C                     	;# 
   783     000D                     	;# 
   784     000E                     	;# 
   785     0010                     	;# 
   786     0011                     	;# 
   787     0012                     	;# 
   788     0013                     	;# 
   789     0015                     	;# 
   790     0016                     	;# 
   791     0016                     	;# 
   792     0017                     	;# 
   793     0018                     	;# 
   794     0019                     	;# 
   795     001A                     	;# 
   796     001B                     	;# 
   797     001C                     	;# 
   798     001E                     	;# 
   799     001F                     	;# 
   800     008C                     	;# 
   801     008D                     	;# 
   802     008E                     	;# 
   803     0090                     	;# 
   804     0091                     	;# 
   805     0092                     	;# 
   806     0093                     	;# 
   807     0095                     	;# 
   808     0096                     	;# 
   809     0097                     	;# 
   810     0098                     	;# 
   811     0099                     	;# 
   812     009A                     	;# 
   813     009B                     	;# 
   814     009B                     	;# 
   815     009C                     	;# 
   816     009D                     	;# 
   817     009E                     	;# 
   818     010C                     	;# 
   819     010D                     	;# 
   820     010E                     	;# 
   821     0110                     	;# 
   822     0111                     	;# 
   823     0112                     	;# 
   824     0113                     	;# 
   825     0114                     	;# 
   826     0115                     	;# 
   827     0116                     	;# 
   828     0117                     	;# 
   829     0118                     	;# 
   830     0119                     	;# 
   831     011A                     	;# 
   832     011B                     	;# 
   833     011D                     	;# 
   834     018C                     	;# 
   835     018D                     	;# 
   836     0191                     	;# 
   837     0191                     	;# 
   838     0192                     	;# 
   839     0193                     	;# 
   840     0193                     	;# 
   841     0193                     	;# 
   842     0194                     	;# 
   843     0195                     	;# 
   844     0196                     	;# 
   845     0199                     	;# 
   846     019A                     	;# 
   847     019B                     	;# 
   848     019B                     	;# 
   849     019B                     	;# 
   850     019B                     	;# 
   851     019C                     	;# 
   852     019C                     	;# 
   853     019D                     	;# 
   854     019E                     	;# 
   855     019F                     	;# 
   856     020D                     	;# 
   857     0210                     	;# 
   858     0211                     	;# 
   859     0212                     	;# 
   860     0213                     	;# 
   861     0214                     	;# 
   862     0215                     	;# 
   863     0215                     	;# 
   864     0216                     	;# 
   865     0217                     	;# 
   866     0291                     	;# 
   867     0291                     	;# 
   868     0292                     	;# 
   869     0293                     	;# 
   870     0294                     	;# 
   871     0295                     	;# 
   872     0295                     	;# 
   873     0296                     	;# 
   874     0298                     	;# 
   875     0298                     	;# 
   876     0299                     	;# 
   877     029A                     	;# 
   878     029B                     	;# 
   879     029C                     	;# 
   880     029C                     	;# 
   881     029D                     	;# 
   882     029E                     	;# 
   883     029F                     	;# 
   884     0311                     	;# 
   885     0311                     	;# 
   886     0312                     	;# 
   887     0313                     	;# 
   888     0314                     	;# 
   889     0315                     	;# 
   890     0315                     	;# 
   891     0316                     	;# 
   892     0318                     	;# 
   893     0318                     	;# 
   894     0319                     	;# 
   895     031A                     	;# 
   896     031C                     	;# 
   897     031C                     	;# 
   898     031D                     	;# 
   899     031E                     	;# 
   900     0394                     	;# 
   901     0395                     	;# 
   902     0396                     	;# 
   903     0415                     	;# 
   904     0416                     	;# 
   905     0417                     	;# 
   906     041C                     	;# 
   907     041D                     	;# 
   908     041E                     	;# 
   909     0791                     	;# 
   910     0792                     	;# 
   911     0793                     	;# 
   912     0794                     	;# 
   913     0795                     	;# 
   914     0798                     	;# 
   915     0799                     	;# 
   916     07A0                     	;# 
   917     07A1                     	;# 
   918     07A3                     	;# 
   919     07A4                     	;# 
   920     07A6                     	;# 
   921     07A7                     	;# 
   922     07A9                     	;# 
   923     07AA                     	;# 
   924     0FE4                     	;# 
   925     0FE5                     	;# 
   926     0FE6                     	;# 
   927     0FE7                     	;# 
   928     0FE8                     	;# 
   929     0FE9                     	;# 
   930     0FEA                     	;# 
   931     0FEB                     	;# 
   932     0FED                     	;# 
   933     0FEE                     	;# 
   934     0FEF                     	;# 
   935     0000                     	;# 
   936     0001                     	;# 
   937     0002                     	;# 
   938     0003                     	;# 
   939     0004                     	;# 
   940     0005                     	;# 
   941     0006                     	;# 
   942     0007                     	;# 
   943     0008                     	;# 
   944     0009                     	;# 
   945     000A                     	;# 
   946     000B                     	;# 
   947     000C                     	;# 
   948     000D                     	;# 
   949     000E                     	;# 
   950     0010                     	;# 
   951     0011                     	;# 
   952     0012                     	;# 
   953     0013                     	;# 
   954     0015                     	;# 
   955     0016                     	;# 
   956     0016                     	;# 
   957     0017                     	;# 
   958     0018                     	;# 
   959     0019                     	;# 
   960     001A                     	;# 
   961     001B                     	;# 
   962     001C                     	;# 
   963     001E                     	;# 
   964     001F                     	;# 
   965     008C                     	;# 
   966     008D                     	;# 
   967     008E                     	;# 
   968     0090                     	;# 
   969     0091                     	;# 
   970     0092                     	;# 
   971     0093                     	;# 
   972     0095                     	;# 
   973     0096                     	;# 
   974     0097                     	;# 
   975     0098                     	;# 
   976     0099                     	;# 
   977     009A                     	;# 
   978     009B                     	;# 
   979     009B                     	;# 
   980     009C                     	;# 
   981     009D                     	;# 
   982     009E                     	;# 
   983     010C                     	;# 
   984     010D                     	;# 
   985     010E                     	;# 
   986     0110                     	;# 
   987     0111                     	;# 
   988     0112                     	;# 
   989     0113                     	;# 
   990     0114                     	;# 
   991     0115                     	;# 
   992     0116                     	;# 
   993     0117                     	;# 
   994     0118                     	;# 
   995     0119                     	;# 
   996     011A                     	;# 
   997     011B                     	;# 
   998     011D                     	;# 
   999     018C                     	;# 
  1000     018D                     	;# 
  1001     0191                     	;# 
  1002     0191                     	;# 
  1003     0192                     	;# 
  1004     0193                     	;# 
  1005     0193                     	;# 
  1006     0193                     	;# 
  1007     0194                     	;# 
  1008     0195                     	;# 
  1009     0196                     	;# 
  1010     0199                     	;# 
  1011     019A                     	;# 
  1012     019B                     	;# 
  1013     019B                     	;# 
  1014     019B                     	;# 
  1015     019B                     	;# 
  1016     019C                     	;# 
  1017     019C                     	;# 
  1018     019D                     	;# 
  1019     019E                     	;# 
  1020     019F                     	;# 
  1021     020D                     	;# 
  1022     0210                     	;# 
  1023     0211                     	;# 
  1024     0212                     	;# 
  1025     0213                     	;# 
  1026     0214                     	;# 
  1027     0215                     	;# 
  1028     0215                     	;# 
  1029     0216                     	;# 
  1030     0217                     	;# 
  1031     0291                     	;# 
  1032     0291                     	;# 
  1033     0292                     	;# 
  1034     0293                     	;# 
  1035     0294                     	;# 
  1036     0295                     	;# 
  1037     0295                     	;# 
  1038     0296                     	;# 
  1039     0298                     	;# 
  1040     0298                     	;# 
  1041     0299                     	;# 
  1042     029A                     	;# 
  1043     029B                     	;# 
  1044     029C                     	;# 
  1045     029C                     	;# 
  1046     029D                     	;# 
  1047     029E                     	;# 
  1048     029F                     	;# 
  1049     0311                     	;# 
  1050     0311                     	;# 
  1051     0312                     	;# 
  1052     0313                     	;# 
  1053     0314                     	;# 
  1054     0315                     	;# 
  1055     0315                     	;# 
  1056     0316                     	;# 
  1057     0318                     	;# 
  1058     0318                     	;# 
  1059     0319                     	;# 
  1060     031A                     	;# 
  1061     031C                     	;# 
  1062     031C                     	;# 
  1063     031D                     	;# 
  1064     031E                     	;# 
  1065     0394                     	;# 
  1066     0395                     	;# 
  1067     0396                     	;# 
  1068     0415                     	;# 
  1069     0416                     	;# 
  1070     0417                     	;# 
  1071     041C                     	;# 
  1072     041D                     	;# 
  1073     041E                     	;# 
  1074     0791                     	;# 
  1075     0792                     	;# 
  1076     0793                     	;# 
  1077     0794                     	;# 
  1078     0795                     	;# 
  1079     0798                     	;# 
  1080     0799                     	;# 
  1081     07A0                     	;# 
  1082     07A1                     	;# 
  1083     07A3                     	;# 
  1084     07A4                     	;# 
  1085     07A6                     	;# 
  1086     07A7                     	;# 
  1087     07A9                     	;# 
  1088     07AA                     	;# 
  1089     0FE4                     	;# 
  1090     0FE5                     	;# 
  1091     0FE6                     	;# 
  1092     0FE7                     	;# 
  1093     0FE8                     	;# 
  1094     0FE9                     	;# 
  1095     0FEA                     	;# 
  1096     0FEB                     	;# 
  1097     0FED                     	;# 
  1098     0FEE                     	;# 
  1099     0FEF                     	;# 
  1100     0000                     	;# 
  1101     0001                     	;# 
  1102     0002                     	;# 
  1103     0003                     	;# 
  1104     0004                     	;# 
  1105     0005                     	;# 
  1106     0006                     	;# 
  1107     0007                     	;# 
  1108     0008                     	;# 
  1109     0009                     	;# 
  1110     000A                     	;# 
  1111     000B                     	;# 
  1112     000C                     	;# 
  1113     000D                     	;# 
  1114     000E                     	;# 
  1115     0010                     	;# 
  1116     0011                     	;# 
  1117     0012                     	;# 
  1118     0013                     	;# 
  1119     0015                     	;# 
  1120     0016                     	;# 
  1121     0016                     	;# 
  1122     0017                     	;# 
  1123     0018                     	;# 
  1124     0019                     	;# 
  1125     001A                     	;# 
  1126     001B                     	;# 
  1127     001C                     	;# 
  1128     001E                     	;# 
  1129     001F                     	;# 
  1130     008C                     	;# 
  1131     008D                     	;# 
  1132     008E                     	;# 
  1133     0090                     	;# 
  1134     0091                     	;# 
  1135     0092                     	;# 
  1136     0093                     	;# 
  1137     0095                     	;# 
  1138     0096                     	;# 
  1139     0097                     	;# 
  1140     0098                     	;# 
  1141     0099                     	;# 
  1142     009A                     	;# 
  1143     009B                     	;# 
  1144     009B                     	;# 
  1145     009C                     	;# 
  1146     009D                     	;# 
  1147     009E                     	;# 
  1148     010C                     	;# 
  1149     010D                     	;# 
  1150     010E                     	;# 
  1151     0110                     	;# 
  1152     0111                     	;# 
  1153     0112                     	;# 
  1154     0113                     	;# 
  1155     0114                     	;# 
  1156     0115                     	;# 
  1157     0116                     	;# 
  1158     0117                     	;# 
  1159     0118                     	;# 
  1160     0119                     	;# 
  1161     011A                     	;# 
  1162     011B                     	;# 
  1163     011D                     	;# 
  1164     018C                     	;# 
  1165     018D                     	;# 
  1166     0191                     	;# 
  1167     0191                     	;# 
  1168     0192                     	;# 
  1169     0193                     	;# 
  1170     0193                     	;# 
  1171     0193                     	;# 
  1172     0194                     	;# 
  1173     0195                     	;# 
  1174     0196                     	;# 
  1175     0199                     	;# 
  1176     019A                     	;# 
  1177     019B                     	;# 
  1178     019B                     	;# 
  1179     019B                     	;# 
  1180     019B                     	;# 
  1181     019C                     	;# 
  1182     019C                     	;# 
  1183     019D                     	;# 
  1184     019E                     	;# 
  1185     019F                     	;# 
  1186     020D                     	;# 
  1187     0210                     	;# 
  1188     0211                     	;# 
  1189     0212                     	;# 
  1190     0213                     	;# 
  1191     0214                     	;# 
  1192     0215                     	;# 
  1193     0215                     	;# 
  1194     0216                     	;# 
  1195     0217                     	;# 
  1196     0291                     	;# 
  1197     0291                     	;# 
  1198     0292                     	;# 
  1199     0293                     	;# 
  1200     0294                     	;# 
  1201     0295                     	;# 
  1202     0295                     	;# 
  1203     0296                     	;# 
  1204     0298                     	;# 
  1205     0298                     	;# 
  1206     0299                     	;# 
  1207     029A                     	;# 
  1208     029B                     	;# 
  1209     029C                     	;# 
  1210     029C                     	;# 
  1211     029D                     	;# 
  1212     029E                     	;# 
  1213     029F                     	;# 
  1214     0311                     	;# 
  1215     0311                     	;# 
  1216     0312                     	;# 
  1217     0313                     	;# 
  1218     0314                     	;# 
  1219     0315                     	;# 
  1220     0315                     	;# 
  1221     0316                     	;# 
  1222     0318                     	;# 
  1223     0318                     	;# 
  1224     0319                     	;# 
  1225     031A                     	;# 
  1226     031C                     	;# 
  1227     031C                     	;# 
  1228     031D                     	;# 
  1229     031E                     	;# 
  1230     0394                     	;# 
  1231     0395                     	;# 
  1232     0396                     	;# 
  1233     0415                     	;# 
  1234     0416                     	;# 
  1235     0417                     	;# 
  1236     041C                     	;# 
  1237     041D                     	;# 
  1238     041E                     	;# 
  1239     0791                     	;# 
  1240     0792                     	;# 
  1241     0793                     	;# 
  1242     0794                     	;# 
  1243     0795                     	;# 
  1244     0798                     	;# 
  1245     0799                     	;# 
  1246     07A0                     	;# 
  1247     07A1                     	;# 
  1248     07A3                     	;# 
  1249     07A4                     	;# 
  1250     07A6                     	;# 
  1251     07A7                     	;# 
  1252     07A9                     	;# 
  1253     07AA                     	;# 
  1254     0FE4                     	;# 
  1255     0FE5                     	;# 
  1256     0FE6                     	;# 
  1257     0FE7                     	;# 
  1258     0FE8                     	;# 
  1259     0FE9                     	;# 
  1260     0FEA                     	;# 
  1261     0FEB                     	;# 
  1262     0FED                     	;# 
  1263     0FEE                     	;# 
  1264     0FEF                     	;# 
  1265     0000                     	;# 
  1266     0001                     	;# 
  1267     0002                     	;# 
  1268     0003                     	;# 
  1269     0004                     	;# 
  1270     0005                     	;# 
  1271     0006                     	;# 
  1272     0007                     	;# 
  1273     0008                     	;# 
  1274     0009                     	;# 
  1275     000A                     	;# 
  1276     000B                     	;# 
  1277     000C                     	;# 
  1278     000D                     	;# 
  1279     000E                     	;# 
  1280     0010                     	;# 
  1281     0011                     	;# 
  1282     0012                     	;# 
  1283     0013                     	;# 
  1284     0015                     	;# 
  1285     0016                     	;# 
  1286     0016                     	;# 
  1287     0017                     	;# 
  1288     0018                     	;# 
  1289     0019                     	;# 
  1290     001A                     	;# 
  1291     001B                     	;# 
  1292     001C                     	;# 
  1293     001E                     	;# 
  1294     001F                     	;# 
  1295     008C                     	;# 
  1296     008D                     	;# 
  1297     008E                     	;# 
  1298     0090                     	;# 
  1299     0091                     	;# 
  1300     0092                     	;# 
  1301     0093                     	;# 
  1302     0095                     	;# 
  1303     0096                     	;# 
  1304     0097                     	;# 
  1305     0098                     	;# 
  1306     0099                     	;# 
  1307     009A                     	;# 
  1308     009B                     	;# 
  1309     009B                     	;# 
  1310     009C                     	;# 
  1311     009D                     	;# 
  1312     009E                     	;# 
  1313     010C                     	;# 
  1314     010D                     	;# 
  1315     010E                     	;# 
  1316     0110                     	;# 
  1317     0111                     	;# 
  1318     0112                     	;# 
  1319     0113                     	;# 
  1320     0114                     	;# 
  1321     0115                     	;# 
  1322     0116                     	;# 
  1323     0117                     	;# 
  1324     0118                     	;# 
  1325     0119                     	;# 
  1326     011A                     	;# 
  1327     011B                     	;# 
  1328     011D                     	;# 
  1329     018C                     	;# 
  1330     018D                     	;# 
  1331     0191                     	;# 
  1332     0191                     	;# 
  1333     0192                     	;# 
  1334     0193                     	;# 
  1335     0193                     	;# 
  1336     0193                     	;# 
  1337     0194                     	;# 
  1338     0195                     	;# 
  1339     0196                     	;# 
  1340     0199                     	;# 
  1341     019A                     	;# 
  1342     019B                     	;# 
  1343     019B                     	;# 
  1344     019B                     	;# 
  1345     019B                     	;# 
  1346     019C                     	;# 
  1347     019C                     	;# 
  1348     019D                     	;# 
  1349     019E                     	;# 
  1350     019F                     	;# 
  1351     020D                     	;# 
  1352     0210                     	;# 
  1353     0211                     	;# 
  1354     0212                     	;# 
  1355     0213                     	;# 
  1356     0214                     	;# 
  1357     0215                     	;# 
  1358     0215                     	;# 
  1359     0216                     	;# 
  1360     0217                     	;# 
  1361     0291                     	;# 
  1362     0291                     	;# 
  1363     0292                     	;# 
  1364     0293                     	;# 
  1365     0294                     	;# 
  1366     0295                     	;# 
  1367     0295                     	;# 
  1368     0296                     	;# 
  1369     0298                     	;# 
  1370     0298                     	;# 
  1371     0299                     	;# 
  1372     029A                     	;# 
  1373     029B                     	;# 
  1374     029C                     	;# 
  1375     029C                     	;# 
  1376     029D                     	;# 
  1377     029E                     	;# 
  1378     029F                     	;# 
  1379     0311                     	;# 
  1380     0311                     	;# 
  1381     0312                     	;# 
  1382     0313                     	;# 
  1383     0314                     	;# 
  1384     0315                     	;# 
  1385     0315                     	;# 
  1386     0316                     	;# 
  1387     0318                     	;# 
  1388     0318                     	;# 
  1389     0319                     	;# 
  1390     031A                     	;# 
  1391     031C                     	;# 
  1392     031C                     	;# 
  1393     031D                     	;# 
  1394     031E                     	;# 
  1395     0394                     	;# 
  1396     0395                     	;# 
  1397     0396                     	;# 
  1398     0415                     	;# 
  1399     0416                     	;# 
  1400     0417                     	;# 
  1401     041C                     	;# 
  1402     041D                     	;# 
  1403     041E                     	;# 
  1404     0791                     	;# 
  1405     0792                     	;# 
  1406     0793                     	;# 
  1407     0794                     	;# 
  1408     0795                     	;# 
  1409     0798                     	;# 
  1410     0799                     	;# 
  1411     07A0                     	;# 
  1412     07A1                     	;# 
  1413     07A3                     	;# 
  1414     07A4                     	;# 
  1415     07A6                     	;# 
  1416     07A7                     	;# 
  1417     07A9                     	;# 
  1418     07AA                     	;# 
  1419     0FE4                     	;# 
  1420     0FE5                     	;# 
  1421     0FE6                     	;# 
  1422     0FE7                     	;# 
  1423     0FE8                     	;# 
  1424     0FE9                     	;# 
  1425     0FEA                     	;# 
  1426     0FEB                     	;# 
  1427     0FED                     	;# 
  1428     0FEE                     	;# 
  1429     0FEF                     	;# 
  1430                           
  1431                           	psect	idataBANK0
  1432     073D                     __pidataBANK0:
  1433                           
  1434                           ;initializer for _LIN_timeout
  1435     073D  340A               	retlw	10
  1436                           
  1437                           	psect	stringtext1
  1438     06D9                     __pstringtext1:
  1439     06D9                     _scheduleTable:
  1440     06D9  3401               	retlw	1
  1441     06DA  3400               	retlw	0
  1442     06DB  3408               	retlw	8
  1443     06DC  340F               	retlw	15
  1444     06DD  3414               	retlw	20
  1445     06DE  3442               	retlw	low (_SW_STATE_Data| 0)
  1446     06DF                     __end_of_scheduleTable:
  1447     000C                     _PORTAbits	set	12
  1448     0015                     _TMR0	set	21
  1449     0011                     _PIR1bits	set	17
  1450     000B                     _INTCONbits	set	11
  1451     0095                     _OPTION_REG	set	149
  1452     0097                     _WDTCON	set	151
  1453     0098                     _OSCTUNE	set	152
  1454     0099                     _OSCCON	set	153
  1455     0095                     _OPTION_REGbits	set	149
  1456     008E                     _TRISC	set	142
  1457     008D                     _TRISB	set	141
  1458     008C                     _TRISA	set	140
  1459     0090                     _TRISE	set	144
  1460     0091                     _PIE1bits	set	145
  1461     04D6                     _PLLR	set	1238
  1462     010D                     _LATBbits	set	269
  1463     0116                     _BORCON	set	278
  1464     011D                     _APFCON	set	285
  1465     010E                     _LATC	set	270
  1466     010D                     _LATB	set	269
  1467     010C                     _LATA	set	268
  1468     0110                     _LATE	set	272
  1469     018C                     _ANSELA	set	396
  1470     018D                     _ANSELB	set	397
  1471     0199                     _RCREG	set	409
  1472     019A                     _TXREG	set	410
  1473     019C                     _SPBRGH	set	412
  1474     019B                     _SPBRGL	set	411
  1475     019E                     _TXSTA	set	414
  1476     019D                     _RCSTA	set	413
  1477     019F                     _BAUDCON	set	415
  1478     019D                     _RCSTAbits	set	413
  1479     019E                     _TXSTAbits	set	414
  1480     020D                     _WPUB	set	525
  1481     0210                     _WPUE	set	528
  1482                           
  1483                           	psect	cinit
  1484     003A                     start_initialization:	
  1485                           ; #config settings
  1486                           
  1487     003A                     __initialization:
  1488                           
  1489                           ; Initialize objects allocated to BANK0
  1490     003A  3187  273D  3180   	fcall	__pidataBANK0	;fetch initializer
  1491     003D  00E6               	movwf	__pdataBANK0& (0+127)
  1492                           
  1493                           ; Clear objects allocated to BANK0
  1494     003E  3020               	movlw	low __pbssBANK0
  1495     003F  0084               	movwf	4
  1496     0040  3000               	movlw	high __pbssBANK0
  1497     0041  0085               	movwf	5
  1498     0042  302A               	movlw	42
  1499     0043  3186  26DF  3180   	fcall	clear_ram0
  1500                           
  1501                           ; Clear objects allocated to BANK1
  1502     0046  30A0               	movlw	low __pbssBANK1
  1503     0047  0084               	movwf	4
  1504     0048  3000               	movlw	high __pbssBANK1
  1505     0049  0085               	movwf	5
  1506     004A  302F               	movlw	47
  1507     004B  3186  26DF  3180   	fcall	clear_ram0
  1508     004E                     end_of_initialization:	
  1509                           ;End of C runtime variable initialization code
  1510                           
  1511     004E                     __end_of__initialization:
  1512     004E  107E               	bcf	int$flags,0	;clear compiler interrupt flag (level 1)
  1513     004F  0020               	movlb	0
  1514     0050  3180  2852         	ljmp	_main	;jump to C main() function
  1515                           
  1516                           	psect	bssBANK0
  1517     0020                     __pbssBANK0:
  1518     0020                     _TMR0_InterruptHandler:
  1519     0020                     	ds	2
  1520     0022                     _EUSART_ErrorHandler:
  1521     0022                     	ds	2
  1522     0024                     _EUSART_OverrunErrorHandler:
  1523     0024                     	ds	2
  1524     0026                     _EUSART_FramingErrorHandler:
  1525     0026                     	ds	2
  1526     0028                     _EUSART_RxDefaultInterruptHandler:
  1527     0028                     	ds	2
  1528     002A                     _EUSART_TxDefaultInterruptHandler:
  1529     002A                     	ds	2
  1530     002C                     _schedule:
  1531     002C                     	ds	2
  1532     002E                     _LIN_processData:
  1533     002E                     	ds	2
  1534     0030                     _timer0ReloadVal:
  1535     0030                     	ds	1
  1536     0031                     _eusartRxLastError:
  1537     0031                     	ds	1
  1538     0032                     _eusartRxCount:
  1539     0032                     	ds	1
  1540     0033                     _eusartRxTail:
  1541     0033                     	ds	1
  1542     0034                     _eusartRxHead:
  1543     0034                     	ds	1
  1544     0035                     _eusartTxBufferRemaining:
  1545     0035                     	ds	1
  1546     0036                     _eusartTxTail:
  1547     0036                     	ds	1
  1548     0037                     _eusartTxHead:
  1549     0037                     	ds	1
  1550     0038                     LIN_sendPeriodicTx@scheduleIndex:
  1551     0038                     	ds	1
  1552     0039                     LIN_receivePacket@rxIndex:
  1553     0039                     	ds	1
  1554     003A                     LIN_handler@LIN_state:
  1555     003A                     	ds	1
  1556     003B                     _LIN_periodCallBack:
  1557     003B                     	ds	1
  1558     003C                     _LIN_timerCallBack:
  1559     003C                     	ds	1
  1560     003D                     _LIN_enablePeriodTx:
  1561     003D                     	ds	1
  1562     003E                     _LIN_timerRunning:
  1563     003E                     	ds	1
  1564     003F                     _LIN_period:
  1565     003F                     	ds	1
  1566     0040                     _scheduleLength:
  1567     0040                     	ds	1
  1568     0041                     _LIN_txReady:
  1569     0041                     	ds	1
  1570     0042                     _SW_STATE_Data:
  1571     0042                     	ds	8
  1572                           
  1573                           	psect	dataBANK0
  1574     0066                     __pdataBANK0:
  1575     0066                     _LIN_timeout:
  1576     0066                     	ds	1
  1577                           
  1578                           	psect	bssBANK1
  1579     00A0                     __pbssBANK1:
  1580     00A0                     _eusartRxStatusBuffer:
  1581     00A0                     	ds	8
  1582     00A8                     _eusartRxBuffer:
  1583     00A8                     	ds	8
  1584     00B0                     _eusartTxBuffer:
  1585     00B0                     	ds	8
  1586     00B8                     _LIN_rxPacket:
  1587     00B8                     	ds	12
  1588     00C4                     _LIN_packet:
  1589     00C4                     	ds	11
  1590                           
  1591                           	psect	clrtext
  1592     06DF                     clear_ram0:	
  1593                           ;	Called with FSR0 containing the base address, and
  1594                           ;	WREG with the size to clear
  1595                           
  1596     06DF  0064               	clrwdt	;clear the watchdog before getting into this loop
  1597     06E0                     clrloop0:
  1598     06E0  0180               	clrf	0	;clear RAM location pointed to by FSR
  1599     06E1  3101               	addfsr 0,1
  1600     06E2  0B89               	decfsz	9,f	;Have we reached the end of clearing yet?
  1601     06E3  2EE0               	goto	clrloop0	;have we reached the end yet?
  1602     06E4  3400               	retlw	0	;all done for this memory range, return
  1603                           
  1604                           	psect	cstackBANK1
  1605     00CF                     __pcstackBANK1:
  1606     00CF                     ??_LIN_handler:
  1607                           
  1608                           ; 1 bytes @ 0x0
  1609     00CF                     	ds	2
  1610                           
  1611                           	psect	cstackCOMMON
  1612     0070                     __pcstackCOMMON:
  1613     0070                     ?_LIN_stopTimer:
  1614     0070                     ?_LIN_setTimerHandler:	
  1615                           ; 1 bytes @ 0x0
  1616                           
  1617     0070                     ?_LIN_startPeriod:	
  1618                           ; 1 bytes @ 0x0
  1619                           
  1620     0070                     ?_LIN_calcParity:	
  1621                           ; 1 bytes @ 0x0
  1622                           
  1623     0070                     ??_LIN_calcParity:	
  1624                           ; 1 bytes @ 0x0
  1625                           
  1626     0070                     ?_LIN_disableRx:	
  1627                           ; 1 bytes @ 0x0
  1628                           
  1629     0070                     ?_LIN_sendPacket:	
  1630                           ; 1 bytes @ 0x0
  1631                           
  1632     0070                     ?_LIN_startTimer:	
  1633                           ; 1 bytes @ 0x0
  1634                           
  1635     0070                     ?_LIN_enableRx:	
  1636                           ; 1 bytes @ 0x0
  1637                           
  1638     0070                     ?_EUSART_is_rx_ready:	
  1639                           ; 1 bytes @ 0x0
  1640                           
  1641     0070                     ?_LIN_receivePacket:	
  1642                           ; 1 bytes @ 0x0
  1643                           
  1644     0070                     ?_EUSART_Read:	
  1645                           ; 1 bytes @ 0x0
  1646                           
  1647     0070                     ?_LIN_sendBreak:	
  1648                           ; 1 bytes @ 0x0
  1649                           
  1650     0070                     ?_EUSART_Write:	
  1651                           ; 1 bytes @ 0x0
  1652                           
  1653     0070                     ?_TMR0_WriteTimer:	
  1654                           ; 1 bytes @ 0x0
  1655                           
  1656     0070                     ?_LIN_sendPeriodicTx:	
  1657                           ; 1 bytes @ 0x0
  1658                           
  1659     0070                     ?_processLIN:	
  1660                           ; 1 bytes @ 0x0
  1661                           
  1662     0070                     ?_EUSART_Receive_ISR:	
  1663                           ; 1 bytes @ 0x0
  1664                           
  1665     0070                     ?_EUSART_Transmit_ISR:	
  1666                           ; 1 bytes @ 0x0
  1667                           
  1668     0070                     ??_EUSART_Transmit_ISR:	
  1669                           ; 1 bytes @ 0x0
  1670                           
  1671     0070                     ?_EUSART_DefaultFramingErrorHandler:	
  1672                           ; 1 bytes @ 0x0
  1673                           
  1674     0070                     ??_EUSART_DefaultFramingErrorHandler:	
  1675                           ; 1 bytes @ 0x0
  1676                           
  1677     0070                     ?_EUSART_DefaultOverrunErrorHandler:	
  1678                           ; 1 bytes @ 0x0
  1679                           
  1680     0070                     ??_EUSART_DefaultOverrunErrorHandler:	
  1681                           ; 1 bytes @ 0x0
  1682                           
  1683     0070                     ?_EUSART_DefaultErrorHandler:	
  1684                           ; 1 bytes @ 0x0
  1685                           
  1686     0070                     ?_EUSART_RxDataHandler:	
  1687                           ; 1 bytes @ 0x0
  1688                           
  1689     0070                     ??_EUSART_RxDataHandler:	
  1690                           ; 1 bytes @ 0x0
  1691                           
  1692     0070                     ?_TMR0_ISR:	
  1693                           ; 1 bytes @ 0x0
  1694                           
  1695     0070                     ?_OSCILLATOR_Initialize:	
  1696                           ; 1 bytes @ 0x0
  1697                           
  1698     0070                     ?_WDT_Initialize:	
  1699                           ; 1 bytes @ 0x0
  1700                           
  1701     0070                     ?_TMR0_Initialize:	
  1702                           ; 1 bytes @ 0x0
  1703                           
  1704     0070                     ?_TMR0_DefaultInterruptHandler:	
  1705                           ; 1 bytes @ 0x0
  1706                           
  1707     0070                     ??_TMR0_DefaultInterruptHandler:	
  1708                           ; 1 bytes @ 0x0
  1709                           
  1710     0070                     ?_LIN_handler:	
  1711                           ; 1 bytes @ 0x0
  1712                           
  1713     0070                     ?_LIN_getPacket:	
  1714                           ; 1 bytes @ 0x0
  1715                           
  1716     0070                     ?_LIN_timerHandler:	
  1717                           ; 1 bytes @ 0x0
  1718                           
  1719     0070                     ?_LIN_Master_Initialize:	
  1720                           ; 1 bytes @ 0x0
  1721                           
  1722     0070                     ?_EUSART_Initialize:	
  1723                           ; 1 bytes @ 0x0
  1724                           
  1725     0070                     ?_EUSART_is_tx_ready:	
  1726                           ; 1 bytes @ 0x0
  1727                           
  1728     0070                     ?_EUSART_is_tx_done:	
  1729                           ; 1 bytes @ 0x0
  1730                           
  1731     0070                     ?_EUSART_get_last_status:	
  1732                           ; 1 bytes @ 0x0
  1733                           
  1734     0070                     ?_PIN_MANAGER_Initialize:	
  1735                           ; 1 bytes @ 0x0
  1736                           
  1737     0070                     ?_PIN_MANAGER_IOC:	
  1738                           ; 1 bytes @ 0x0
  1739                           
  1740     0070                     ?_INTERRUPT_InterruptManager:	
  1741                           ; 1 bytes @ 0x0
  1742                           
  1743     0070                     ?_SYSTEM_Initialize:	
  1744                           ; 1 bytes @ 0x0
  1745                           
  1746     0070                     ?_TMR0_ReadTimer:	
  1747                           ; 1 bytes @ 0x0
  1748                           
  1749     0070                     ?_TMR0_Reload:	
  1750                           ; 1 bytes @ 0x0
  1751                           
  1752     0070                     ?_Clear_No_Call_Warning:	
  1753                           ; 1 bytes @ 0x0
  1754                           
  1755     0070                     ?i1_LIN_getChecksum:	
  1756                           ; 1 bytes @ 0x0
  1757                           
  1758     0070                     ?i1_LIN_stopTimer:	
  1759                           ; 1 bytes @ 0x0
  1760                           
  1761     0070                     ??i1_LIN_stopTimer:	
  1762                           ; 1 bytes @ 0x0
  1763                           
  1764     0070                     ?_main:	
  1765                           ; 1 bytes @ 0x0
  1766                           
  1767     0070                     ?___wmul:	
  1768                           ; 2 bytes @ 0x0
  1769                           
  1770     0070                     ?i1_memcpy:	
  1771                           ; 2 bytes @ 0x0
  1772                           
  1773     0070                     ?i1_memset:	
  1774                           ; 2 bytes @ 0x0
  1775                           
  1776     0070                     i1LIN_getChecksum@pid:	
  1777                           ; 2 bytes @ 0x0
  1778                           
  1779     0070                     i1memcpy@s1:	
  1780                           ; 1 bytes @ 0x0
  1781                           
  1782     0070                     ___wmul@multiplier:	
  1783                           ; 1 bytes @ 0x0
  1784                           
  1785     0070                     i1memset@c:	
  1786                           ; 2 bytes @ 0x0
  1787                           
  1788                           
  1789                           ; 2 bytes @ 0x0
  1790     0070                     	ds	1
  1791     0071                     ??_EUSART_Receive_ISR:
  1792     0071                     ??_EUSART_DefaultErrorHandler:	
  1793                           ; 1 bytes @ 0x1
  1794                           
  1795     0071                     LIN_calcParity@CMD:	
  1796                           ; 1 bytes @ 0x1
  1797                           
  1798     0071                     i1LIN_getChecksum@data:	
  1799                           ; 1 bytes @ 0x1
  1800                           
  1801     0071                     i1memcpy@n:	
  1802                           ; 1 bytes @ 0x1
  1803                           
  1804                           
  1805                           ; 2 bytes @ 0x1
  1806     0071                     	ds	1
  1807     0072                     ??i1_LIN_getChecksum:
  1808     0072                     LIN_calcParity@PID:	
  1809                           ; 1 bytes @ 0x2
  1810                           
  1811     0072                     ___wmul@multiplicand:	
  1812                           ; 1 bytes @ 0x2
  1813                           
  1814     0072                     i1memset@n:	
  1815                           ; 2 bytes @ 0x2
  1816                           
  1817                           
  1818                           ; 2 bytes @ 0x2
  1819     0072                     	ds	1
  1820     0073                     ??i1_memcpy:
  1821                           
  1822                           ; 1 bytes @ 0x3
  1823     0073                     	ds	1
  1824     0074                     ??___wmul:
  1825     0074                     ??i1_memset:	
  1826                           ; 1 bytes @ 0x4
  1827                           
  1828     0074                     i1LIN_getChecksum@length:	
  1829                           ; 1 bytes @ 0x4
  1830                           
  1831     0074                     i1memcpy@d1:	
  1832                           ; 1 bytes @ 0x4
  1833                           
  1834     0074                     ___wmul@product:	
  1835                           ; 1 bytes @ 0x4
  1836                           
  1837                           
  1838                           ; 2 bytes @ 0x4
  1839     0074                     	ds	1
  1840     0075                     i1LIN_getChecksum@i:
  1841     0075                     i1memcpy@tmp:	
  1842                           ; 1 bytes @ 0x5
  1843                           
  1844     0075                     i1memset@dest:	
  1845                           ; 1 bytes @ 0x5
  1846                           
  1847                           
  1848                           ; 1 bytes @ 0x5
  1849     0075                     	ds	1
  1850     0076                     i1memcpy@d:
  1851     0076                     i1memset@p:	
  1852                           ; 1 bytes @ 0x6
  1853                           
  1854     0076                     i1LIN_getChecksum@checksum:	
  1855                           ; 1 bytes @ 0x6
  1856                           
  1857                           
  1858                           ; 2 bytes @ 0x6
  1859     0076                     	ds	1
  1860     0077                     i1memcpy@s:
  1861                           
  1862                           ; 1 bytes @ 0x7
  1863     0077                     	ds	1
  1864     0078                     ?_LIN_queuePacket:
  1865     0078                     LIN_queuePacket@data:	
  1866                           ; 1 bytes @ 0x8
  1867                           
  1868                           
  1869                           ; 1 bytes @ 0x8
  1870     0078                     	ds	1
  1871     0079                     ??_LIN_queuePacket:
  1872                           
  1873                           ; 1 bytes @ 0x9
  1874     0079                     	ds	4
  1875     007D                     ??_LIN_timerHandler:
  1876                           
  1877                           ; 1 bytes @ 0xD
  1878     007D                     	ds	1
  1879     007E                     ??_TMR0_ISR:
  1880     007E                     ??_INTERRUPT_InterruptManager:	
  1881                           ; 1 bytes @ 0xE
  1882                           
  1883                           
  1884                           	psect	cstackBANK0
  1885     004A                     __pcstackBANK0:	
  1886                           ; 1 bytes @ 0xE
  1887                           
  1888     004A                     LIN_queuePacket@cmd:
  1889                           
  1890                           ; 1 bytes @ 0x0
  1891     004A                     	ds	1
  1892     004B                     LIN_queuePacket@i:
  1893                           
  1894                           ; 1 bytes @ 0x1
  1895     004B                     	ds	1
  1896     004C                     LIN_queuePacket@tempSchedule:
  1897                           
  1898                           ; 2 bytes @ 0x2
  1899     004C                     	ds	2
  1900     004E                     ??_LIN_sendPeriodicTx:
  1901                           
  1902                           ; 1 bytes @ 0x4
  1903     004E                     	ds	3
  1904     0051                     LIN_sendPeriodicTx@periodicTx:
  1905                           
  1906                           ; 2 bytes @ 0x7
  1907     0051                     	ds	2
  1908     0053                     ??_LIN_stopTimer:
  1909     0053                     ??_LIN_startPeriod:	
  1910                           ; 1 bytes @ 0x9
  1911                           
  1912     0053                     ?_memset:	
  1913                           ; 1 bytes @ 0x9
  1914                           
  1915     0053                     ?_memcpy:	
  1916                           ; 1 bytes @ 0x9
  1917                           
  1918     0053                     ?_LIN_getChecksum:	
  1919                           ; 1 bytes @ 0x9
  1920                           
  1921     0053                     ??_LIN_disableRx:	
  1922                           ; 1 bytes @ 0x9
  1923                           
  1924     0053                     ??_LIN_enableRx:	
  1925                           ; 1 bytes @ 0x9
  1926                           
  1927     0053                     ??_EUSART_is_rx_ready:	
  1928                           ; 1 bytes @ 0x9
  1929                           
  1930     0053                     ??_EUSART_Read:	
  1931                           ; 1 bytes @ 0x9
  1932                           
  1933     0053                     ??_LIN_sendBreak:	
  1934                           ; 1 bytes @ 0x9
  1935                           
  1936     0053                     ??_EUSART_Write:	
  1937                           ; 1 bytes @ 0x9
  1938                           
  1939     0053                     ??_TMR0_WriteTimer:	
  1940                           ; 1 bytes @ 0x9
  1941                           
  1942     0053                     ?_TMR0_SetInterruptHandler:	
  1943                           ; 1 bytes @ 0x9
  1944                           
  1945     0053                     ?_EUSART_SetRxInterruptHandler:	
  1946                           ; 1 bytes @ 0x9
  1947                           
  1948     0053                     ?_EUSART_SetTxInterruptHandler:	
  1949                           ; 1 bytes @ 0x9
  1950                           
  1951     0053                     ?_EUSART_SetFramingErrorHandler:	
  1952                           ; 1 bytes @ 0x9
  1953                           
  1954     0053                     ?_EUSART_SetOverrunErrorHandler:	
  1955                           ; 1 bytes @ 0x9
  1956                           
  1957     0053                     ?_EUSART_SetErrorHandler:	
  1958                           ; 1 bytes @ 0x9
  1959                           
  1960     0053                     ??_OSCILLATOR_Initialize:	
  1961                           ; 1 bytes @ 0x9
  1962                           
  1963     0053                     ??_WDT_Initialize:	
  1964                           ; 1 bytes @ 0x9
  1965                           
  1966     0053                     ??_EUSART_is_tx_ready:	
  1967                           ; 1 bytes @ 0x9
  1968                           
  1969     0053                     ??_EUSART_is_tx_done:	
  1970                           ; 1 bytes @ 0x9
  1971                           
  1972     0053                     ??_EUSART_get_last_status:	
  1973                           ; 1 bytes @ 0x9
  1974                           
  1975     0053                     ??_PIN_MANAGER_Initialize:	
  1976                           ; 1 bytes @ 0x9
  1977                           
  1978     0053                     ??_PIN_MANAGER_IOC:	
  1979                           ; 1 bytes @ 0x9
  1980                           
  1981     0053                     ??_TMR0_ReadTimer:	
  1982                           ; 1 bytes @ 0x9
  1983                           
  1984     0053                     ??_TMR0_Reload:	
  1985                           ; 1 bytes @ 0x9
  1986                           
  1987     0053                     ??_Clear_No_Call_Warning:	
  1988                           ; 1 bytes @ 0x9
  1989                           
  1990     0053                     LIN_getChecksum@pid:	
  1991                           ; 1 bytes @ 0x9
  1992                           
  1993     0053                     TMR0_WriteTimer@timerVal:	
  1994                           ; 1 bytes @ 0x9
  1995                           
  1996     0053                     memcpy@s1:	
  1997                           ; 1 bytes @ 0x9
  1998                           
  1999     0053                     EUSART_SetFramingErrorHandler@interruptHandler:	
  2000                           ; 1 bytes @ 0x9
  2001                           
  2002     0053                     EUSART_SetOverrunErrorHandler@interruptHandler:	
  2003                           ; 2 bytes @ 0x9
  2004                           
  2005     0053                     EUSART_SetErrorHandler@interruptHandler:	
  2006                           ; 2 bytes @ 0x9
  2007                           
  2008     0053                     EUSART_SetTxInterruptHandler@interruptHandler:	
  2009                           ; 2 bytes @ 0x9
  2010                           
  2011     0053                     EUSART_SetRxInterruptHandler@interruptHandler:	
  2012                           ; 2 bytes @ 0x9
  2013                           
  2014     0053                     TMR0_SetInterruptHandler@InterruptHandler:	
  2015                           ; 2 bytes @ 0x9
  2016                           
  2017     0053                     memset@c:	
  2018                           ; 2 bytes @ 0x9
  2019                           
  2020                           
  2021                           ; 2 bytes @ 0x9
  2022     0053                     	ds	1
  2023     0054                     ??_LIN_startTimer:
  2024     0054                     LIN_getChecksum@data:	
  2025                           ; 1 bytes @ 0xA
  2026                           
  2027     0054                     LIN_startTimer@timeout:	
  2028                           ; 1 bytes @ 0xA
  2029                           
  2030     0054                     EUSART_Read@readValue:	
  2031                           ; 1 bytes @ 0xA
  2032                           
  2033     0054                     EUSART_Write@txData:	
  2034                           ; 1 bytes @ 0xA
  2035                           
  2036     0054                     memcpy@n:	
  2037                           ; 1 bytes @ 0xA
  2038                           
  2039                           
  2040                           ; 2 bytes @ 0xA
  2041     0054                     	ds	1
  2042     0055                     ??_LIN_setTimerHandler:
  2043     0055                     ??_LIN_getChecksum:	
  2044                           ; 1 bytes @ 0xB
  2045                           
  2046     0055                     ??_LIN_sendPacket:	
  2047                           ; 1 bytes @ 0xB
  2048                           
  2049     0055                     ??_TMR0_SetInterruptHandler:	
  2050                           ; 1 bytes @ 0xB
  2051                           
  2052     0055                     ??_EUSART_SetRxInterruptHandler:	
  2053                           ; 1 bytes @ 0xB
  2054                           
  2055     0055                     ??_EUSART_SetTxInterruptHandler:	
  2056                           ; 1 bytes @ 0xB
  2057                           
  2058     0055                     ??_EUSART_SetFramingErrorHandler:	
  2059                           ; 1 bytes @ 0xB
  2060                           
  2061     0055                     ??_EUSART_SetOverrunErrorHandler:	
  2062                           ; 1 bytes @ 0xB
  2063                           
  2064     0055                     ??_EUSART_SetErrorHandler:	
  2065                           ; 1 bytes @ 0xB
  2066                           
  2067     0055                     ??_TMR0_Initialize:	
  2068                           ; 1 bytes @ 0xB
  2069                           
  2070     0055                     ?_LIN_init:	
  2071                           ; 1 bytes @ 0xB
  2072                           
  2073     0055                     ??_EUSART_Initialize:	
  2074                           ; 1 bytes @ 0xB
  2075                           
  2076     0055                     LIN_init@table:	
  2077                           ; 1 bytes @ 0xB
  2078                           
  2079     0055                     memset@n:	
  2080                           ; 2 bytes @ 0xB
  2081                           
  2082                           
  2083                           ; 2 bytes @ 0xB
  2084     0055                     	ds	1
  2085     0056                     ??_memcpy:
  2086     0056                     LIN_sendPacket@i:	
  2087                           ; 1 bytes @ 0xC
  2088                           
  2089                           
  2090                           ; 1 bytes @ 0xC
  2091     0056                     	ds	1
  2092     0057                     ??_memset:
  2093     0057                     LIN_getChecksum@length:	
  2094                           ; 1 bytes @ 0xD
  2095                           
  2096     0057                     memcpy@tmp:	
  2097                           ; 1 bytes @ 0xD
  2098                           
  2099     0057                     LIN_init@processData:	
  2100                           ; 1 bytes @ 0xD
  2101                           
  2102                           
  2103                           ; 2 bytes @ 0xD
  2104     0057                     	ds	1
  2105     0058                     LIN_getChecksum@i:
  2106     0058                     memcpy@d:	
  2107                           ; 1 bytes @ 0xE
  2108                           
  2109     0058                     memset@p:	
  2110                           ; 1 bytes @ 0xE
  2111                           
  2112                           
  2113                           ; 1 bytes @ 0xE
  2114     0058                     	ds	1
  2115     0059                     ??_LIN_init:
  2116     0059                     LIN_init@tableLength:	
  2117                           ; 1 bytes @ 0xF
  2118                           
  2119     0059                     memcpy@s:	
  2120                           ; 1 bytes @ 0xF
  2121                           
  2122     0059                     memset@dest:	
  2123                           ; 1 bytes @ 0xF
  2124                           
  2125     0059                     LIN_getChecksum@checksum:	
  2126                           ; 1 bytes @ 0xF
  2127                           
  2128                           
  2129                           ; 2 bytes @ 0xF
  2130     0059                     	ds	1
  2131     005A                     ??_LIN_Master_Initialize:
  2132     005A                     ??_SYSTEM_Initialize:	
  2133                           ; 1 bytes @ 0x10
  2134                           
  2135     005A                     memcpy@d1:	
  2136                           ; 1 bytes @ 0x10
  2137                           
  2138                           
  2139                           ; 1 bytes @ 0x10
  2140     005A                     	ds	1
  2141     005B                     ??_LIN_receivePacket:
  2142     005B                     ??_LIN_getPacket:	
  2143                           ; 1 bytes @ 0x11
  2144                           
  2145     005B                     LIN_getPacket@cmd:	
  2146                           ; 1 bytes @ 0x11
  2147                           
  2148                           
  2149                           ; 1 bytes @ 0x11
  2150     005B                     	ds	1
  2151     005C                     LIN_getPacket@data:
  2152                           
  2153                           ; 1 bytes @ 0x12
  2154     005C                     	ds	1
  2155     005D                     ??_processLIN:
  2156     005D                     processLIN@tempRxData:	
  2157                           ; 1 bytes @ 0x13
  2158                           
  2159                           
  2160                           ; 8 bytes @ 0x13
  2161     005D                     	ds	8
  2162     0065                     processLIN@cmd:
  2163                           
  2164                           ; 1 bytes @ 0x1B
  2165     0065                     	ds	1
  2166     0066                     ??_main:
  2167                           
  2168                           	psect	maintext
  2169     0052                     __pmaintext:	
  2170                           ; 1 bytes @ 0x1C
  2171 ;;
  2172 ;;Main: autosize = 0, tempsize = 0, incstack = 0, save=0
  2173 ;;
  2174 ;; *************** function _main *****************
  2175 ;; Defined at:
  2176 ;;		line 214 in file "main.c"
  2177 ;; Parameters:    Size  Location     Type
  2178 ;;		None
  2179 ;; Auto vars:     Size  Location     Type
  2180 ;;		None
  2181 ;; Return value:  Size  Location     Type
  2182 ;;                  2  520[None  ] int 
  2183 ;; Registers used:
  2184 ;;		wreg, fsr0l, fsr0h, fsr1l, fsr1h, status,2, status,0, pclath, cstack
  2185 ;; Tracked objects:
  2186 ;;		On entry : B1F/0
  2187 ;;		On exit  : 0/0
  2188 ;;		Unchanged: 0/0
  2189 ;; Data sizes:     COMMON   BANK0   BANK1   BANK2   BANK3   BANK4   BANK5   BANK6
  2190 ;;      Params:         0       0       0       0       0       0       0       0
  2191 ;;      Locals:         0       0       0       0       0       0       0       0
  2192 ;;      Temps:          0       0       0       0       0       0       0       0
  2193 ;;      Totals:         0       0       0       0       0       0       0       0
  2194 ;;Total ram usage:        0 bytes
  2195 ;; Hardware stack levels required when called: 11
  2196 ;; This function calls:
  2197 ;;		_Clear_No_Call_Warning
  2198 ;;		_LIN_handler
  2199 ;;		_SYSTEM_Initialize
  2200 ;; This function is called by:
  2201 ;;		Startup code after reset
  2202 ;; This function uses a non-reentrant model
  2203 ;;
  2204                           
  2205     0052                     _main:	
  2206                           ;psect for function _main
  2207                           
  2208     0052                     l2690:	
  2209                           ;incstack = 0
  2210                           ; Regs used in _main: [wreg-fsr1h+status,2+status,0+pclath+cstack]
  2211                           
  2212                           
  2213                           ;main.c: 216:   SYSTEM_Initialize();
  2214     0052  3186  2671  3180   	fcall	_SYSTEM_Initialize
  2215     0055                     l2692:
  2216                           
  2217                           ;main.c: 222:   (INTCONbits.GIE = 1);
  2218     0055  178B               	bsf	11,7	;volatile
  2219     0056                     l2694:
  2220                           
  2221                           ;main.c: 225:   (INTCONbits.PEIE = 1);
  2222     0056  170B               	bsf	11,6	;volatile
  2223     0057                     l2696:
  2224                           
  2225                           ;main.c: 233:   SW_STATE_Data[0] = 0x24;
  2226     0057  3024               	movlw	36
  2227     0058  0020               	movlb	0	; select bank0
  2228     0059  00C2               	movwf	_SW_STATE_Data
  2229     005A                     l2698:
  2230                           
  2231                           ;main.c: 234:   SW_STATE_Data[1] = 0x00;
  2232     005A  01C3               	clrf	_SW_STATE_Data+1
  2233     005B                     l2700:
  2234                           
  2235                           ;main.c: 235:   SW_STATE_Data[2] = 0x00;
  2236     005B  01C4               	clrf	_SW_STATE_Data+2
  2237     005C                     l2702:
  2238                           
  2239                           ;main.c: 236:   SW_STATE_Data[3] = 0x00;
  2240     005C  01C5               	clrf	_SW_STATE_Data+3
  2241     005D                     l2704:
  2242                           
  2243                           ;main.c: 237:   SW_STATE_Data[4] = 0x00;
  2244     005D  01C6               	clrf	_SW_STATE_Data+4
  2245     005E                     l2706:
  2246                           
  2247                           ;main.c: 238:   SW_STATE_Data[5] = 0x00;
  2248     005E  01C7               	clrf	_SW_STATE_Data+5
  2249     005F                     l2708:
  2250                           
  2251                           ;main.c: 239:   SW_STATE_Data[6] = 0x00;
  2252     005F  01C8               	clrf	_SW_STATE_Data+6
  2253     0060                     l2710:
  2254                           
  2255                           ;main.c: 240:   SW_STATE_Data[7] = 0x00;
  2256     0060  01C9               	clrf	_SW_STATE_Data+7
  2257     0061                     l2712:
  2258                           
  2259                           ;main.c: 242:   Clear_No_Call_Warning();
  2260     0061  3187  273E  3180   	fcall	_Clear_No_Call_Warning
  2261     0064                     l2714:
  2262                           
  2263                           ;main.c: 245:     LIN_handler();
  2264     0064  3182  22F7  3180   	fcall	_LIN_handler
  2265     0067                     l2716:
  2266                           
  2267                           ;main.c: 247:     if((PORTAbits.RA3 == 1) && (PORTAbits.RA1 == 1) && (PORTAbits.RA0 == 1
      +                          )){
  2268     0067  0020               	movlb	0	; select bank0
  2269     0068  1D8C               	btfss	12,3	;volatile
  2270     0069  286B               	goto	u2201
  2271     006A  286C               	goto	u2200
  2272     006B                     u2201:
  2273     006B  2884               	goto	l522
  2274     006C                     u2200:
  2275     006C                     l2718:
  2276     006C  1C8C               	btfss	12,1	;volatile
  2277     006D  286F               	goto	u2211
  2278     006E  2870               	goto	u2210
  2279     006F                     u2211:
  2280     006F  2884               	goto	l522
  2281     0070                     u2210:
  2282     0070                     l2720:
  2283     0070  1C0C               	btfss	12,0	;volatile
  2284     0071  2873               	goto	u2221
  2285     0072  2874               	goto	u2220
  2286     0073                     u2221:
  2287     0073  2884               	goto	l522
  2288     0074                     u2220:
  2289     0074                     l523:	
  2290                           ;main.c: 248:       do { LATBbits.LATB2 = 0; } while(0);
  2291                           
  2292     0074  0022               	movlb	2	; select bank2
  2293     0075  110D               	bcf	13,2	;volatile
  2294     0076                     l525:	
  2295                           ;main.c: 249:       do { LATBbits.LATB4 = 0; } while(0);
  2296                           
  2297     0076  120D               	bcf	13,4	;volatile
  2298     0077                     l527:	
  2299                           ;main.c: 250:       do { LATBbits.LATB5 = 0; } while(0);
  2300                           
  2301     0077  128D               	bcf	13,5	;volatile
  2302     0078                     l528:
  2303                           
  2304                           ;main.c: 251:       SW_STATE_Data[0] = 0x01;
  2305     0078  0020               	movlb	0	; select bank0
  2306     0079  01C2               	clrf	_SW_STATE_Data
  2307     007A  0AC2               	incf	_SW_STATE_Data,f
  2308     007B                     l2722:
  2309                           
  2310                           ;main.c: 252:       SW_STATE_Data[1] = 0x00;
  2311     007B  01C3               	clrf	_SW_STATE_Data+1
  2312                           
  2313                           ;main.c: 253:       SW_STATE_Data[2] = 0x00;
  2314     007C  01C4               	clrf	_SW_STATE_Data+2
  2315                           
  2316                           ;main.c: 254:       SW_STATE_Data[3] = 0x00;
  2317     007D  01C5               	clrf	_SW_STATE_Data+3
  2318     007E                     l2724:
  2319                           
  2320                           ;main.c: 255:       SW_STATE_Data[4] = 0x07;
  2321     007E  3007               	movlw	7
  2322     007F  00C6               	movwf	_SW_STATE_Data+4
  2323     0080                     l2726:
  2324                           
  2325                           ;main.c: 256:       SW_STATE_Data[5] = 0x00;
  2326     0080  01C7               	clrf	_SW_STATE_Data+5
  2327     0081                     l2728:
  2328                           
  2329                           ;main.c: 257:       SW_STATE_Data[6] = 0x00;
  2330     0081  01C8               	clrf	_SW_STATE_Data+6
  2331     0082                     l2730:
  2332                           
  2333                           ;main.c: 258:       SW_STATE_Data[7] = 0x00;
  2334     0082  01C9               	clrf	_SW_STATE_Data+7
  2335                           
  2336                           ;main.c: 259:     }else if((PORTAbits.RA3 == 1) && (PORTAbits.RA1 == 1) && (PORTAbits.RA
      +                          0 == 0)){
  2337     0083  28E2               	goto	l2804
  2338     0084                     l522:
  2339     0084  1D8C               	btfss	12,3	;volatile
  2340     0085  2887               	goto	u2231
  2341     0086  2888               	goto	u2230
  2342     0087                     u2231:
  2343     0087  289F               	goto	l530
  2344     0088                     u2230:
  2345     0088                     l2732:
  2346     0088  1C8C               	btfss	12,1	;volatile
  2347     0089  288B               	goto	u2241
  2348     008A  288C               	goto	u2240
  2349     008B                     u2241:
  2350     008B  289F               	goto	l530
  2351     008C                     u2240:
  2352     008C                     l2734:
  2353     008C  180C               	btfsc	12,0	;volatile
  2354     008D  288F               	goto	u2251
  2355     008E  2890               	goto	u2250
  2356     008F                     u2251:
  2357     008F  289F               	goto	l530
  2358     0090                     u2250:
  2359     0090                     l531:	
  2360                           ;main.c: 260:       do { LATBbits.LATB2 = 0; } while(0);
  2361                           
  2362     0090  0022               	movlb	2	; select bank2
  2363     0091  110D               	bcf	13,2	;volatile
  2364     0092                     l533:	
  2365                           ;main.c: 261:       do { LATBbits.LATB4 = 0; } while(0);
  2366                           
  2367     0092  120D               	bcf	13,4	;volatile
  2368     0093                     l535:	
  2369                           ;main.c: 262:       do { LATBbits.LATB5 = 1; } while(0);
  2370                           
  2371     0093  168D               	bsf	13,5	;volatile
  2372     0094                     l2736:
  2373                           
  2374                           ;main.c: 263:       SW_STATE_Data[0] = 0x24;
  2375     0094  3024               	movlw	36
  2376     0095  0020               	movlb	0	; select bank0
  2377     0096  00C2               	movwf	_SW_STATE_Data
  2378     0097                     l2738:
  2379                           
  2380                           ;main.c: 264:       SW_STATE_Data[1] = 0x00;
  2381     0097  01C3               	clrf	_SW_STATE_Data+1
  2382     0098                     l2740:
  2383                           
  2384                           ;main.c: 265:       SW_STATE_Data[2] = 0x00;
  2385     0098  01C4               	clrf	_SW_STATE_Data+2
  2386     0099                     l2742:
  2387                           
  2388                           ;main.c: 266:       SW_STATE_Data[3] = 0x00;
  2389     0099  01C5               	clrf	_SW_STATE_Data+3
  2390     009A                     l2744:
  2391                           
  2392                           ;main.c: 267:       SW_STATE_Data[4] = 0x07;
  2393     009A  3007               	movlw	7
  2394     009B  00C6               	movwf	_SW_STATE_Data+4
  2395     009C                     l2746:
  2396                           
  2397                           ;main.c: 268:       SW_STATE_Data[5] = 0x20;
  2398     009C  3020               	movlw	32
  2399     009D  00C7               	movwf	_SW_STATE_Data+5
  2400     009E  2881               	goto	l2728
  2401     009F                     l530:
  2402     009F  1D8C               	btfss	12,3	;volatile
  2403     00A0  28A2               	goto	u2261
  2404     00A1  28A3               	goto	u2260
  2405     00A2                     u2261:
  2406     00A2  28B7               	goto	l538
  2407     00A3                     u2260:
  2408     00A3                     l2752:
  2409     00A3  188C               	btfsc	12,1	;volatile
  2410     00A4  28A6               	goto	u2271
  2411     00A5  28A7               	goto	u2270
  2412     00A6                     u2271:
  2413     00A6  28B7               	goto	l538
  2414     00A7                     u2270:
  2415     00A7                     l2754:
  2416     00A7  1C0C               	btfss	12,0	;volatile
  2417     00A8  28AA               	goto	u2281
  2418     00A9  28AB               	goto	u2280
  2419     00AA                     u2281:
  2420     00AA  28B7               	goto	l538
  2421     00AB                     u2280:
  2422     00AB                     l539:	
  2423                           ;main.c: 272:       do { LATBbits.LATB2 = 0; } while(0);
  2424                           
  2425     00AB  0022               	movlb	2	; select bank2
  2426     00AC  110D               	bcf	13,2	;volatile
  2427     00AD                     l541:	
  2428                           ;main.c: 273:       do { LATBbits.LATB4 = 1; } while(0);
  2429                           
  2430     00AD  160D               	bsf	13,4	;volatile
  2431     00AE                     l543:	
  2432                           ;main.c: 274:       do { LATBbits.LATB5 = 0; } while(0);
  2433                           
  2434     00AE  128D               	bcf	13,5	;volatile
  2435     00AF                     l2756:
  2436                           
  2437                           ;main.c: 275:       SW_STATE_Data[0] = 0x24;
  2438     00AF  3024               	movlw	36
  2439     00B0  0020               	movlb	0	; select bank0
  2440     00B1  00C2               	movwf	_SW_STATE_Data
  2441     00B2                     l2758:
  2442                           
  2443                           ;main.c: 276:       SW_STATE_Data[1] = 0x00;
  2444     00B2  01C3               	clrf	_SW_STATE_Data+1
  2445     00B3                     l2760:
  2446                           
  2447                           ;main.c: 277:       SW_STATE_Data[2] = 0x40;
  2448     00B3  3040               	movlw	64
  2449     00B4  00C4               	movwf	_SW_STATE_Data+2
  2450                           
  2451                           ;main.c: 278:       SW_STATE_Data[3] = 0x00;
  2452     00B5  01C5               	clrf	_SW_STATE_Data+3
  2453     00B6  287E               	goto	l2724
  2454     00B7                     l538:
  2455     00B7  1D8C               	btfss	12,3	;volatile
  2456     00B8  28BA               	goto	u2291
  2457     00B9  28BB               	goto	u2290
  2458     00BA                     u2291:
  2459     00BA  28C8               	goto	l546
  2460     00BB                     u2290:
  2461     00BB                     l2770:
  2462     00BB  188C               	btfsc	12,1	;volatile
  2463     00BC  28BE               	goto	u2301
  2464     00BD  28BF               	goto	u2300
  2465     00BE                     u2301:
  2466     00BE  28C8               	goto	l546
  2467     00BF                     u2300:
  2468     00BF                     l2772:
  2469     00BF  180C               	btfsc	12,0	;volatile
  2470     00C0  28C2               	goto	u2311
  2471     00C1  28C3               	goto	u2310
  2472     00C2                     u2311:
  2473     00C2  28C8               	goto	l546
  2474     00C3                     u2310:
  2475     00C3                     l547:	
  2476                           ;main.c: 284:       do { LATBbits.LATB2 = 1; } while(0);
  2477                           
  2478     00C3  0022               	movlb	2	; select bank2
  2479     00C4  150D               	bsf	13,2	;volatile
  2480     00C5                     l549:	
  2481                           ;main.c: 285:       do { LATBbits.LATB4 = 1; } while(0);
  2482                           
  2483     00C5  160D               	bsf	13,4	;volatile
  2484     00C6                     l551:	
  2485                           ;main.c: 286:       do { LATBbits.LATB5 = 1; } while(0);
  2486                           
  2487     00C6  168D               	bsf	13,5	;volatile
  2488     00C7  28AF               	goto	l2756
  2489     00C8                     l546:
  2490     00C8  198C               	btfsc	12,3	;volatile
  2491     00C9  28CB               	goto	u2321
  2492     00CA  28CC               	goto	u2320
  2493     00CB                     u2321:
  2494     00CB  28E2               	goto	l537
  2495     00CC                     u2320:
  2496     00CC                     l2788:
  2497     00CC  1C8C               	btfss	12,1	;volatile
  2498     00CD  28CF               	goto	u2331
  2499     00CE  28D0               	goto	u2330
  2500     00CF                     u2331:
  2501     00CF  28E2               	goto	l537
  2502     00D0                     u2330:
  2503     00D0                     l2790:
  2504     00D0  1C0C               	btfss	12,0	;volatile
  2505     00D1  28D3               	goto	u2341
  2506     00D2  28D4               	goto	u2340
  2507     00D3                     u2341:
  2508     00D3  28E2               	goto	l537
  2509     00D4                     u2340:
  2510     00D4                     l555:	
  2511                           ;main.c: 296:       do { LATBbits.LATB2 = 1; } while(0);
  2512                           
  2513     00D4  0022               	movlb	2	; select bank2
  2514     00D5  150D               	bsf	13,2	;volatile
  2515     00D6                     l557:	
  2516                           ;main.c: 297:       do { LATBbits.LATB4 = 0; } while(0);
  2517                           
  2518     00D6  120D               	bcf	13,4	;volatile
  2519     00D7                     l559:	
  2520                           ;main.c: 298:       do { LATBbits.LATB5 = 0; } while(0);
  2521                           
  2522     00D7  128D               	bcf	13,5	;volatile
  2523     00D8                     l2792:
  2524                           
  2525                           ;main.c: 299:       SW_STATE_Data[0] = 0x24;
  2526     00D8  3024               	movlw	36
  2527     00D9  0020               	movlb	0	; select bank0
  2528     00DA  00C2               	movwf	_SW_STATE_Data
  2529                           
  2530                           ;main.c: 300:       SW_STATE_Data[1] = 0xC0;
  2531     00DB  30C0               	movlw	192
  2532     00DC  00C3               	movwf	_SW_STATE_Data+1
  2533     00DD                     l2794:
  2534                           
  2535                           ;main.c: 301:       SW_STATE_Data[2] = 0x00;
  2536     00DD  01C4               	clrf	_SW_STATE_Data+2
  2537     00DE                     l2796:
  2538                           
  2539                           ;main.c: 302:       SW_STATE_Data[3] = 0x00;
  2540     00DE  01C5               	clrf	_SW_STATE_Data+3
  2541                           
  2542                           ;main.c: 303:       SW_STATE_Data[4] = 0x07;
  2543     00DF  3007               	movlw	7
  2544     00E0  00C6               	movwf	_SW_STATE_Data+4
  2545     00E1  2880               	goto	l2726
  2546     00E2                     l537:
  2547     00E2                     l2804:
  2548     00E2  198C               	btfsc	12,3	;volatile
  2549     00E3  28E5               	goto	u2351
  2550     00E4  28E6               	goto	u2350
  2551     00E5                     u2351:
  2552     00E5  28FF               	goto	l2820
  2553     00E6                     u2350:
  2554     00E6                     l2806:
  2555     00E6  1C8C               	btfss	12,1	;volatile
  2556     00E7  28E9               	goto	u2361
  2557     00E8  28EA               	goto	u2360
  2558     00E9                     u2361:
  2559     00E9  28FF               	goto	l2820
  2560     00EA                     u2360:
  2561     00EA                     l2808:
  2562     00EA  180C               	btfsc	12,0	;volatile
  2563     00EB  28ED               	goto	u2371
  2564     00EC  28EE               	goto	u2370
  2565     00ED                     u2371:
  2566     00ED  28FF               	goto	l2820
  2567     00EE                     u2370:
  2568     00EE                     l562:	
  2569                           ;main.c: 308:       do { LATBbits.LATB2 = 1; } while(0);
  2570                           
  2571     00EE  0022               	movlb	2	; select bank2
  2572     00EF  150D               	bsf	13,2	;volatile
  2573     00F0                     l564:	
  2574                           ;main.c: 309:       do { LATBbits.LATB4 = 0; } while(0);
  2575                           
  2576     00F0  120D               	bcf	13,4	;volatile
  2577     00F1                     l566:	
  2578                           ;main.c: 310:       do { LATBbits.LATB5 = 1; } while(0);
  2579                           
  2580     00F1  168D               	bsf	13,5	;volatile
  2581     00F2                     l2810:
  2582                           
  2583                           ;main.c: 311:       SW_STATE_Data[0] = 0x24;
  2584     00F2  3024               	movlw	36
  2585     00F3  0020               	movlb	0	; select bank0
  2586     00F4  00C2               	movwf	_SW_STATE_Data
  2587                           
  2588                           ;main.c: 312:       SW_STATE_Data[1] = 0xC0;
  2589     00F5  30C0               	movlw	192
  2590     00F6  00C3               	movwf	_SW_STATE_Data+1
  2591     00F7                     l2812:
  2592                           
  2593                           ;main.c: 313:       SW_STATE_Data[2] = 0x00;
  2594     00F7  01C4               	clrf	_SW_STATE_Data+2
  2595     00F8                     l2814:
  2596                           
  2597                           ;main.c: 314:       SW_STATE_Data[3] = 0x00;
  2598     00F8  01C5               	clrf	_SW_STATE_Data+3
  2599                           
  2600                           ;main.c: 315:       SW_STATE_Data[4] = 0x07;
  2601     00F9  3007               	movlw	7
  2602     00FA  00C6               	movwf	_SW_STATE_Data+4
  2603                           
  2604                           ;main.c: 316:       SW_STATE_Data[5] = 0x20;
  2605     00FB  3020               	movlw	32
  2606     00FC  00C7               	movwf	_SW_STATE_Data+5
  2607     00FD                     l2816:
  2608                           
  2609                           ;main.c: 317:       SW_STATE_Data[6] = 0x00;
  2610     00FD  01C8               	clrf	_SW_STATE_Data+6
  2611     00FE                     l2818:
  2612                           
  2613                           ;main.c: 318:       SW_STATE_Data[7] = 0x00;
  2614     00FE  01C9               	clrf	_SW_STATE_Data+7
  2615     00FF                     l2820:
  2616     00FF  198C               	btfsc	12,3	;volatile
  2617     0100  2902               	goto	u2381
  2618     0101  2903               	goto	u2380
  2619     0102                     u2381:
  2620     0102  291C               	goto	l2832
  2621     0103                     u2380:
  2622     0103                     l2822:
  2623     0103  188C               	btfsc	12,1	;volatile
  2624     0104  2906               	goto	u2391
  2625     0105  2907               	goto	u2390
  2626     0106                     u2391:
  2627     0106  291C               	goto	l2832
  2628     0107                     u2390:
  2629     0107                     l2824:
  2630     0107  1C0C               	btfss	12,0	;volatile
  2631     0108  290A               	goto	u2401
  2632     0109  290B               	goto	u2400
  2633     010A                     u2401:
  2634     010A  291C               	goto	l2832
  2635     010B                     u2400:
  2636     010B                     l569:	
  2637                           ;main.c: 320:       do { LATBbits.LATB2 = 1; } while(0);
  2638                           
  2639     010B  0022               	movlb	2	; select bank2
  2640     010C  150D               	bsf	13,2	;volatile
  2641     010D                     l571:	
  2642                           ;main.c: 321:       do { LATBbits.LATB4 = 1; } while(0);
  2643                           
  2644     010D  160D               	bsf	13,4	;volatile
  2645     010E                     l573:	
  2646                           ;main.c: 322:       do { LATBbits.LATB5 = 0; } while(0);
  2647                           
  2648     010E  128D               	bcf	13,5	;volatile
  2649     010F                     l2826:
  2650                           
  2651                           ;main.c: 323:       SW_STATE_Data[0] = 0x24;
  2652     010F  3024               	movlw	36
  2653     0110  0020               	movlb	0	; select bank0
  2654     0111  00C2               	movwf	_SW_STATE_Data
  2655                           
  2656                           ;main.c: 324:       SW_STATE_Data[1] = 0xC0;
  2657     0112  30C0               	movlw	192
  2658     0113  00C3               	movwf	_SW_STATE_Data+1
  2659                           
  2660                           ;main.c: 325:       SW_STATE_Data[2] = 0x40;
  2661     0114  3040               	movlw	64
  2662     0115  00C4               	movwf	_SW_STATE_Data+2
  2663     0116                     l2828:
  2664                           
  2665                           ;main.c: 326:       SW_STATE_Data[3] = 0x00;
  2666     0116  01C5               	clrf	_SW_STATE_Data+3
  2667     0117                     l2830:
  2668                           
  2669                           ;main.c: 327:       SW_STATE_Data[4] = 0x07;
  2670     0117  3007               	movlw	7
  2671     0118  00C6               	movwf	_SW_STATE_Data+4
  2672                           
  2673                           ;main.c: 328:       SW_STATE_Data[5] = 0x00;
  2674     0119  01C7               	clrf	_SW_STATE_Data+5
  2675                           
  2676                           ;main.c: 329:       SW_STATE_Data[6] = 0x00;
  2677     011A  01C8               	clrf	_SW_STATE_Data+6
  2678                           
  2679                           ;main.c: 330:       SW_STATE_Data[7] = 0x00;
  2680     011B  01C9               	clrf	_SW_STATE_Data+7
  2681     011C                     l2832:
  2682     011C  198C               	btfsc	12,3	;volatile
  2683     011D  291F               	goto	u2411
  2684     011E  2920               	goto	u2410
  2685     011F                     u2411:
  2686     011F  2864               	goto	l2714
  2687     0120                     u2410:
  2688     0120                     l2834:
  2689     0120  188C               	btfsc	12,1	;volatile
  2690     0121  2923               	goto	u2421
  2691     0122  2924               	goto	u2420
  2692     0123                     u2421:
  2693     0123  2864               	goto	l2714
  2694     0124                     u2420:
  2695     0124                     l2836:
  2696     0124  180C               	btfsc	12,0	;volatile
  2697     0125  2927               	goto	u2431
  2698     0126  2928               	goto	u2430
  2699     0127                     u2431:
  2700     0127  2864               	goto	l2714
  2701     0128                     u2430:
  2702     0128                     l576:	
  2703                           ;main.c: 332:       do { LATBbits.LATB2 = 1; } while(0);
  2704                           
  2705     0128  0022               	movlb	2	; select bank2
  2706     0129  150D               	bsf	13,2	;volatile
  2707     012A                     l578:	
  2708                           ;main.c: 333:       do { LATBbits.LATB4 = 1; } while(0);
  2709                           
  2710     012A  160D               	bsf	13,4	;volatile
  2711     012B                     l580:	
  2712                           ;main.c: 334:       do { LATBbits.LATB5 = 1; } while(0);
  2713                           
  2714     012B  168D               	bsf	13,5	;volatile
  2715     012C                     l2838:
  2716                           
  2717                           ;main.c: 335:       SW_STATE_Data[0] = 0x24;
  2718     012C  3024               	movlw	36
  2719     012D  0020               	movlb	0	; select bank0
  2720     012E  00C2               	movwf	_SW_STATE_Data
  2721                           
  2722                           ;main.c: 336:       SW_STATE_Data[1] = 0xC0;
  2723     012F  30C0               	movlw	192
  2724     0130  00C3               	movwf	_SW_STATE_Data+1
  2725                           
  2726                           ;main.c: 337:       SW_STATE_Data[2] = 0x40;
  2727     0131  3040               	movlw	64
  2728     0132  00C4               	movwf	_SW_STATE_Data+2
  2729     0133                     l2840:
  2730                           
  2731                           ;main.c: 338:       SW_STATE_Data[3] = 0x00;
  2732     0133  01C5               	clrf	_SW_STATE_Data+3
  2733     0134                     l2842:
  2734                           
  2735                           ;main.c: 339:       SW_STATE_Data[4] = 0x07;
  2736     0134  3007               	movlw	7
  2737     0135  00C6               	movwf	_SW_STATE_Data+4
  2738                           
  2739                           ;main.c: 340:       SW_STATE_Data[5] = 0x00;
  2740     0136  01C7               	clrf	_SW_STATE_Data+5
  2741                           
  2742                           ;main.c: 341:       SW_STATE_Data[6] = 0x00;
  2743     0137  01C8               	clrf	_SW_STATE_Data+6
  2744                           
  2745                           ;main.c: 342:       SW_STATE_Data[7] = 0x00;
  2746     0138  01C9               	clrf	_SW_STATE_Data+7
  2747     0139  2864               	goto	l2714
  2748     013A  3180  2838         	ljmp	start
  2749     013C                     __end_of_main:
  2750                           
  2751                           	psect	text1
  2752     0671                     __ptext1:	
  2753 ;; *************** function _SYSTEM_Initialize *****************
  2754 ;; Defined at:
  2755 ;;		line 50 in file "mcc_generated_files/mcc.c"
  2756 ;; Parameters:    Size  Location     Type
  2757 ;;		None
  2758 ;; Auto vars:     Size  Location     Type
  2759 ;;		None
  2760 ;; Return value:  Size  Location     Type
  2761 ;;                  1    wreg      void 
  2762 ;; Registers used:
  2763 ;;		wreg, status,2, status,0, pclath, cstack
  2764 ;; Tracked objects:
  2765 ;;		On entry : 0/0
  2766 ;;		On exit  : 0/0
  2767 ;;		Unchanged: 0/0
  2768 ;; Data sizes:     COMMON   BANK0   BANK1   BANK2   BANK3   BANK4   BANK5   BANK6
  2769 ;;      Params:         0       0       0       0       0       0       0       0
  2770 ;;      Locals:         0       0       0       0       0       0       0       0
  2771 ;;      Temps:          0       0       0       0       0       0       0       0
  2772 ;;      Totals:         0       0       0       0       0       0       0       0
  2773 ;;Total ram usage:        0 bytes
  2774 ;; Hardware stack levels used: 1
  2775 ;; Hardware stack levels required when called: 10
  2776 ;; This function calls:
  2777 ;;		_EUSART_Initialize
  2778 ;;		_LIN_Master_Initialize
  2779 ;;		_OSCILLATOR_Initialize
  2780 ;;		_PIN_MANAGER_Initialize
  2781 ;;		_TMR0_Initialize
  2782 ;;		_WDT_Initialize
  2783 ;; This function is called by:
  2784 ;;		_main
  2785 ;; This function uses a non-reentrant model
  2786 ;;
  2787                           
  2788     0671                     _SYSTEM_Initialize:	
  2789                           ;psect for function _SYSTEM_Initialize
  2790                           
  2791     0671                     l2418:	
  2792                           ;incstack = 0
  2793                           ; Regs used in _SYSTEM_Initialize: [wreg+status,2+status,0+pclath+cstack]
  2794                           
  2795                           
  2796                           ;mcc_generated_files/mcc.c: 53:     PIN_MANAGER_Initialize();
  2797     0671  3185  25FA  3186   	fcall	_PIN_MANAGER_Initialize
  2798                           
  2799                           ;mcc_generated_files/mcc.c: 54:     OSCILLATOR_Initialize();
  2800     0674  3186  26AF  3186   	fcall	_OSCILLATOR_Initialize
  2801                           
  2802                           ;mcc_generated_files/mcc.c: 55:     WDT_Initialize();
  2803     0677  3187  2718  3186   	fcall	_WDT_Initialize
  2804                           
  2805                           ;mcc_generated_files/mcc.c: 56:     TMR0_Initialize();
  2806     067A  3186  265D  3186   	fcall	_TMR0_Initialize
  2807                           
  2808                           ;mcc_generated_files/mcc.c: 57:     EUSART_Initialize();
  2809     067D  3183  2370  3186   	fcall	_EUSART_Initialize
  2810                           
  2811                           ;mcc_generated_files/mcc.c: 58:     LIN_Master_Initialize();
  2812     0680  3186  2694  3186   	fcall	_LIN_Master_Initialize
  2813     0683                     l429:
  2814     0683  0008               	return
  2815     0684                     __end_of_SYSTEM_Initialize:
  2816                           
  2817                           	psect	text2
  2818     0718                     __ptext2:	
  2819 ;; *************** function _WDT_Initialize *****************
  2820 ;; Defined at:
  2821 ;;		line 75 in file "mcc_generated_files/mcc.c"
  2822 ;; Parameters:    Size  Location     Type
  2823 ;;		None
  2824 ;; Auto vars:     Size  Location     Type
  2825 ;;		None
  2826 ;; Return value:  Size  Location     Type
  2827 ;;                  1    wreg      void 
  2828 ;; Registers used:
  2829 ;;		wreg
  2830 ;; Tracked objects:
  2831 ;;		On entry : 0/0
  2832 ;;		On exit  : 0/0
  2833 ;;		Unchanged: 0/0
  2834 ;; Data sizes:     COMMON   BANK0   BANK1   BANK2   BANK3   BANK4   BANK5   BANK6
  2835 ;;      Params:         0       0       0       0       0       0       0       0
  2836 ;;      Locals:         0       0       0       0       0       0       0       0
  2837 ;;      Temps:          0       0       0       0       0       0       0       0
  2838 ;;      Totals:         0       0       0       0       0       0       0       0
  2839 ;;Total ram usage:        0 bytes
  2840 ;; Hardware stack levels used: 1
  2841 ;; Hardware stack levels required when called: 6
  2842 ;; This function calls:
  2843 ;;		Nothing
  2844 ;; This function is called by:
  2845 ;;		_SYSTEM_Initialize
  2846 ;; This function uses a non-reentrant model
  2847 ;;
  2848                           
  2849     0718                     _WDT_Initialize:	
  2850                           ;psect for function _WDT_Initialize
  2851                           
  2852     0718                     l2310:	
  2853                           ;incstack = 0
  2854                           ; Regs used in _WDT_Initialize: [wreg]
  2855                           
  2856                           
  2857                           ;mcc_generated_files/mcc.c: 78:     WDTCON = 0x12;
  2858     0718  3012               	movlw	18
  2859     0719  0021               	movlb	1	; select bank1
  2860     071A  0097               	movwf	23	;volatile
  2861     071B                     l438:
  2862     071B  0008               	return
  2863     071C                     __end_of_WDT_Initialize:
  2864                           
  2865                           	psect	text3
  2866     065D                     __ptext3:	
  2867 ;; *************** function _TMR0_Initialize *****************
  2868 ;; Defined at:
  2869 ;;		line 64 in file "mcc_generated_files/tmr0.c"
  2870 ;; Parameters:    Size  Location     Type
  2871 ;;		None
  2872 ;; Auto vars:     Size  Location     Type
  2873 ;;		None
  2874 ;; Return value:  Size  Location     Type
  2875 ;;                  1    wreg      void 
  2876 ;; Registers used:
  2877 ;;		wreg, status,2, status,0, pclath, cstack
  2878 ;; Tracked objects:
  2879 ;;		On entry : 0/0
  2880 ;;		On exit  : 0/0
  2881 ;;		Unchanged: 0/0
  2882 ;; Data sizes:     COMMON   BANK0   BANK1   BANK2   BANK3   BANK4   BANK5   BANK6
  2883 ;;      Params:         0       0       0       0       0       0       0       0
  2884 ;;      Locals:         0       0       0       0       0       0       0       0
  2885 ;;      Temps:          0       0       0       0       0       0       0       0
  2886 ;;      Totals:         0       0       0       0       0       0       0       0
  2887 ;;Total ram usage:        0 bytes
  2888 ;; Hardware stack levels used: 1
  2889 ;; Hardware stack levels required when called: 7
  2890 ;; This function calls:
  2891 ;;		_TMR0_SetInterruptHandler
  2892 ;; This function is called by:
  2893 ;;		_SYSTEM_Initialize
  2894 ;; This function uses a non-reentrant model
  2895 ;;
  2896                           
  2897     065D                     _TMR0_Initialize:	
  2898                           ;psect for function _TMR0_Initialize
  2899                           
  2900     065D                     l2312:	
  2901                           ;incstack = 0
  2902                           ; Regs used in _TMR0_Initialize: [wreg+status,2+status,0+pclath+cstack]
  2903                           
  2904                           
  2905                           ;mcc_generated_files/tmr0.c: 69:     OPTION_REG = (uint8_t)((OPTION_REG & 0xC0) | (0xD4 
      +                          & 0x3F));
  2906     065D  0021               	movlb	1	; select bank1
  2907     065E  0815               	movf	21,w	;volatile
  2908     065F  39C0               	andlw	192
  2909     0660  3814               	iorlw	20
  2910     0661  0095               	movwf	21	;volatile
  2911     0662                     l2314:
  2912                           
  2913                           ;mcc_generated_files/tmr0.c: 72:     TMR0 = 0x06;
  2914     0662  3006               	movlw	6
  2915     0663  0020               	movlb	0	; select bank0
  2916     0664  0095               	movwf	21	;volatile
  2917     0665                     l2316:
  2918                           
  2919                           ;mcc_generated_files/tmr0.c: 75:     timer0ReloadVal= 6;
  2920     0665  3006               	movlw	6
  2921     0666  00B0               	movwf	_timer0ReloadVal	;volatile
  2922     0667                     l2318:
  2923                           
  2924                           ;mcc_generated_files/tmr0.c: 78:     INTCONbits.TMR0IF = 0;
  2925     0667  110B               	bcf	11,2	;volatile
  2926     0668                     l2320:
  2927                           
  2928                           ;mcc_generated_files/tmr0.c: 81:     INTCONbits.TMR0IE = 1;
  2929     0668  168B               	bsf	11,5	;volatile
  2930     0669                     l2322:
  2931                           
  2932                           ;mcc_generated_files/tmr0.c: 84:     TMR0_SetInterruptHandler(TMR0_DefaultInterruptHandl
      +                          er);
  2933     0669  3042               	movlw	low _TMR0_DefaultInterruptHandler
  2934     066A  00D3               	movwf	TMR0_SetInterruptHandler@InterruptHandler
  2935     066B  3007               	movlw	high _TMR0_DefaultInterruptHandler
  2936     066C  00D4               	movwf	TMR0_SetInterruptHandler@InterruptHandler+1
  2937     066D  3186  26E5  3186   	fcall	_TMR0_SetInterruptHandler
  2938     0670                     l455:
  2939     0670  0008               	return
  2940     0671                     __end_of_TMR0_Initialize:
  2941                           
  2942                           	psect	text4
  2943     05FA                     __ptext4:	
  2944 ;; *************** function _PIN_MANAGER_Initialize *****************
  2945 ;; Defined at:
  2946 ;;		line 55 in file "mcc_generated_files/pin_manager.c"
  2947 ;; Parameters:    Size  Location     Type
  2948 ;;		None
  2949 ;; Auto vars:     Size  Location     Type
  2950 ;;		None
  2951 ;; Return value:  Size  Location     Type
  2952 ;;                  1    wreg      void 
  2953 ;; Registers used:
  2954 ;;		wreg, status,2
  2955 ;; Tracked objects:
  2956 ;;		On entry : 0/0
  2957 ;;		On exit  : 0/0
  2958 ;;		Unchanged: 0/0
  2959 ;; Data sizes:     COMMON   BANK0   BANK1   BANK2   BANK3   BANK4   BANK5   BANK6
  2960 ;;      Params:         0       0       0       0       0       0       0       0
  2961 ;;      Locals:         0       0       0       0       0       0       0       0
  2962 ;;      Temps:          0       0       0       0       0       0       0       0
  2963 ;;      Totals:         0       0       0       0       0       0       0       0
  2964 ;;Total ram usage:        0 bytes
  2965 ;; Hardware stack levels used: 1
  2966 ;; Hardware stack levels required when called: 6
  2967 ;; This function calls:
  2968 ;;		Nothing
  2969 ;; This function is called by:
  2970 ;;		_SYSTEM_Initialize
  2971 ;; This function uses a non-reentrant model
  2972 ;;
  2973                           
  2974     05FA                     _PIN_MANAGER_Initialize:	
  2975                           ;psect for function _PIN_MANAGER_Initialize
  2976                           
  2977     05FA                     l2284:	
  2978                           ;incstack = 0
  2979                           ; Regs used in _PIN_MANAGER_Initialize: [wreg+status,2]
  2980                           
  2981                           
  2982                           ;mcc_generated_files/pin_manager.c: 60:     LATE = 0x00;
  2983     05FA  0022               	movlb	2	; select bank2
  2984     05FB  0190               	clrf	16	;volatile
  2985                           
  2986                           ;mcc_generated_files/pin_manager.c: 61:     LATA = 0x00;
  2987     05FC  018C               	clrf	12	;volatile
  2988                           
  2989                           ;mcc_generated_files/pin_manager.c: 62:     LATB = 0x00;
  2990     05FD  018D               	clrf	13	;volatile
  2991                           
  2992                           ;mcc_generated_files/pin_manager.c: 63:     LATC = 0x00;
  2993     05FE  018E               	clrf	14	;volatile
  2994     05FF                     l2286:
  2995                           
  2996                           ;mcc_generated_files/pin_manager.c: 68:     TRISE = 0x08;
  2997     05FF  3008               	movlw	8
  2998     0600  0021               	movlb	1	; select bank1
  2999     0601  0090               	movwf	16	;volatile
  3000     0602                     l2288:
  3001                           
  3002                           ;mcc_generated_files/pin_manager.c: 69:     TRISA = 0xFF;
  3003     0602  30FF               	movlw	255
  3004     0603  008C               	movwf	12	;volatile
  3005     0604                     l2290:
  3006                           
  3007                           ;mcc_generated_files/pin_manager.c: 70:     TRISB = 0xC0;
  3008     0604  30C0               	movlw	192
  3009     0605  008D               	movwf	13	;volatile
  3010     0606                     l2292:
  3011                           
  3012                           ;mcc_generated_files/pin_manager.c: 71:     TRISC = 0xBF;
  3013     0606  30BF               	movlw	191
  3014     0607  008E               	movwf	14	;volatile
  3015                           
  3016                           ;mcc_generated_files/pin_manager.c: 76:     ANSELB = 0x00;
  3017     0608  0023               	movlb	3	; select bank3
  3018     0609  018D               	clrf	13	;volatile
  3019     060A                     l2294:
  3020                           
  3021                           ;mcc_generated_files/pin_manager.c: 77:     ANSELA = 0x20;
  3022     060A  3020               	movlw	32
  3023     060B  008C               	movwf	12	;volatile
  3024     060C                     l2296:
  3025                           
  3026                           ;mcc_generated_files/pin_manager.c: 82:     WPUE = 0x00;
  3027     060C  0024               	movlb	4	; select bank4
  3028     060D  0190               	clrf	16	;volatile
  3029     060E                     l2298:
  3030                           
  3031                           ;mcc_generated_files/pin_manager.c: 83:     WPUB = 0x00;
  3032     060E  018D               	clrf	13	;volatile
  3033     060F                     l2300:
  3034                           
  3035                           ;mcc_generated_files/pin_manager.c: 84:     OPTION_REGbits.nWPUEN = 1;
  3036     060F  0021               	movlb	1	; select bank1
  3037     0610  1795               	bsf	21,7	;volatile
  3038     0611                     l2302:
  3039                           
  3040                           ;mcc_generated_files/pin_manager.c: 90:     APFCON = 0x00;
  3041     0611  0022               	movlb	2	; select bank2
  3042     0612  019D               	clrf	29	;volatile
  3043     0613                     l368:
  3044     0613  0008               	return
  3045     0614                     __end_of_PIN_MANAGER_Initialize:
  3046                           
  3047                           	psect	text5
  3048     06AF                     __ptext5:	
  3049 ;; *************** function _OSCILLATOR_Initialize *****************
  3050 ;; Defined at:
  3051 ;;		line 61 in file "mcc_generated_files/mcc.c"
  3052 ;; Parameters:    Size  Location     Type
  3053 ;;		None
  3054 ;; Auto vars:     Size  Location     Type
  3055 ;;		None
  3056 ;; Return value:  Size  Location     Type
  3057 ;;                  1    wreg      void 
  3058 ;; Registers used:
  3059 ;;		wreg, status,2
  3060 ;; Tracked objects:
  3061 ;;		On entry : 0/0
  3062 ;;		On exit  : 0/0
  3063 ;;		Unchanged: 0/0
  3064 ;; Data sizes:     COMMON   BANK0   BANK1   BANK2   BANK3   BANK4   BANK5   BANK6
  3065 ;;      Params:         0       0       0       0       0       0       0       0
  3066 ;;      Locals:         0       0       0       0       0       0       0       0
  3067 ;;      Temps:          0       0       0       0       0       0       0       0
  3068 ;;      Totals:         0       0       0       0       0       0       0       0
  3069 ;;Total ram usage:        0 bytes
  3070 ;; Hardware stack levels used: 1
  3071 ;; Hardware stack levels required when called: 6
  3072 ;; This function calls:
  3073 ;;		Nothing
  3074 ;; This function is called by:
  3075 ;;		_SYSTEM_Initialize
  3076 ;; This function uses a non-reentrant model
  3077 ;;
  3078                           
  3079     06AF                     _OSCILLATOR_Initialize:	
  3080                           ;psect for function _OSCILLATOR_Initialize
  3081                           
  3082     06AF                     l2304:	
  3083                           ;incstack = 0
  3084                           ; Regs used in _OSCILLATOR_Initialize: [wreg+status,2]
  3085                           
  3086                           
  3087                           ;mcc_generated_files/mcc.c: 64:     OSCCON = 0x70;
  3088     06AF  3070               	movlw	112
  3089     06B0  0021               	movlb	1	; select bank1
  3090     06B1  0099               	movwf	25	;volatile
  3091     06B2                     l2306:
  3092                           
  3093                           ;mcc_generated_files/mcc.c: 66:     OSCTUNE = 0x00;
  3094     06B2  0198               	clrf	24	;volatile
  3095     06B3                     l2308:
  3096                           
  3097                           ;mcc_generated_files/mcc.c: 68:     BORCON = 0x00;
  3098     06B3  0022               	movlb	2	; select bank2
  3099     06B4  0196               	clrf	22	;volatile
  3100     06B5                     l432:	
  3101                           ;mcc_generated_files/mcc.c: 71:     {;mcc_generated_files/mcc.c: 72:     }
  3102                           
  3103                           
  3104                           ;mcc_generated_files/mcc.c: 70:     while(PLLR == 0)
  3105     06B5  0021               	movlb	1	; select bank1
  3106     06B6  1F1A               	btfss	26,6	;volatile
  3107     06B7  2EB9               	goto	u1681
  3108     06B8  2EBA               	goto	u1680
  3109     06B9                     u1681:
  3110     06B9  2EB5               	goto	l432
  3111     06BA                     u1680:
  3112     06BA                     l435:
  3113     06BA  0008               	return
  3114     06BB                     __end_of_OSCILLATOR_Initialize:
  3115                           
  3116                           	psect	text6
  3117     0694                     __ptext6:	
  3118 ;; *************** function _LIN_Master_Initialize *****************
  3119 ;; Defined at:
  3120 ;;		line 43 in file "mcc_generated_files/LINDrivers/lin_app.c"
  3121 ;; Parameters:    Size  Location     Type
  3122 ;;		None
  3123 ;; Auto vars:     Size  Location     Type
  3124 ;;		None
  3125 ;; Return value:  Size  Location     Type
  3126 ;;                  1    wreg      void 
  3127 ;; Registers used:
  3128 ;;		wreg, status,2, status,0, pclath, cstack
  3129 ;; Tracked objects:
  3130 ;;		On entry : 0/0
  3131 ;;		On exit  : 0/0
  3132 ;;		Unchanged: 0/0
  3133 ;; Data sizes:     COMMON   BANK0   BANK1   BANK2   BANK3   BANK4   BANK5   BANK6
  3134 ;;      Params:         0       0       0       0       0       0       0       0
  3135 ;;      Locals:         0       0       0       0       0       0       0       0
  3136 ;;      Temps:          0       0       0       0       0       0       0       0
  3137 ;;      Totals:         0       0       0       0       0       0       0       0
  3138 ;;Total ram usage:        0 bytes
  3139 ;; Hardware stack levels used: 1
  3140 ;; Hardware stack levels required when called: 9
  3141 ;; This function calls:
  3142 ;;		_LIN_init
  3143 ;; This function is called by:
  3144 ;;		_SYSTEM_Initialize
  3145 ;; This function uses a non-reentrant model
  3146 ;;
  3147                           
  3148     0694                     _LIN_Master_Initialize:	
  3149                           ;psect for function _LIN_Master_Initialize
  3150                           
  3151     0694                     l2232:	
  3152                           ;incstack = 0
  3153                           ; Regs used in _LIN_Master_Initialize: [wreg+status,2+status,0+pclath+cstack]
  3154                           
  3155                           
  3156                           ;mcc_generated_files/LINDrivers/lin_app.c: 45:     LIN_init((sizeof(scheduleTable)/sizeo
      +                          f(lin_cmd_packet_t)), scheduleTable, processLIN);
  3157     0694  30D9               	movlw	low (_scheduleTable| (0+32768))
  3158     0695  0020               	movlb	0	; select bank0
  3159     0696  00D5               	movwf	LIN_init@table
  3160     0697  3086               	movlw	high (_scheduleTable| (0+32768))
  3161     0698  00D6               	movwf	LIN_init@table+1
  3162     0699  30BB               	movlw	low _processLIN
  3163     069A  00D7               	movwf	LIN_init@processData
  3164     069B  3006               	movlw	high _processLIN
  3165     069C  00D8               	movwf	LIN_init@processData+1
  3166     069D  3001               	movlw	1
  3167     069E  3186  2647  3186   	fcall	_LIN_init
  3168     06A1                     l186:
  3169     06A1  0008               	return
  3170     06A2                     __end_of_LIN_Master_Initialize:
  3171                           
  3172                           	psect	text7
  3173     0647                     __ptext7:	
  3174 ;; *************** function _LIN_init *****************
  3175 ;; Defined at:
  3176 ;;		line 60 in file "mcc_generated_files/LINDrivers/lin_master.c"
  3177 ;; Parameters:    Size  Location     Type
  3178 ;;  tableLength     1    wreg     unsigned char 
  3179 ;;  table           2   11[BANK0 ] const PTR const struct .
  3180 ;;		 -> scheduleTable(6), 
  3181 ;;  processData     2   13[BANK0 ] PTR FTN()void 
  3182 ;;		 -> processLIN(1), 
  3183 ;; Auto vars:     Size  Location     Type
  3184 ;;  tableLength     1   15[BANK0 ] unsigned char 
  3185 ;; Return value:  Size  Location     Type
  3186 ;;                  1    wreg      void 
  3187 ;; Registers used:
  3188 ;;		wreg, status,2, status,0, pclath, cstack
  3189 ;; Tracked objects:
  3190 ;;		On entry : 0/0
  3191 ;;		On exit  : 0/0
  3192 ;;		Unchanged: 0/0
  3193 ;; Data sizes:     COMMON   BANK0   BANK1   BANK2   BANK3   BANK4   BANK5   BANK6
  3194 ;;      Params:         0       4       0       0       0       0       0       0
  3195 ;;      Locals:         0       1       0       0       0       0       0       0
  3196 ;;      Temps:          0       0       0       0       0       0       0       0
  3197 ;;      Totals:         0       5       0       0       0       0       0       0
  3198 ;;Total ram usage:        5 bytes
  3199 ;; Hardware stack levels used: 1
  3200 ;; Hardware stack levels required when called: 8
  3201 ;; This function calls:
  3202 ;;		_LIN_setTimerHandler
  3203 ;;		_LIN_startPeriod
  3204 ;;		_LIN_stopTimer
  3205 ;; This function is called by:
  3206 ;;		_LIN_Master_Initialize
  3207 ;; This function uses a non-reentrant model
  3208 ;;
  3209                           
  3210     0647                     _LIN_init:	
  3211                           ;psect for function _LIN_init
  3212                           
  3213                           
  3214                           ;incstack = 0
  3215                           ; Regs used in _LIN_init: [wreg+status,2+status,0+pclath+cstack]
  3216                           ;LIN_init@tableLength stored from wreg
  3217     0647  0020               	movlb	0	; select bank0
  3218     0648  00D9               	movwf	LIN_init@tableLength
  3219     0649                     l2044:
  3220                           
  3221                           ;mcc_generated_files/LINDrivers/lin_master.c: 61:     schedule = table;
  3222     0649  0856               	movf	LIN_init@table+1,w
  3223     064A  00AD               	movwf	_schedule+1
  3224     064B  0855               	movf	LIN_init@table,w
  3225     064C  00AC               	movwf	_schedule
  3226                           
  3227                           ;mcc_generated_files/LINDrivers/lin_master.c: 62:     scheduleLength = tableLength;
  3228     064D  0859               	movf	LIN_init@tableLength,w
  3229     064E  00C0               	movwf	_scheduleLength
  3230                           
  3231                           ;mcc_generated_files/LINDrivers/lin_master.c: 63:     LIN_processData = processData;
  3232     064F  0858               	movf	LIN_init@processData+1,w
  3233     0650  00AF               	movwf	_LIN_processData+1
  3234     0651  0857               	movf	LIN_init@processData,w
  3235     0652  00AE               	movwf	_LIN_processData
  3236     0653                     l2046:
  3237                           
  3238                           ;mcc_generated_files/LINDrivers/lin_master.c: 64:     LIN_stopTimer();
  3239     0653  3187  271C  3186   	fcall	_LIN_stopTimer
  3240                           
  3241                           ;mcc_generated_files/LINDrivers/lin_master.c: 65:     LIN_setTimerHandler();
  3242     0656  3186  26C7  3186   	fcall	_LIN_setTimerHandler
  3243     0659                     l2048:
  3244                           
  3245                           ;mcc_generated_files/LINDrivers/lin_master.c: 67:     LIN_startPeriod();
  3246     0659  3187  2720  3186   	fcall	_LIN_startPeriod
  3247     065C                     l73:
  3248     065C  0008               	return
  3249     065D                     __end_of_LIN_init:
  3250                           
  3251                           	psect	text8
  3252     071C                     __ptext8:	
  3253 ;; *************** function _LIN_stopTimer *****************
  3254 ;; Defined at:
  3255 ;;		line 276 in file "mcc_generated_files/LINDrivers/lin_master.c"
  3256 ;; Parameters:    Size  Location     Type
  3257 ;;		None
  3258 ;; Auto vars:     Size  Location     Type
  3259 ;;		None
  3260 ;; Return value:  Size  Location     Type
  3261 ;;                  1    wreg      void 
  3262 ;; Registers used:
  3263 ;;		status,2
  3264 ;; Tracked objects:
  3265 ;;		On entry : 0/0
  3266 ;;		On exit  : 0/0
  3267 ;;		Unchanged: 0/0
  3268 ;; Data sizes:     COMMON   BANK0   BANK1   BANK2   BANK3   BANK4   BANK5   BANK6
  3269 ;;      Params:         0       0       0       0       0       0       0       0
  3270 ;;      Locals:         0       0       0       0       0       0       0       0
  3271 ;;      Temps:          0       0       0       0       0       0       0       0
  3272 ;;      Totals:         0       0       0       0       0       0       0       0
  3273 ;;Total ram usage:        0 bytes
  3274 ;; Hardware stack levels used: 1
  3275 ;; Hardware stack levels required when called: 6
  3276 ;; This function calls:
  3277 ;;		Nothing
  3278 ;; This function is called by:
  3279 ;;		_LIN_init
  3280 ;; This function uses a non-reentrant model
  3281 ;;
  3282                           
  3283     071C                     _LIN_stopTimer:	
  3284                           ;psect for function _LIN_stopTimer
  3285                           
  3286     071C                     l1974:	
  3287                           ;incstack = 0
  3288                           ; Regs used in _LIN_stopTimer: [status,2]
  3289                           
  3290                           
  3291                           ;mcc_generated_files/LINDrivers/lin_master.c: 278:     LIN_timerCallBack = 0;
  3292     071C  0020               	movlb	0	; select bank0
  3293     071D  01BC               	clrf	_LIN_timerCallBack	;volatile
  3294                           
  3295                           ;mcc_generated_files/LINDrivers/lin_master.c: 279:     LIN_timerRunning = 0;
  3296     071E  01BE               	clrf	_LIN_timerRunning
  3297     071F                     l149:
  3298     071F  0008               	return
  3299     0720                     __end_of_LIN_stopTimer:
  3300                           
  3301                           	psect	text9
  3302     0720                     __ptext9:	
  3303 ;; *************** function _LIN_startPeriod *****************
  3304 ;; Defined at:
  3305 ;;		line 282 in file "mcc_generated_files/LINDrivers/lin_master.c"
  3306 ;; Parameters:    Size  Location     Type
  3307 ;;		None
  3308 ;; Auto vars:     Size  Location     Type
  3309 ;;		None
  3310 ;; Return value:  Size  Location     Type
  3311 ;;                  1    wreg      void 
  3312 ;; Registers used:
  3313 ;;		None
  3314 ;; Tracked objects:
  3315 ;;		On entry : 0/0
  3316 ;;		On exit  : 0/0
  3317 ;;		Unchanged: 0/0
  3318 ;; Data sizes:     COMMON   BANK0   BANK1   BANK2   BANK3   BANK4   BANK5   BANK6
  3319 ;;      Params:         0       0       0       0       0       0       0       0
  3320 ;;      Locals:         0       0       0       0       0       0       0       0
  3321 ;;      Temps:          0       0       0       0       0       0       0       0
  3322 ;;      Totals:         0       0       0       0       0       0       0       0
  3323 ;;Total ram usage:        0 bytes
  3324 ;; Hardware stack levels used: 1
  3325 ;; Hardware stack levels required when called: 6
  3326 ;; This function calls:
  3327 ;;		Nothing
  3328 ;; This function is called by:
  3329 ;;		_LIN_init
  3330 ;; This function uses a non-reentrant model
  3331 ;;
  3332                           
  3333     0720                     _LIN_startPeriod:	
  3334                           ;psect for function _LIN_startPeriod
  3335                           
  3336     0720                     l1978:	
  3337                           ;incstack = 0
  3338                           ; Regs used in _LIN_startPeriod: []
  3339                           
  3340                           
  3341                           ;mcc_generated_files/LINDrivers/lin_master.c: 283:     LIN_enablePeriodTx = 1;
  3342     0720  0020               	movlb	0	; select bank0
  3343     0721  01BD               	clrf	_LIN_enablePeriodTx
  3344     0722  0ABD               	incf	_LIN_enablePeriodTx,f
  3345     0723                     l152:
  3346     0723  0008               	return
  3347     0724                     __end_of_LIN_startPeriod:
  3348                           
  3349                           	psect	text10
  3350     06C7                     __ptext10:	
  3351 ;; *************** function _LIN_setTimerHandler *****************
  3352 ;; Defined at:
  3353 ;;		line 272 in file "mcc_generated_files/LINDrivers/lin_master.c"
  3354 ;; Parameters:    Size  Location     Type
  3355 ;;		None
  3356 ;; Auto vars:     Size  Location     Type
  3357 ;;		None
  3358 ;; Return value:  Size  Location     Type
  3359 ;;                  1    wreg      void 
  3360 ;; Registers used:
  3361 ;;		wreg, status,2, status,0, pclath, cstack
  3362 ;; Tracked objects:
  3363 ;;		On entry : 0/0
  3364 ;;		On exit  : 0/0
  3365 ;;		Unchanged: 0/0
  3366 ;; Data sizes:     COMMON   BANK0   BANK1   BANK2   BANK3   BANK4   BANK5   BANK6
  3367 ;;      Params:         0       0       0       0       0       0       0       0
  3368 ;;      Locals:         0       0       0       0       0       0       0       0
  3369 ;;      Temps:          0       0       0       0       0       0       0       0
  3370 ;;      Totals:         0       0       0       0       0       0       0       0
  3371 ;;Total ram usage:        0 bytes
  3372 ;; Hardware stack levels used: 1
  3373 ;; Hardware stack levels required when called: 7
  3374 ;; This function calls:
  3375 ;;		_TMR0_SetInterruptHandler
  3376 ;; This function is called by:
  3377 ;;		_LIN_init
  3378 ;; This function uses a non-reentrant model
  3379 ;;
  3380                           
  3381     06C7                     _LIN_setTimerHandler:	
  3382                           ;psect for function _LIN_setTimerHandler
  3383                           
  3384     06C7                     l1976:	
  3385                           ;incstack = 0
  3386                           ; Regs used in _LIN_setTimerHandler: [wreg+status,2+status,0+pclath+cstack]
  3387                           
  3388                           
  3389                           ;mcc_generated_files/LINDrivers/lin_master.c: 273:     TMR0_SetInterruptHandler(LIN_time
      +                          rHandler);
  3390     06C7  300C               	movlw	low _LIN_timerHandler
  3391     06C8  0020               	movlb	0	; select bank0
  3392     06C9  00D3               	movwf	TMR0_SetInterruptHandler@InterruptHandler
  3393     06CA  3005               	movlw	high _LIN_timerHandler
  3394     06CB  00D4               	movwf	TMR0_SetInterruptHandler@InterruptHandler+1
  3395     06CC  3186  26E5  3186   	fcall	_TMR0_SetInterruptHandler
  3396     06CF                     l146:
  3397     06CF  0008               	return
  3398     06D0                     __end_of_LIN_setTimerHandler:
  3399                           
  3400                           	psect	text11
  3401     06E5                     __ptext11:	
  3402 ;; *************** function _TMR0_SetInterruptHandler *****************
  3403 ;; Defined at:
  3404 ;;		line 125 in file "mcc_generated_files/tmr0.c"
  3405 ;; Parameters:    Size  Location     Type
  3406 ;;  InterruptHan    2    9[BANK0 ] PTR FTN()void 
  3407 ;;		 -> TMR0_DefaultInterruptHandler(1), LIN_timerHandler(1), 
  3408 ;; Auto vars:     Size  Location     Type
  3409 ;;		None
  3410 ;; Return value:  Size  Location     Type
  3411 ;;                  1    wreg      void 
  3412 ;; Registers used:
  3413 ;;		wreg
  3414 ;; Tracked objects:
  3415 ;;		On entry : 0/0
  3416 ;;		On exit  : 0/0
  3417 ;;		Unchanged: 0/0
  3418 ;; Data sizes:     COMMON   BANK0   BANK1   BANK2   BANK3   BANK4   BANK5   BANK6
  3419 ;;      Params:         0       2       0       0       0       0       0       0
  3420 ;;      Locals:         0       0       0       0       0       0       0       0
  3421 ;;      Temps:          0       0       0       0       0       0       0       0
  3422 ;;      Totals:         0       2       0       0       0       0       0       0
  3423 ;;Total ram usage:        2 bytes
  3424 ;; Hardware stack levels used: 1
  3425 ;; Hardware stack levels required when called: 6
  3426 ;; This function calls:
  3427 ;;		Nothing
  3428 ;; This function is called by:
  3429 ;;		_LIN_setTimerHandler
  3430 ;;		_TMR0_Initialize
  3431 ;; This function uses a non-reentrant model
  3432 ;;
  3433                           
  3434     06E5                     _TMR0_SetInterruptHandler:	
  3435                           ;psect for function _TMR0_SetInterruptHandler
  3436                           
  3437     06E5                     l1936:	
  3438                           ;incstack = 0
  3439                           ; Regs used in _TMR0_SetInterruptHandler: [wreg]
  3440                           
  3441                           
  3442                           ;mcc_generated_files/tmr0.c: 126:     TMR0_InterruptHandler = InterruptHandler;
  3443     06E5  0020               	movlb	0	; select bank0
  3444     06E6  0854               	movf	TMR0_SetInterruptHandler@InterruptHandler+1,w
  3445     06E7  00A1               	movwf	_TMR0_InterruptHandler+1
  3446     06E8  0853               	movf	TMR0_SetInterruptHandler@InterruptHandler,w
  3447     06E9  00A0               	movwf	_TMR0_InterruptHandler
  3448     06EA                     l471:
  3449     06EA  0008               	return
  3450     06EB                     __end_of_TMR0_SetInterruptHandler:
  3451                           
  3452                           	psect	text12
  3453     0370                     __ptext12:	
  3454 ;; *************** function _EUSART_Initialize *****************
  3455 ;; Defined at:
  3456 ;;		line 88 in file "mcc_generated_files/eusart.c"
  3457 ;; Parameters:    Size  Location     Type
  3458 ;;		None
  3459 ;; Auto vars:     Size  Location     Type
  3460 ;;		None
  3461 ;; Return value:  Size  Location     Type
  3462 ;;                  1    wreg      void 
  3463 ;; Registers used:
  3464 ;;		wreg, status,2, status,0, pclath, cstack
  3465 ;; Tracked objects:
  3466 ;;		On entry : 0/0
  3467 ;;		On exit  : 0/0
  3468 ;;		Unchanged: 0/0
  3469 ;; Data sizes:     COMMON   BANK0   BANK1   BANK2   BANK3   BANK4   BANK5   BANK6
  3470 ;;      Params:         0       0       0       0       0       0       0       0
  3471 ;;      Locals:         0       0       0       0       0       0       0       0
  3472 ;;      Temps:          0       0       0       0       0       0       0       0
  3473 ;;      Totals:         0       0       0       0       0       0       0       0
  3474 ;;Total ram usage:        0 bytes
  3475 ;; Hardware stack levels used: 1
  3476 ;; Hardware stack levels required when called: 7
  3477 ;; This function calls:
  3478 ;;		_EUSART_SetErrorHandler
  3479 ;;		_EUSART_SetFramingErrorHandler
  3480 ;;		_EUSART_SetOverrunErrorHandler
  3481 ;;		_EUSART_SetRxInterruptHandler
  3482 ;;		_EUSART_SetTxInterruptHandler
  3483 ;; This function is called by:
  3484 ;;		_SYSTEM_Initialize
  3485 ;; This function uses a non-reentrant model
  3486 ;;
  3487                           
  3488     0370                     _EUSART_Initialize:	
  3489                           ;psect for function _EUSART_Initialize
  3490                           
  3491     0370                     l2240:	
  3492                           ;incstack = 0
  3493                           ; Regs used in _EUSART_Initialize: [wreg+status,2+status,0+pclath+cstack]
  3494                           
  3495                           
  3496                           ;mcc_generated_files/eusart.c: 91:     PIE1bits.RCIE = 0;
  3497     0370  0021               	movlb	1	; select bank1
  3498     0371  1291               	bcf	17,5	;volatile
  3499     0372                     l2242:
  3500                           
  3501                           ;mcc_generated_files/eusart.c: 92:     EUSART_SetRxInterruptHandler(EUSART_Receive_ISR);
  3502     0372  30B3               	movlw	low _EUSART_Receive_ISR
  3503     0373  0020               	movlb	0	; select bank0
  3504     0374  00D3               	movwf	EUSART_SetRxInterruptHandler@interruptHandler
  3505     0375  3003               	movlw	high _EUSART_Receive_ISR
  3506     0376  00D4               	movwf	EUSART_SetRxInterruptHandler@interruptHandler+1
  3507     0377  3186  26F1  3183   	fcall	_EUSART_SetRxInterruptHandler
  3508     037A                     l2244:
  3509                           
  3510                           ;mcc_generated_files/eusart.c: 93:     PIE1bits.TXIE = 0;
  3511     037A  0021               	movlb	1	; select bank1
  3512     037B  1211               	bcf	17,4	;volatile
  3513                           
  3514                           ;mcc_generated_files/eusart.c: 94:     EUSART_SetTxInterruptHandler(EUSART_Transmit_ISR)
      +                          ;
  3515     037C  307E               	movlw	low _EUSART_Transmit_ISR
  3516     037D  0020               	movlb	0	; select bank0
  3517     037E  00D3               	movwf	EUSART_SetTxInterruptHandler@interruptHandler
  3518     037F  3005               	movlw	high _EUSART_Transmit_ISR
  3519     0380  00D4               	movwf	EUSART_SetTxInterruptHandler@interruptHandler+1
  3520     0381  3186  26EB  3183   	fcall	_EUSART_SetTxInterruptHandler
  3521     0384                     l2246:
  3522                           
  3523                           ;mcc_generated_files/eusart.c: 98:     BAUDCON = 0x18;
  3524     0384  3018               	movlw	24
  3525     0385  0023               	movlb	3	; select bank3
  3526     0386  009F               	movwf	31	;volatile
  3527     0387                     l2248:
  3528                           
  3529                           ;mcc_generated_files/eusart.c: 101:     RCSTA = 0x90;
  3530     0387  3090               	movlw	144
  3531     0388  009D               	movwf	29	;volatile
  3532     0389                     l2250:
  3533                           
  3534                           ;mcc_generated_files/eusart.c: 104:     TXSTA = 0x24;
  3535     0389  3024               	movlw	36
  3536     038A  009E               	movwf	30	;volatile
  3537     038B                     l2252:
  3538                           
  3539                           ;mcc_generated_files/eusart.c: 107:     SPBRGL = 0xFF;
  3540     038B  30FF               	movlw	255
  3541     038C  009B               	movwf	27	;volatile
  3542     038D                     l2254:
  3543                           
  3544                           ;mcc_generated_files/eusart.c: 110:     SPBRGH = 0x02;
  3545     038D  3002               	movlw	2
  3546     038E  009C               	movwf	28	;volatile
  3547     038F                     l2256:
  3548                           
  3549                           ;mcc_generated_files/eusart.c: 113:     EUSART_SetFramingErrorHandler(EUSART_DefaultFram
      +                          ingErrorHandler);
  3550     038F  3043               	movlw	low _EUSART_DefaultFramingErrorHandler
  3551     0390  0020               	movlb	0	; select bank0
  3552     0391  00D3               	movwf	EUSART_SetFramingErrorHandler@interruptHandler
  3553     0392  3007               	movlw	high _EUSART_DefaultFramingErrorHandler
  3554     0393  00D4               	movwf	EUSART_SetFramingErrorHandler@interruptHandler+1
  3555     0394  3186  26FD  3183   	fcall	_EUSART_SetFramingErrorHandler
  3556     0397                     l2258:
  3557                           
  3558                           ;mcc_generated_files/eusart.c: 114:     EUSART_SetOverrunErrorHandler(EUSART_DefaultOver
      +                          runErrorHandler);
  3559     0397  302C               	movlw	low _EUSART_DefaultOverrunErrorHandler
  3560     0398  0020               	movlb	0	; select bank0
  3561     0399  00D3               	movwf	EUSART_SetOverrunErrorHandler@interruptHandler
  3562     039A  3007               	movlw	high _EUSART_DefaultOverrunErrorHandler
  3563     039B  00D4               	movwf	EUSART_SetOverrunErrorHandler@interruptHandler+1
  3564     039C  3186  26F7  3183   	fcall	_EUSART_SetOverrunErrorHandler
  3565     039F                     l2260:
  3566                           
  3567                           ;mcc_generated_files/eusart.c: 115:     EUSART_SetErrorHandler(EUSART_DefaultErrorHandle
      +                          r);
  3568     039F  3030               	movlw	low _EUSART_DefaultErrorHandler
  3569     03A0  0020               	movlb	0	; select bank0
  3570     03A1  00D3               	movwf	EUSART_SetErrorHandler@interruptHandler
  3571     03A2  3007               	movlw	high _EUSART_DefaultErrorHandler
  3572     03A3  00D4               	movwf	EUSART_SetErrorHandler@interruptHandler+1
  3573     03A4  3187  2703  3183   	fcall	_EUSART_SetErrorHandler
  3574     03A7                     l2262:
  3575                           
  3576                           ;mcc_generated_files/eusart.c: 117:     eusartRxLastError.status = 0;
  3577     03A7  0020               	movlb	0	; select bank0
  3578     03A8  01B1               	clrf	_eusartRxLastError	;volatile
  3579     03A9                     l2264:
  3580                           
  3581                           ;mcc_generated_files/eusart.c: 120:     eusartTxHead = 0;
  3582     03A9  01B7               	clrf	_eusartTxHead	;volatile
  3583     03AA                     l2266:
  3584                           
  3585                           ;mcc_generated_files/eusart.c: 121:     eusartTxTail = 0;
  3586     03AA  01B6               	clrf	_eusartTxTail	;volatile
  3587     03AB                     l2268:
  3588                           
  3589                           ;mcc_generated_files/eusart.c: 122:     eusartTxBufferRemaining = sizeof(eusartTxBuffer)
      +                          ;
  3590     03AB  3008               	movlw	8
  3591     03AC  00B5               	movwf	_eusartTxBufferRemaining	;volatile
  3592                           
  3593                           ;mcc_generated_files/eusart.c: 124:     eusartRxHead = 0;
  3594     03AD  01B4               	clrf	_eusartRxHead	;volatile
  3595                           
  3596                           ;mcc_generated_files/eusart.c: 125:     eusartRxTail = 0;
  3597     03AE  01B3               	clrf	_eusartRxTail	;volatile
  3598                           
  3599                           ;mcc_generated_files/eusart.c: 126:     eusartRxCount = 0;
  3600     03AF  01B2               	clrf	_eusartRxCount	;volatile
  3601     03B0                     l2270:
  3602                           
  3603                           ;mcc_generated_files/eusart.c: 129:     PIE1bits.RCIE = 1;
  3604     03B0  0021               	movlb	1	; select bank1
  3605     03B1  1691               	bsf	17,5	;volatile
  3606     03B2                     l268:
  3607     03B2  0008               	return
  3608     03B3                     __end_of_EUSART_Initialize:
  3609                           
  3610                           	psect	text13
  3611     06EB                     __ptext13:	
  3612 ;; *************** function _EUSART_SetTxInterruptHandler *****************
  3613 ;; Defined at:
  3614 ;;		line 276 in file "mcc_generated_files/eusart.c"
  3615 ;; Parameters:    Size  Location     Type
  3616 ;;  interruptHan    2    9[BANK0 ] PTR FTN()void 
  3617 ;;		 -> EUSART_Transmit_ISR(1), 
  3618 ;; Auto vars:     Size  Location     Type
  3619 ;;		None
  3620 ;; Return value:  Size  Location     Type
  3621 ;;                  1    wreg      void 
  3622 ;; Registers used:
  3623 ;;		wreg
  3624 ;; Tracked objects:
  3625 ;;		On entry : 0/0
  3626 ;;		On exit  : 0/0
  3627 ;;		Unchanged: 0/0
  3628 ;; Data sizes:     COMMON   BANK0   BANK1   BANK2   BANK3   BANK4   BANK5   BANK6
  3629 ;;      Params:         0       2       0       0       0       0       0       0
  3630 ;;      Locals:         0       0       0       0       0       0       0       0
  3631 ;;      Temps:          0       0       0       0       0       0       0       0
  3632 ;;      Totals:         0       2       0       0       0       0       0       0
  3633 ;;Total ram usage:        2 bytes
  3634 ;; Hardware stack levels used: 1
  3635 ;; Hardware stack levels required when called: 6
  3636 ;; This function calls:
  3637 ;;		Nothing
  3638 ;; This function is called by:
  3639 ;;		_EUSART_Initialize
  3640 ;; This function uses a non-reentrant model
  3641 ;;
  3642                           
  3643     06EB                     _EUSART_SetTxInterruptHandler:	
  3644                           ;psect for function _EUSART_SetTxInterruptHandler
  3645                           
  3646     06EB                     l2144:	
  3647                           ;incstack = 0
  3648                           ; Regs used in _EUSART_SetTxInterruptHandler: [wreg]
  3649                           
  3650                           
  3651                           ;mcc_generated_files/eusart.c: 277:     EUSART_TxDefaultInterruptHandler = interruptHand
      +                          ler;
  3652     06EB  0020               	movlb	0	; select bank0
  3653     06EC  0854               	movf	EUSART_SetTxInterruptHandler@interruptHandler+1,w
  3654     06ED  00AB               	movwf	_EUSART_TxDefaultInterruptHandler+1
  3655     06EE  0853               	movf	EUSART_SetTxInterruptHandler@interruptHandler,w
  3656     06EF  00AA               	movwf	_EUSART_TxDefaultInterruptHandler
  3657     06F0                     l334:
  3658     06F0  0008               	return
  3659     06F1                     __end_of_EUSART_SetTxInterruptHandler:
  3660                           
  3661                           	psect	text14
  3662     06F1                     __ptext14:	
  3663 ;; *************** function _EUSART_SetRxInterruptHandler *****************
  3664 ;; Defined at:
  3665 ;;		line 280 in file "mcc_generated_files/eusart.c"
  3666 ;; Parameters:    Size  Location     Type
  3667 ;;  interruptHan    2    9[BANK0 ] PTR FTN()void 
  3668 ;;		 -> EUSART_Receive_ISR(1), 
  3669 ;; Auto vars:     Size  Location     Type
  3670 ;;		None
  3671 ;; Return value:  Size  Location     Type
  3672 ;;                  1    wreg      void 
  3673 ;; Registers used:
  3674 ;;		wreg
  3675 ;; Tracked objects:
  3676 ;;		On entry : 0/0
  3677 ;;		On exit  : 0/0
  3678 ;;		Unchanged: 0/0
  3679 ;; Data sizes:     COMMON   BANK0   BANK1   BANK2   BANK3   BANK4   BANK5   BANK6
  3680 ;;      Params:         0       2       0       0       0       0       0       0
  3681 ;;      Locals:         0       0       0       0       0       0       0       0
  3682 ;;      Temps:          0       0       0       0       0       0       0       0
  3683 ;;      Totals:         0       2       0       0       0       0       0       0
  3684 ;;Total ram usage:        2 bytes
  3685 ;; Hardware stack levels used: 1
  3686 ;; Hardware stack levels required when called: 6
  3687 ;; This function calls:
  3688 ;;		Nothing
  3689 ;; This function is called by:
  3690 ;;		_EUSART_Initialize
  3691 ;; This function uses a non-reentrant model
  3692 ;;
  3693                           
  3694     06F1                     _EUSART_SetRxInterruptHandler:	
  3695                           ;psect for function _EUSART_SetRxInterruptHandler
  3696                           
  3697     06F1                     l2142:	
  3698                           ;incstack = 0
  3699                           ; Regs used in _EUSART_SetRxInterruptHandler: [wreg]
  3700                           
  3701                           
  3702                           ;mcc_generated_files/eusart.c: 281:     EUSART_RxDefaultInterruptHandler = interruptHand
      +                          ler;
  3703     06F1  0020               	movlb	0	; select bank0
  3704     06F2  0854               	movf	EUSART_SetRxInterruptHandler@interruptHandler+1,w
  3705     06F3  00A9               	movwf	_EUSART_RxDefaultInterruptHandler+1
  3706     06F4  0853               	movf	EUSART_SetRxInterruptHandler@interruptHandler,w
  3707     06F5  00A8               	movwf	_EUSART_RxDefaultInterruptHandler
  3708     06F6                     l337:
  3709     06F6  0008               	return
  3710     06F7                     __end_of_EUSART_SetRxInterruptHandler:
  3711                           
  3712                           	psect	text15
  3713     06F7                     __ptext15:	
  3714 ;; *************** function _EUSART_SetOverrunErrorHandler *****************
  3715 ;; Defined at:
  3716 ;;		line 268 in file "mcc_generated_files/eusart.c"
  3717 ;; Parameters:    Size  Location     Type
  3718 ;;  interruptHan    2    9[BANK0 ] PTR FTN()void 
  3719 ;;		 -> EUSART_DefaultOverrunErrorHandler(1), 
  3720 ;; Auto vars:     Size  Location     Type
  3721 ;;		None
  3722 ;; Return value:  Size  Location     Type
  3723 ;;                  1    wreg      void 
  3724 ;; Registers used:
  3725 ;;		wreg
  3726 ;; Tracked objects:
  3727 ;;		On entry : 0/0
  3728 ;;		On exit  : 0/0
  3729 ;;		Unchanged: 0/0
  3730 ;; Data sizes:     COMMON   BANK0   BANK1   BANK2   BANK3   BANK4   BANK5   BANK6
  3731 ;;      Params:         0       2       0       0       0       0       0       0
  3732 ;;      Locals:         0       0       0       0       0       0       0       0
  3733 ;;      Temps:          0       0       0       0       0       0       0       0
  3734 ;;      Totals:         0       2       0       0       0       0       0       0
  3735 ;;Total ram usage:        2 bytes
  3736 ;; Hardware stack levels used: 1
  3737 ;; Hardware stack levels required when called: 6
  3738 ;; This function calls:
  3739 ;;		Nothing
  3740 ;; This function is called by:
  3741 ;;		_EUSART_Initialize
  3742 ;; This function uses a non-reentrant model
  3743 ;;
  3744                           
  3745     06F7                     _EUSART_SetOverrunErrorHandler:	
  3746                           ;psect for function _EUSART_SetOverrunErrorHandler
  3747                           
  3748     06F7                     l2148:	
  3749                           ;incstack = 0
  3750                           ; Regs used in _EUSART_SetOverrunErrorHandler: [wreg]
  3751                           
  3752                           
  3753                           ;mcc_generated_files/eusart.c: 269:     EUSART_OverrunErrorHandler = interruptHandler;
  3754     06F7  0020               	movlb	0	; select bank0
  3755     06F8  0854               	movf	EUSART_SetOverrunErrorHandler@interruptHandler+1,w
  3756     06F9  00A5               	movwf	_EUSART_OverrunErrorHandler+1
  3757     06FA  0853               	movf	EUSART_SetOverrunErrorHandler@interruptHandler,w
  3758     06FB  00A4               	movwf	_EUSART_OverrunErrorHandler
  3759     06FC                     l328:
  3760     06FC  0008               	return
  3761     06FD                     __end_of_EUSART_SetOverrunErrorHandler:
  3762                           
  3763                           	psect	text16
  3764     06FD                     __ptext16:	
  3765 ;; *************** function _EUSART_SetFramingErrorHandler *****************
  3766 ;; Defined at:
  3767 ;;		line 264 in file "mcc_generated_files/eusart.c"
  3768 ;; Parameters:    Size  Location     Type
  3769 ;;  interruptHan    2    9[BANK0 ] PTR FTN()void 
  3770 ;;		 -> EUSART_DefaultFramingErrorHandler(1), 
  3771 ;; Auto vars:     Size  Location     Type
  3772 ;;		None
  3773 ;; Return value:  Size  Location     Type
  3774 ;;                  1    wreg      void 
  3775 ;; Registers used:
  3776 ;;		wreg
  3777 ;; Tracked objects:
  3778 ;;		On entry : 0/0
  3779 ;;		On exit  : 0/0
  3780 ;;		Unchanged: 0/0
  3781 ;; Data sizes:     COMMON   BANK0   BANK1   BANK2   BANK3   BANK4   BANK5   BANK6
  3782 ;;      Params:         0       2       0       0       0       0       0       0
  3783 ;;      Locals:         0       0       0       0       0       0       0       0
  3784 ;;      Temps:          0       0       0       0       0       0       0       0
  3785 ;;      Totals:         0       2       0       0       0       0       0       0
  3786 ;;Total ram usage:        2 bytes
  3787 ;; Hardware stack levels used: 1
  3788 ;; Hardware stack levels required when called: 6
  3789 ;; This function calls:
  3790 ;;		Nothing
  3791 ;; This function is called by:
  3792 ;;		_EUSART_Initialize
  3793 ;; This function uses a non-reentrant model
  3794 ;;
  3795                           
  3796     06FD                     _EUSART_SetFramingErrorHandler:	
  3797                           ;psect for function _EUSART_SetFramingErrorHandler
  3798                           
  3799     06FD                     l2146:	
  3800                           ;incstack = 0
  3801                           ; Regs used in _EUSART_SetFramingErrorHandler: [wreg]
  3802                           
  3803                           
  3804                           ;mcc_generated_files/eusart.c: 265:     EUSART_FramingErrorHandler = interruptHandler;
  3805     06FD  0020               	movlb	0	; select bank0
  3806     06FE  0854               	movf	EUSART_SetFramingErrorHandler@interruptHandler+1,w
  3807     06FF  00A7               	movwf	_EUSART_FramingErrorHandler+1
  3808     0700  0853               	movf	EUSART_SetFramingErrorHandler@interruptHandler,w
  3809     0701  00A6               	movwf	_EUSART_FramingErrorHandler
  3810     0702                     l325:
  3811     0702  0008               	return
  3812     0703                     __end_of_EUSART_SetFramingErrorHandler:
  3813                           
  3814                           	psect	text17
  3815     0703                     __ptext17:	
  3816 ;; *************** function _EUSART_SetErrorHandler *****************
  3817 ;; Defined at:
  3818 ;;		line 272 in file "mcc_generated_files/eusart.c"
  3819 ;; Parameters:    Size  Location     Type
  3820 ;;  interruptHan    2    9[BANK0 ] PTR FTN()void 
  3821 ;;		 -> EUSART_DefaultErrorHandler(1), 
  3822 ;; Auto vars:     Size  Location     Type
  3823 ;;		None
  3824 ;; Return value:  Size  Location     Type
  3825 ;;                  1    wreg      void 
  3826 ;; Registers used:
  3827 ;;		wreg
  3828 ;; Tracked objects:
  3829 ;;		On entry : 0/0
  3830 ;;		On exit  : 0/0
  3831 ;;		Unchanged: 0/0
  3832 ;; Data sizes:     COMMON   BANK0   BANK1   BANK2   BANK3   BANK4   BANK5   BANK6
  3833 ;;      Params:         0       2       0       0       0       0       0       0
  3834 ;;      Locals:         0       0       0       0       0       0       0       0
  3835 ;;      Temps:          0       0       0       0       0       0       0       0
  3836 ;;      Totals:         0       2       0       0       0       0       0       0
  3837 ;;Total ram usage:        2 bytes
  3838 ;; Hardware stack levels used: 1
  3839 ;; Hardware stack levels required when called: 6
  3840 ;; This function calls:
  3841 ;;		Nothing
  3842 ;; This function is called by:
  3843 ;;		_EUSART_Initialize
  3844 ;; This function uses a non-reentrant model
  3845 ;;
  3846                           
  3847     0703                     _EUSART_SetErrorHandler:	
  3848                           ;psect for function _EUSART_SetErrorHandler
  3849                           
  3850     0703                     l2150:	
  3851                           ;incstack = 0
  3852                           ; Regs used in _EUSART_SetErrorHandler: [wreg]
  3853                           
  3854                           
  3855                           ;mcc_generated_files/eusart.c: 273:     EUSART_ErrorHandler = interruptHandler;
  3856     0703  0020               	movlb	0	; select bank0
  3857     0704  0854               	movf	EUSART_SetErrorHandler@interruptHandler+1,w
  3858     0705  00A3               	movwf	_EUSART_ErrorHandler+1
  3859     0706  0853               	movf	EUSART_SetErrorHandler@interruptHandler,w
  3860     0707  00A2               	movwf	_EUSART_ErrorHandler
  3861     0708                     l331:
  3862     0708  0008               	return
  3863     0709                     __end_of_EUSART_SetErrorHandler:
  3864                           
  3865                           	psect	text18
  3866     02F7                     __ptext18:	
  3867 ;; *************** function _LIN_handler *****************
  3868 ;; Defined at:
  3869 ;;		line 115 in file "mcc_generated_files/LINDrivers/lin_master.c"
  3870 ;; Parameters:    Size  Location     Type
  3871 ;;		None
  3872 ;; Auto vars:     Size  Location     Type
  3873 ;;		None
  3874 ;; Return value:  Size  Location     Type
  3875 ;;                  1    wreg      enum E204
  3876 ;; Registers used:
  3877 ;;		wreg, fsr0l, fsr0h, fsr1l, fsr1h, status,2, status,0, pclath, cstack
  3878 ;; Tracked objects:
  3879 ;;		On entry : 0/0
  3880 ;;		On exit  : 0/0
  3881 ;;		Unchanged: 0/0
  3882 ;; Data sizes:     COMMON   BANK0   BANK1   BANK2   BANK3   BANK4   BANK5   BANK6
  3883 ;;      Params:         0       0       0       0       0       0       0       0
  3884 ;;      Locals:         0       0       0       0       0       0       0       0
  3885 ;;      Temps:          0       0       2       0       0       0       0       0
  3886 ;;      Totals:         0       0       2       0       0       0       0       0
  3887 ;;Total ram usage:        2 bytes
  3888 ;; Hardware stack levels used: 1
  3889 ;; Hardware stack levels required when called: 9
  3890 ;; This function calls:
  3891 ;;		NULL
  3892 ;;		_EUSART_is_rx_ready
  3893 ;;		_LIN_disableRx
  3894 ;;		_LIN_enableRx
  3895 ;;		_LIN_receivePacket
  3896 ;;		_LIN_sendPacket
  3897 ;;		_LIN_startTimer
  3898 ;;		_memset
  3899 ;;		_processLIN
  3900 ;; This function is called by:
  3901 ;;		_main
  3902 ;; This function uses a non-reentrant model
  3903 ;;
  3904                           
  3905     02F7                     _LIN_handler:	
  3906                           ;psect for function _LIN_handler
  3907                           
  3908     02F7                     l2640:	
  3909                           ;incstack = 0
  3910                           ; Regs used in _LIN_handler: [wreg-fsr1h+status,2+status,0+pclath+cstack]
  3911                           
  3912                           
  3913                           ;mcc_generated_files/LINDrivers/lin_master.c: 116:     static lin_state_t LIN_state = LI
      +                          N_IDLE;;mcc_generated_files/LINDrivers/lin_master.c: 119:     switch(LIN_state){
  3914     02F7  2B57               	goto	l2682
  3915     02F8                     l2642:
  3916                           
  3917                           ;mcc_generated_files/LINDrivers/lin_master.c: 121:             if(LIN_txReady == 1){
  3918     02F8  0020               	movlb	0	; select bank0
  3919     02F9  0341               	decf	_LIN_txReady,w
  3920     02FA  1D03               	btfss	3,2
  3921     02FB  2AFD               	goto	u2131
  3922     02FC  2AFE               	goto	u2130
  3923     02FD                     u2131:
  3924     02FD  2B6F               	goto	l105
  3925     02FE                     u2130:
  3926     02FE                     l2644:
  3927                           
  3928                           ;mcc_generated_files/LINDrivers/lin_master.c: 122:                 LIN_txReady = 0;
  3929     02FE  01C1               	clrf	_LIN_txReady
  3930     02FF                     l2646:
  3931                           
  3932                           ;mcc_generated_files/LINDrivers/lin_master.c: 123:                 LIN_disableRx();
  3933     02FF  3187  2713  3182   	fcall	_LIN_disableRx
  3934     0302                     l2648:
  3935                           
  3936                           ;mcc_generated_files/LINDrivers/lin_master.c: 125:                 LIN_sendPacket();
  3937     0302  3183  23ED  3182   	fcall	_LIN_sendPacket
  3938     0305                     l2650:
  3939                           
  3940                           ;mcc_generated_files/LINDrivers/lin_master.c: 126:                 LIN_state = LIN_TX_IP
      +                          ;
  3941     0305  0020               	movlb	0	; select bank0
  3942     0306  01BA               	clrf	LIN_handler@LIN_state
  3943     0307  0ABA               	incf	LIN_handler@LIN_state,f
  3944                           
  3945                           ;mcc_generated_files/LINDrivers/lin_master.c: 127:             } else {
  3946     0308  2B6F               	goto	l105
  3947     0309                     l94:	
  3948                           ;mcc_generated_files/LINDrivers/lin_master.c: 131:         case LIN_TX_IP:
  3949                           
  3950                           
  3951                           ;mcc_generated_files/LINDrivers/lin_master.c: 133:             if(PIE1bits.TXIE == 0){
  3952     0309  1A11               	btfsc	17,4	;volatile
  3953     030A  2B0C               	goto	u2141
  3954     030B  2B0D               	goto	u2140
  3955     030C                     u2141:
  3956     030C  2B6F               	goto	l105
  3957     030D                     u2140:
  3958     030D                     l2652:
  3959                           
  3960                           ;mcc_generated_files/LINDrivers/lin_master.c: 134:                 if(TXSTAbits.TRMT == 
      +                          1){
  3961     030D  0023               	movlb	3	; select bank3
  3962     030E  1C9E               	btfss	30,1	;volatile
  3963     030F  2B11               	goto	u2151
  3964     0310  2B12               	goto	u2150
  3965     0311                     u2151:
  3966     0311  2B6F               	goto	l105
  3967     0312                     u2150:
  3968     0312                     l2654:
  3969                           
  3970                           ;mcc_generated_files/LINDrivers/lin_master.c: 136:                     if(LIN_rxPacket.r
      +                          xLength > 0){
  3971     0312  0021               	movlb	1	; select bank1
  3972     0313  0839               	movf	(_LIN_rxPacket^(0+128)+1),w
  3973     0314  1903               	btfsc	3,2
  3974     0315  2B17               	goto	u2161
  3975     0316  2B18               	goto	u2160
  3976     0317                     u2161:
  3977     0317  2B23               	goto	l2660
  3978     0318                     u2160:
  3979     0318                     l2656:
  3980                           
  3981                           ;mcc_generated_files/LINDrivers/lin_master.c: 138:                         LIN_startTime
      +                          r(LIN_rxPacket.timeout);
  3982     0318  0843               	movf	(_LIN_rxPacket^(0+128)+11),w
  3983     0319  3186  26A2  3182   	fcall	_LIN_startTimer
  3984     031C                     l2658:
  3985                           
  3986                           ;mcc_generated_files/LINDrivers/lin_master.c: 139:                         LIN_enableRx(
      +                          );
  3987     031C  3187  270E  3182   	fcall	_LIN_enableRx
  3988                           
  3989                           ;mcc_generated_files/LINDrivers/lin_master.c: 140:                         LIN_state = L
      +                          IN_RX_IP;
  3990     031F  3002               	movlw	2
  3991     0320  0020               	movlb	0	; select bank0
  3992     0321  00BA               	movwf	LIN_handler@LIN_state
  3993                           
  3994                           ;mcc_generated_files/LINDrivers/lin_master.c: 141:                     } else {
  3995     0322  2B6F               	goto	l105
  3996     0323                     l2660:
  3997                           
  3998                           ;mcc_generated_files/LINDrivers/lin_master.c: 142:                         LIN_state = L
      +                          IN_IDLE;
  3999     0323  0020               	movlb	0	; select bank0
  4000     0324  01BA               	clrf	LIN_handler@LIN_state
  4001     0325  2B6F               	goto	l105
  4002     0326                     l2662:
  4003                           
  4004                           ;mcc_generated_files/LINDrivers/lin_master.c: 149:             if(LIN_timerRunning == 0)
      +                          {
  4005     0326  0020               	movlb	0	; select bank0
  4006     0327  083E               	movf	_LIN_timerRunning,w
  4007     0328  1D03               	btfss	3,2
  4008     0329  2B2B               	goto	u2171
  4009     032A  2B2C               	goto	u2170
  4010     032B                     u2171:
  4011     032B  2B39               	goto	l2668
  4012     032C                     u2170:
  4013     032C                     l2664:
  4014                           
  4015                           ;mcc_generated_files/LINDrivers/lin_master.c: 151:                 LIN_state = LIN_IDLE;
  4016     032C  01BA               	clrf	LIN_handler@LIN_state
  4017     032D                     l2666:
  4018                           
  4019                           ;mcc_generated_files/LINDrivers/lin_master.c: 152:                 memset(LIN_rxPacket.r
      +                          awPacket, 0, sizeof(LIN_rxPacket.rawPacket));
  4020     032D  3000               	movlw	0
  4021     032E  00D3               	movwf	memset@c
  4022     032F  00D4               	movwf	memset@c+1
  4023     0330  300C               	movlw	12
  4024     0331  00D5               	movwf	memset@n
  4025     0332  3000               	movlw	0
  4026     0333  00D6               	movwf	memset@n+1
  4027     0334  30B8               	movlw	(low (_LIN_rxPacket| 0))& (0+255)
  4028     0335  3185  25DF  3182   	fcall	_memset
  4029                           
  4030                           ;mcc_generated_files/LINDrivers/lin_master.c: 153:             } else if(EUSART_is_rx_re
      +                          ady()){
  4031     0338  2B6F               	goto	l105
  4032     0339                     l2668:
  4033     0339  3186  26D0  3182   	fcall	_EUSART_is_rx_ready
  4034     033C  3A00               	xorlw	0
  4035     033D  1903               	skipnz
  4036     033E  2B40               	goto	u2181
  4037     033F  2B41               	goto	u2180
  4038     0340                     u2181:
  4039     0340  2B6F               	goto	l105
  4040     0341                     u2180:
  4041     0341                     l2670:
  4042                           
  4043                           ;mcc_generated_files/LINDrivers/lin_master.c: 154:                 if(LIN_receivePacket(
      +                          ) == 1){
  4044     0341  3184  2421  3182   	fcall	_LIN_receivePacket
  4045     0344  3A01               	xorlw	1
  4046     0345  1D03               	skipz
  4047     0346  2B48               	goto	u2191
  4048     0347  2B49               	goto	u2190
  4049     0348                     u2191:
  4050     0348  2B6F               	goto	l105
  4051     0349                     u2190:
  4052     0349                     l2672:
  4053                           
  4054                           ;mcc_generated_files/LINDrivers/lin_master.c: 156:                     LIN_disableRx();
  4055     0349  3187  2713  3182   	fcall	_LIN_disableRx
  4056     034C                     l2674:
  4057                           
  4058                           ;mcc_generated_files/LINDrivers/lin_master.c: 157:                     LIN_state = LIN_R
      +                          X_RDY;
  4059     034C  3003               	movlw	3
  4060     034D  0020               	movlb	0	; select bank0
  4061     034E  00BA               	movwf	LIN_handler@LIN_state
  4062     034F  2B6F               	goto	l105
  4063     0350                     l2676:
  4064                           
  4065                           ;mcc_generated_files/LINDrivers/lin_master.c: 163:             LIN_processData();
  4066     0350  0020               	movlb	0	; select bank0
  4067     0351  082F               	movf	_LIN_processData+1,w
  4068     0352  008A               	movwf	10
  4069     0353  082E               	movf	_LIN_processData,w
  4070     0354  000A               	callw
  4071     0355  3182               	pagesel	$
  4072     0356  2B23               	goto	l2660
  4073     0357                     l2682:
  4074     0357  0020               	movlb	0	; select bank0
  4075     0358  083A               	movf	LIN_handler@LIN_state,w
  4076     0359  0021               	movlb	1	; select bank1
  4077     035A  00CF               	movwf	??_LIN_handler^(0+128)
  4078     035B  01D0               	clrf	(??_LIN_handler^(0+128)+1)
  4079                           
  4080                           ; Switch on 2 bytes has been partitioned into a top level switch of size 1, and 1 sub-sw
      +                          itches
  4081                           ; Switch size 1, requested type "simple"
  4082                           ; Number of cases is 1, Range of values is 0 to 0
  4083                           ; switch strategies available:
  4084                           ; Name         Instructions Cycles
  4085                           ; simple_byte            4     3 (average)
  4086                           ; direct_byte            8     6 (fixed)
  4087                           ; jumptable            260     6 (fixed)
  4088                           ;	Chosen strategy is simple_byte
  4089     035C  0850               	movf	(??_LIN_handler+1)^(0+128),w
  4090     035D  3A00               	xorlw	0	; case 0
  4091     035E  1903               	skipnz
  4092     035F  2B61               	goto	l2874
  4093     0360  2B6F               	goto	l105
  4094     0361                     l2874:
  4095                           
  4096                           ; Switch size 1, requested type "simple"
  4097                           ; Number of cases is 4, Range of values is 0 to 3
  4098                           ; switch strategies available:
  4099                           ; Name         Instructions Cycles
  4100                           ; simple_byte           13     7 (average)
  4101                           ; direct_byte           14     6 (fixed)
  4102                           ; jumptable            260     6 (fixed)
  4103                           ;	Chosen strategy is simple_byte
  4104     0361  084F               	movf	??_LIN_handler^(0+128),w
  4105     0362  3A00               	xorlw	0	; case 0
  4106     0363  1903               	skipnz
  4107     0364  2AF8               	goto	l2642
  4108     0365  3A01               	xorlw	1	; case 1
  4109     0366  1903               	skipnz
  4110     0367  2B09               	goto	l94
  4111     0368  3A03               	xorlw	3	; case 2
  4112     0369  1903               	skipnz
  4113     036A  2B26               	goto	l2662
  4114     036B  3A01               	xorlw	1	; case 3
  4115     036C  1903               	skipnz
  4116     036D  2B50               	goto	l2676
  4117     036E  2B6F               	goto	l105
  4118     036F                     l105:
  4119     036F  0008               	return
  4120     0370                     __end_of_LIN_handler:
  4121                           
  4122                           	psect	text19
  4123     06BB                     __ptext19:	
  4124 ;; *************** function _processLIN *****************
  4125 ;; Defined at:
  4126 ;;		line 49 in file "mcc_generated_files/LINDrivers/lin_app.c"
  4127 ;; Parameters:    Size  Location     Type
  4128 ;;		None
  4129 ;; Auto vars:     Size  Location     Type
  4130 ;;  tempRxData      8   19[BANK0 ] unsigned char [8]
  4131 ;;  cmd             1   27[BANK0 ] unsigned char 
  4132 ;; Return value:  Size  Location     Type
  4133 ;;                  1    wreg      void 
  4134 ;; Registers used:
  4135 ;;		wreg, fsr0l, fsr0h, fsr1l, fsr1h, status,2, status,0, pclath, cstack
  4136 ;; Tracked objects:
  4137 ;;		On entry : 0/0
  4138 ;;		On exit  : 0/0
  4139 ;;		Unchanged: 0/0
  4140 ;; Data sizes:     COMMON   BANK0   BANK1   BANK2   BANK3   BANK4   BANK5   BANK6
  4141 ;;      Params:         0       0       0       0       0       0       0       0
  4142 ;;      Locals:         0       9       0       0       0       0       0       0
  4143 ;;      Temps:          0       0       0       0       0       0       0       0
  4144 ;;      Totals:         0       9       0       0       0       0       0       0
  4145 ;;Total ram usage:        9 bytes
  4146 ;; Hardware stack levels used: 1
  4147 ;; Hardware stack levels required when called: 8
  4148 ;; This function calls:
  4149 ;;		_LIN_getPacket
  4150 ;; This function is called by:
  4151 ;;		_LIN_Master_Initialize
  4152 ;;		_LIN_handler
  4153 ;; This function uses a non-reentrant model
  4154 ;;
  4155                           
  4156     06BB                     _processLIN:	
  4157                           ;psect for function _processLIN
  4158                           
  4159     06BB                     l2234:	
  4160                           ;incstack = 0
  4161                           ; Regs used in _processLIN: [wreg-fsr1h+status,2+status,0+pclath+cstack]
  4162                           
  4163                           
  4164                           ;mcc_generated_files/LINDrivers/lin_app.c: 50:     uint8_t tempRxData[8];;mcc_generated_
      +                          files/LINDrivers/lin_app.c: 51:     uint8_t cmd;;mcc_generated_files/LINDrivers/lin_app.
      +                          c: 53:     cmd = LIN_getPacket(tempRxData);
  4165     06BB  305D               	movlw	(low (processLIN@tempRxData| 0))& (0+255)
  4166     06BC  3185  25A0  3186   	fcall	_LIN_getPacket
  4167     06BF  0020               	movlb	0	; select bank0
  4168     06C0  00E5               	movwf	processLIN@cmd
  4169     06C1                     l2238:	
  4170                           ;mcc_generated_files/LINDrivers/lin_app.c: 54:     switch(cmd){
  4171                           
  4172     06C1  0865               	movf	processLIN@cmd,w
  4173                           
  4174                           ; Switch size 1, requested type "simple"
  4175                           ; Number of cases is 1, Range of values is 1 to 1
  4176                           ; switch strategies available:
  4177                           ; Name         Instructions Cycles
  4178                           ; simple_byte            4     3 (average)
  4179                           ; direct_byte           11     9 (fixed)
  4180                           ; jumptable            263     9 (fixed)
  4181                           ;	Chosen strategy is simple_byte
  4182     06C2  3A01               	xorlw	1	; case 1
  4183     06C3  1903               	skipnz
  4184     06C4  2EC6               	goto	l193
  4185     06C5  2EC6               	goto	l193
  4186     06C6                     l193:
  4187     06C6  0008               	return
  4188     06C7                     __end_of_processLIN:
  4189                           
  4190                           	psect	text20
  4191     05A0                     __ptext20:	
  4192 ;; *************** function _LIN_getPacket *****************
  4193 ;; Defined at:
  4194 ;;		line 209 in file "mcc_generated_files/LINDrivers/lin_master.c"
  4195 ;; Parameters:    Size  Location     Type
  4196 ;;  data            1    wreg     PTR unsigned char 
  4197 ;;		 -> processLIN@tempRxData(8), 
  4198 ;; Auto vars:     Size  Location     Type
  4199 ;;  data            1   18[BANK0 ] PTR unsigned char 
  4200 ;;		 -> processLIN@tempRxData(8), 
  4201 ;;  cmd             1   17[BANK0 ] unsigned char 
  4202 ;; Return value:  Size  Location     Type
  4203 ;;                  1    wreg      unsigned char 
  4204 ;; Registers used:
  4205 ;;		wreg, fsr1l, fsr1h, status,2, status,0, pclath, cstack
  4206 ;; Tracked objects:
  4207 ;;		On entry : 0/0
  4208 ;;		On exit  : 0/0
  4209 ;;		Unchanged: 0/0
  4210 ;; Data sizes:     COMMON   BANK0   BANK1   BANK2   BANK3   BANK4   BANK5   BANK6
  4211 ;;      Params:         0       0       0       0       0       0       0       0
  4212 ;;      Locals:         0       2       0       0       0       0       0       0
  4213 ;;      Temps:          0       0       0       0       0       0       0       0
  4214 ;;      Totals:         0       2       0       0       0       0       0       0
  4215 ;;Total ram usage:        2 bytes
  4216 ;; Hardware stack levels used: 1
  4217 ;; Hardware stack levels required when called: 7
  4218 ;; This function calls:
  4219 ;;		_memcpy
  4220 ;;		_memset
  4221 ;; This function is called by:
  4222 ;;		_processLIN
  4223 ;; This function uses a non-reentrant model
  4224 ;;
  4225                           
  4226     05A0                     _LIN_getPacket:	
  4227                           ;psect for function _LIN_getPacket
  4228                           
  4229                           
  4230                           ;incstack = 0
  4231                           ; Regs used in _LIN_getPacket: [wreg+fsr1l+fsr1h+status,2+status,0+pclath+cstack]
  4232                           ;LIN_getPacket@data stored from wreg
  4233     05A0  0020               	movlb	0	; select bank0
  4234     05A1  00DC               	movwf	LIN_getPacket@data
  4235     05A2                     l2112:
  4236                           
  4237                           ;mcc_generated_files/LINDrivers/lin_master.c: 210:     uint8_t cmd = LIN_rxPacket.cmd & 
      +                          0x3F;
  4238     05A2  0021               	movlb	1	; select bank1
  4239     05A3  0838               	movf	_LIN_rxPacket^(0+128),w
  4240     05A4  393F               	andlw	63
  4241     05A5  0020               	movlb	0	; select bank0
  4242     05A6  00DB               	movwf	LIN_getPacket@cmd
  4243     05A7                     l2114:
  4244                           
  4245                           ;mcc_generated_files/LINDrivers/lin_master.c: 212:     memcpy(data, LIN_rxPacket.data, s
      +                          izeof(LIN_rxPacket.data));
  4246     05A7  30BA               	movlw	(low ((_LIN_rxPacket| 0+2)))& (0+255)
  4247     05A8  00D3               	movwf	memcpy@s1
  4248     05A9  3008               	movlw	8
  4249     05AA  00D4               	movwf	memcpy@n
  4250     05AB  3000               	movlw	0
  4251     05AC  00D5               	movwf	memcpy@n+1
  4252     05AD  085C               	movf	LIN_getPacket@data,w
  4253     05AE  3185  2533  3185   	fcall	_memcpy
  4254     05B1                     l2116:
  4255                           
  4256                           ;mcc_generated_files/LINDrivers/lin_master.c: 213:     memset(LIN_rxPacket.rawPacket, 0,
      +                           sizeof(LIN_rxPacket.rawPacket));
  4257     05B1  3000               	movlw	0
  4258     05B2  0020               	movlb	0	; select bank0
  4259     05B3  00D3               	movwf	memset@c
  4260     05B4  00D4               	movwf	memset@c+1
  4261     05B5  300C               	movlw	12
  4262     05B6  00D5               	movwf	memset@n
  4263     05B7  3000               	movlw	0
  4264     05B8  00D6               	movwf	memset@n+1
  4265     05B9  30B8               	movlw	(low (_LIN_rxPacket| 0))& (0+255)
  4266     05BA  3185  25DF  3185   	fcall	_memset
  4267     05BD                     l2118:
  4268                           
  4269                           ;mcc_generated_files/LINDrivers/lin_master.c: 215:     return cmd;
  4270     05BD  0020               	movlb	0	; select bank0
  4271     05BE  085B               	movf	LIN_getPacket@cmd,w
  4272     05BF                     l123:
  4273     05BF  0008               	return
  4274     05C0                     __end_of_LIN_getPacket:
  4275                           
  4276                           	psect	text21
  4277     05DF                     __ptext21:	
  4278 ;; *************** function _memset *****************
  4279 ;; Defined at:
  4280 ;;		line 3 in file "C:\Program Files\Microchip\xc8\v2.46\pic\sources\c99\common\memset.c"
  4281 ;; Parameters:    Size  Location     Type
  4282 ;;  dest            1    wreg     PTR void 
  4283 ;;		 -> LIN_rxPacket(12), LIN_packet(11), 
  4284 ;;  c               2    9[BANK0 ] int 
  4285 ;;  n               2   11[BANK0 ] unsigned int 
  4286 ;; Auto vars:     Size  Location     Type
  4287 ;;  dest            1   15[BANK0 ] PTR void 
  4288 ;;		 -> LIN_rxPacket(12), LIN_packet(11), 
  4289 ;;  p               1   14[BANK0 ] PTR unsigned char 
  4290 ;;		 -> LIN_rxPacket(12), LIN_packet(11), 
  4291 ;; Return value:  Size  Location     Type
  4292 ;;                  1    wreg      PTR void 
  4293 ;; Registers used:
  4294 ;;		wreg, fsr1l, fsr1h, status,2, status,0
  4295 ;; Tracked objects:
  4296 ;;		On entry : 0/0
  4297 ;;		On exit  : 0/0
  4298 ;;		Unchanged: 0/0
  4299 ;; Data sizes:     COMMON   BANK0   BANK1   BANK2   BANK3   BANK4   BANK5   BANK6
  4300 ;;      Params:         0       4       0       0       0       0       0       0
  4301 ;;      Locals:         0       2       0       0       0       0       0       0
  4302 ;;      Temps:          0       1       0       0       0       0       0       0
  4303 ;;      Totals:         0       7       0       0       0       0       0       0
  4304 ;;Total ram usage:        7 bytes
  4305 ;; Hardware stack levels used: 1
  4306 ;; Hardware stack levels required when called: 6
  4307 ;; This function calls:
  4308 ;;		Nothing
  4309 ;; This function is called by:
  4310 ;;		_LIN_handler
  4311 ;;		_LIN_getPacket
  4312 ;; This function uses a non-reentrant model
  4313 ;;
  4314                           
  4315     05DF                     _memset:	
  4316                           ;psect for function _memset
  4317                           
  4318                           
  4319                           ;incstack = 0
  4320                           ; Regs used in _memset: [wreg+fsr1l+fsr1h+status,2+status,0]
  4321                           ;memset@dest stored from wreg
  4322     05DF  0020               	movlb	0	; select bank0
  4323     05E0  00D9               	movwf	memset@dest
  4324     05E1                     l2014:
  4325     05E1  0859               	movf	memset@dest,w
  4326     05E2  00D8               	movwf	memset@p
  4327     05E3  2DED               	goto	l2020
  4328     05E4                     l2016:
  4329     05E4  0858               	movf	memset@p,w
  4330     05E5  0086               	movwf	6
  4331     05E6  0187               	clrf	7
  4332     05E7  0853               	movf	memset@c,w
  4333     05E8  0081               	movwf	1
  4334     05E9                     l2018:
  4335     05E9  3001               	movlw	1
  4336     05EA  00D7               	movwf	??_memset
  4337     05EB  0857               	movf	??_memset,w
  4338     05EC  07D8               	addwf	memset@p,f
  4339     05ED                     l2020:
  4340     05ED  3001               	movlw	1
  4341     05EE  02D5               	subwf	memset@n,f
  4342     05EF  3000               	movlw	0
  4343     05F0  3BD6               	subwfb	memset@n+1,f
  4344     05F1  0A55               	incf	memset@n,w
  4345     05F2  1D03               	skipz
  4346     05F3  2DF8               	goto	u1411
  4347     05F4  0A56               	incf	memset@n+1,w
  4348     05F5  1D03               	btfss	3,2
  4349     05F6  2DF8               	goto	u1411
  4350     05F7  2DF9               	goto	u1410
  4351     05F8                     u1411:
  4352     05F8  2DE4               	goto	l2016
  4353     05F9                     u1410:
  4354     05F9                     l1202:
  4355     05F9  0008               	return
  4356     05FA                     __end_of_memset:
  4357                           
  4358                           	psect	text22
  4359     0533                     __ptext22:	
  4360 ;; *************** function _memcpy *****************
  4361 ;; Defined at:
  4362 ;;		line 4 in file "C:\Program Files\Microchip\xc8\v2.46\pic\sources\c99\common\memcpy.c"
  4363 ;; Parameters:    Size  Location     Type
  4364 ;;  d1              1    wreg     PTR void 
  4365 ;;		 -> processLIN@tempRxData(8), LIN_packet(11), 
  4366 ;;  s1              1    9[BANK0 ] PTR const void 
  4367 ;;		 -> SW_STATE_Data(8), LIN_rxPacket$data(8), LIN_rxPacket(12), 
  4368 ;;  n               2   10[BANK0 ] unsigned int 
  4369 ;; Auto vars:     Size  Location     Type
  4370 ;;  d1              1   16[BANK0 ] PTR void 
  4371 ;;		 -> processLIN@tempRxData(8), LIN_packet(11), 
  4372 ;;  s               1   15[BANK0 ] PTR const unsigned char 
  4373 ;;		 -> SW_STATE_Data(8), LIN_rxPacket$data(8), LIN_rxPacket(12), 
  4374 ;;  d               1   14[BANK0 ] PTR unsigned char 
  4375 ;;		 -> processLIN@tempRxData(8), LIN_packet(11), 
  4376 ;;  tmp             1   13[BANK0 ] unsigned char 
  4377 ;; Return value:  Size  Location     Type
  4378 ;;                  1    wreg      PTR void 
  4379 ;; Registers used:
  4380 ;;		wreg, fsr1l, fsr1h, status,2, status,0
  4381 ;; Tracked objects:
  4382 ;;		On entry : 0/0
  4383 ;;		On exit  : 0/0
  4384 ;;		Unchanged: 0/0
  4385 ;; Data sizes:     COMMON   BANK0   BANK1   BANK2   BANK3   BANK4   BANK5   BANK6
  4386 ;;      Params:         0       3       0       0       0       0       0       0
  4387 ;;      Locals:         0       4       0       0       0       0       0       0
  4388 ;;      Temps:          0       1       0       0       0       0       0       0
  4389 ;;      Totals:         0       8       0       0       0       0       0       0
  4390 ;;Total ram usage:        8 bytes
  4391 ;; Hardware stack levels used: 1
  4392 ;; Hardware stack levels required when called: 6
  4393 ;; This function calls:
  4394 ;;		Nothing
  4395 ;; This function is called by:
  4396 ;;		_LIN_getPacket
  4397 ;; This function uses a non-reentrant model
  4398 ;;
  4399                           
  4400     0533                     _memcpy:	
  4401                           ;psect for function _memcpy
  4402                           
  4403                           
  4404                           ;incstack = 0
  4405                           ; Regs used in _memcpy: [wreg+fsr1l+fsr1h+status,2+status,0]
  4406                           ;memcpy@d1 stored from wreg
  4407     0533  0020               	movlb	0	; select bank0
  4408     0534  00DA               	movwf	memcpy@d1
  4409     0535                     l2022:
  4410     0535  0853               	movf	memcpy@s1,w
  4411     0536  00D9               	movwf	memcpy@s
  4412     0537  085A               	movf	memcpy@d1,w
  4413     0538  00D8               	movwf	memcpy@d
  4414     0539  2D4C               	goto	l1193
  4415     053A                     l2024:
  4416     053A  0859               	movf	memcpy@s,w
  4417     053B  0086               	movwf	6
  4418     053C  0187               	clrf	7
  4419     053D  0801               	movf	1,w
  4420     053E  00D7               	movwf	memcpy@tmp
  4421     053F                     l2026:
  4422     053F  3001               	movlw	1
  4423     0540  00D6               	movwf	??_memcpy
  4424     0541  0856               	movf	??_memcpy,w
  4425     0542  07D9               	addwf	memcpy@s,f
  4426     0543                     l2028:
  4427     0543  0858               	movf	memcpy@d,w
  4428     0544  0086               	movwf	6
  4429     0545  0187               	clrf	7
  4430     0546  0857               	movf	memcpy@tmp,w
  4431     0547  0081               	movwf	1
  4432     0548  3001               	movlw	1
  4433     0549  00D6               	movwf	??_memcpy
  4434     054A  0856               	movf	??_memcpy,w
  4435     054B  07D8               	addwf	memcpy@d,f
  4436     054C                     l1193:
  4437     054C  3001               	movlw	1
  4438     054D  02D4               	subwf	memcpy@n,f
  4439     054E  3000               	movlw	0
  4440     054F  3BD5               	subwfb	memcpy@n+1,f
  4441     0550  0A54               	incf	memcpy@n,w
  4442     0551  1D03               	skipz
  4443     0552  2D57               	goto	u1421
  4444     0553  0A55               	incf	memcpy@n+1,w
  4445     0554  1D03               	btfss	3,2
  4446     0555  2D57               	goto	u1421
  4447     0556  2D58               	goto	u1420
  4448     0557                     u1421:
  4449     0557  2D3A               	goto	l2024
  4450     0558                     u1420:
  4451     0558                     l1196:
  4452     0558  0008               	return
  4453     0559                     __end_of_memcpy:
  4454                           
  4455                           	psect	text23
  4456     06A2                     __ptext23:	
  4457 ;; *************** function _LIN_startTimer *****************
  4458 ;; Defined at:
  4459 ;;		line 249 in file "mcc_generated_files/LINDrivers/lin_master.c"
  4460 ;; Parameters:    Size  Location     Type
  4461 ;;  timeout         1    wreg     unsigned char 
  4462 ;; Auto vars:     Size  Location     Type
  4463 ;;  timeout         1   10[BANK0 ] unsigned char 
  4464 ;; Return value:  Size  Location     Type
  4465 ;;                  1    wreg      void 
  4466 ;; Registers used:
  4467 ;;		wreg, status,2, status,0, pclath, cstack
  4468 ;; Tracked objects:
  4469 ;;		On entry : 0/0
  4470 ;;		On exit  : 0/0
  4471 ;;		Unchanged: 0/0
  4472 ;; Data sizes:     COMMON   BANK0   BANK1   BANK2   BANK3   BANK4   BANK5   BANK6
  4473 ;;      Params:         0       0       0       0       0       0       0       0
  4474 ;;      Locals:         0       1       0       0       0       0       0       0
  4475 ;;      Temps:          0       0       0       0       0       0       0       0
  4476 ;;      Totals:         0       1       0       0       0       0       0       0
  4477 ;;Total ram usage:        1 bytes
  4478 ;; Hardware stack levels used: 1
  4479 ;; Hardware stack levels required when called: 7
  4480 ;; This function calls:
  4481 ;;		_TMR0_WriteTimer
  4482 ;; This function is called by:
  4483 ;;		_LIN_handler
  4484 ;; This function uses a non-reentrant model
  4485 ;;
  4486                           
  4487     06A2                     _LIN_startTimer:	
  4488                           ;psect for function _LIN_startTimer
  4489                           
  4490                           
  4491                           ;incstack = 0
  4492                           ; Regs used in _LIN_startTimer: [wreg+status,2+status,0+pclath+cstack]
  4493                           ;LIN_startTimer@timeout stored from wreg
  4494     06A2  0020               	movlb	0	; select bank0
  4495     06A3  00D4               	movwf	LIN_startTimer@timeout
  4496     06A4                     l2186:
  4497                           
  4498                           ;mcc_generated_files/LINDrivers/lin_master.c: 250:     LIN_timeout = timeout;
  4499     06A4  0854               	movf	LIN_startTimer@timeout,w
  4500     06A5  00E6               	movwf	_LIN_timeout
  4501     06A6                     l2188:
  4502                           
  4503                           ;mcc_generated_files/LINDrivers/lin_master.c: 251:     TMR0_WriteTimer(0);
  4504     06A6  3000               	movlw	0
  4505     06A7  3187  2709  3186   	fcall	_TMR0_WriteTimer
  4506     06AA                     l2190:
  4507                           
  4508                           ;mcc_generated_files/LINDrivers/lin_master.c: 252:     __nop();
  4509     06AA  0000               	nop
  4510     06AB                     l2192:
  4511                           
  4512                           ;mcc_generated_files/LINDrivers/lin_master.c: 253:     LIN_timerRunning = 1;
  4513     06AB  0020               	movlb	0	; select bank0
  4514     06AC  01BE               	clrf	_LIN_timerRunning
  4515     06AD  0ABE               	incf	_LIN_timerRunning,f
  4516     06AE                     l136:
  4517     06AE  0008               	return
  4518     06AF                     __end_of_LIN_startTimer:
  4519                           
  4520                           	psect	text24
  4521     0709                     __ptext24:	
  4522 ;; *************** function _TMR0_WriteTimer *****************
  4523 ;; Defined at:
  4524 ;;		line 96 in file "mcc_generated_files/tmr0.c"
  4525 ;; Parameters:    Size  Location     Type
  4526 ;;  timerVal        1    wreg     unsigned char 
  4527 ;; Auto vars:     Size  Location     Type
  4528 ;;  timerVal        1    9[BANK0 ] unsigned char 
  4529 ;; Return value:  Size  Location     Type
  4530 ;;                  1    wreg      void 
  4531 ;; Registers used:
  4532 ;;		wreg
  4533 ;; Tracked objects:
  4534 ;;		On entry : 0/0
  4535 ;;		On exit  : 0/0
  4536 ;;		Unchanged: 0/0
  4537 ;; Data sizes:     COMMON   BANK0   BANK1   BANK2   BANK3   BANK4   BANK5   BANK6
  4538 ;;      Params:         0       0       0       0       0       0       0       0
  4539 ;;      Locals:         0       1       0       0       0       0       0       0
  4540 ;;      Temps:          0       0       0       0       0       0       0       0
  4541 ;;      Totals:         0       1       0       0       0       0       0       0
  4542 ;;Total ram usage:        1 bytes
  4543 ;; Hardware stack levels used: 1
  4544 ;; Hardware stack levels required when called: 6
  4545 ;; This function calls:
  4546 ;;		Nothing
  4547 ;; This function is called by:
  4548 ;;		_LIN_startTimer
  4549 ;; This function uses a non-reentrant model
  4550 ;;
  4551                           
  4552     0709                     _TMR0_WriteTimer:	
  4553                           ;psect for function _TMR0_WriteTimer
  4554                           
  4555                           
  4556                           ;incstack = 0
  4557                           ; Regs used in _TMR0_WriteTimer: [wreg]
  4558                           ;TMR0_WriteTimer@timerVal stored from wreg
  4559     0709  0020               	movlb	0	; select bank0
  4560     070A  00D3               	movwf	TMR0_WriteTimer@timerVal
  4561     070B                     l2122:
  4562                           
  4563                           ;mcc_generated_files/tmr0.c: 96: void TMR0_WriteTimer(uint8_t timerVal);mcc_generated_fi
      +                          les/tmr0.c: 97: {;mcc_generated_files/tmr0.c: 99:     TMR0 = timerVal;
  4564     070B  0853               	movf	TMR0_WriteTimer@timerVal,w
  4565     070C  0095               	movwf	21	;volatile
  4566     070D                     l461:
  4567     070D  0008               	return
  4568     070E                     __end_of_TMR0_WriteTimer:
  4569                           
  4570                           	psect	text25
  4571     03ED                     __ptext25:	
  4572 ;; *************** function _LIN_sendPacket *****************
  4573 ;; Defined at:
  4574 ;;		line 188 in file "mcc_generated_files/LINDrivers/lin_master.c"
  4575 ;; Parameters:    Size  Location     Type
  4576 ;;		None
  4577 ;; Auto vars:     Size  Location     Type
  4578 ;;  i               1   12[BANK0 ] unsigned char 
  4579 ;; Return value:  Size  Location     Type
  4580 ;;                  1    wreg      void 
  4581 ;; Registers used:
  4582 ;;		wreg, fsr1l, fsr1h, status,2, status,0, pclath, cstack
  4583 ;; Tracked objects:
  4584 ;;		On entry : 0/0
  4585 ;;		On exit  : 0/0
  4586 ;;		Unchanged: 0/0
  4587 ;; Data sizes:     COMMON   BANK0   BANK1   BANK2   BANK3   BANK4   BANK5   BANK6
  4588 ;;      Params:         0       0       0       0       0       0       0       0
  4589 ;;      Locals:         0       1       0       0       0       0       0       0
  4590 ;;      Temps:          0       1       0       0       0       0       0       0
  4591 ;;      Totals:         0       2       0       0       0       0       0       0
  4592 ;;Total ram usage:        2 bytes
  4593 ;; Hardware stack levels used: 1
  4594 ;; Hardware stack levels required when called: 7
  4595 ;; This function calls:
  4596 ;;		_EUSART_Write
  4597 ;;		_LIN_sendBreak
  4598 ;; This function is called by:
  4599 ;;		_LIN_handler
  4600 ;; This function uses a non-reentrant model
  4601 ;;
  4602                           
  4603     03ED                     _LIN_sendPacket:	
  4604                           ;psect for function _LIN_sendPacket
  4605                           
  4606     03ED                     l2166:	
  4607                           ;incstack = 0
  4608                           ; Regs used in _LIN_sendPacket: [wreg+fsr1l+fsr1h+status,2+status,0+pclath+cstack]
  4609                           
  4610                           
  4611                           ;mcc_generated_files/LINDrivers/lin_master.c: 191:     LIN_sendBreak();
  4612     03ED  3187  2734  3183   	fcall	_LIN_sendBreak
  4613     03F0                     l2168:
  4614                           
  4615                           ;mcc_generated_files/LINDrivers/lin_master.c: 192:     EUSART_Write(0x00);
  4616     03F0  3000               	movlw	0
  4617     03F1  3184  24BC  3183   	fcall	_EUSART_Write
  4618     03F4                     l2170:
  4619                           
  4620                           ;mcc_generated_files/LINDrivers/lin_master.c: 194:     EUSART_Write(0x55);
  4621     03F4  3055               	movlw	85
  4622     03F5  3184  24BC  3183   	fcall	_EUSART_Write
  4623     03F8                     l2172:
  4624                           
  4625                           ;mcc_generated_files/LINDrivers/lin_master.c: 196:     EUSART_Write(LIN_packet.PID);
  4626     03F8  0021               	movlb	1	; select bank1
  4627     03F9  0844               	movf	_LIN_packet^(0+128),w
  4628     03FA  3184  24BC  3183   	fcall	_EUSART_Write
  4629     03FD                     l2174:
  4630                           
  4631                           ;mcc_generated_files/LINDrivers/lin_master.c: 198:     if(LIN_rxPacket.rxLength == 0){
  4632     03FD  0021               	movlb	1	; select bank1
  4633     03FE  0839               	movf	(_LIN_rxPacket^(0+128)+1),w
  4634     03FF  1D03               	btfss	3,2
  4635     0400  2C02               	goto	u1581
  4636     0401  2C03               	goto	u1580
  4637     0402                     u1581:
  4638     0402  2C20               	goto	l120
  4639     0403                     u1580:
  4640     0403                     l2176:
  4641                           
  4642                           ;mcc_generated_files/LINDrivers/lin_master.c: 201:         for(uint8_t i = 0; i < LIN_pa
      +                          cket.length; i++){
  4643     0403  0020               	movlb	0	; select bank0
  4644     0404  01D6               	clrf	LIN_sendPacket@i
  4645     0405  2C13               	goto	l2182
  4646     0406                     l2178:
  4647                           
  4648                           ;mcc_generated_files/LINDrivers/lin_master.c: 202:             EUSART_Write(LIN_packet.d
      +                          ata[i]);
  4649     0406  0856               	movf	LIN_sendPacket@i,w
  4650     0407  3EC5               	addlw	(low ((_LIN_packet| 0+1)))& (0+255)
  4651     0408  0086               	movwf	6
  4652     0409  0187               	clrf	7
  4653     040A  0801               	movf	1,w
  4654     040B  3184  24BC  3183   	fcall	_EUSART_Write
  4655     040E                     l2180:
  4656                           
  4657                           ;mcc_generated_files/LINDrivers/lin_master.c: 203:         }
  4658     040E  3001               	movlw	1
  4659     040F  0020               	movlb	0	; select bank0
  4660     0410  00D5               	movwf	??_LIN_sendPacket
  4661     0411  0855               	movf	??_LIN_sendPacket,w
  4662     0412  07D6               	addwf	LIN_sendPacket@i,f
  4663     0413                     l2182:
  4664     0413  0021               	movlb	1	; select bank1
  4665     0414  084E               	movf	(_LIN_packet^(0+128)+10),w
  4666     0415  0020               	movlb	0	; select bank0
  4667     0416  0256               	subwf	LIN_sendPacket@i,w
  4668     0417  1C03               	skipc
  4669     0418  2C1A               	goto	u1591
  4670     0419  2C1B               	goto	u1590
  4671     041A                     u1591:
  4672     041A  2C06               	goto	l2178
  4673     041B                     u1590:
  4674     041B                     l2184:
  4675                           
  4676                           ;mcc_generated_files/LINDrivers/lin_master.c: 205:         EUSART_Write(LIN_packet.check
      +                          sum);
  4677     041B  0021               	movlb	1	; select bank1
  4678     041C  084D               	movf	(_LIN_packet^(0+128)+9),w
  4679     041D  3184  24BC  3183   	fcall	_EUSART_Write
  4680     0420                     l120:
  4681     0420  0008               	return
  4682     0421                     __end_of_LIN_sendPacket:
  4683                           
  4684                           	psect	text26
  4685     0734                     __ptext26:	
  4686 ;; *************** function _LIN_sendBreak *****************
  4687 ;; Defined at:
  4688 ;;		line 302 in file "mcc_generated_files/LINDrivers/lin_master.c"
  4689 ;; Parameters:    Size  Location     Type
  4690 ;;		None
  4691 ;; Auto vars:     Size  Location     Type
  4692 ;;		None
  4693 ;; Return value:  Size  Location     Type
  4694 ;;                  1    wreg      void 
  4695 ;; Registers used:
  4696 ;;		None
  4697 ;; Tracked objects:
  4698 ;;		On entry : 0/0
  4699 ;;		On exit  : 0/0
  4700 ;;		Unchanged: 0/0
  4701 ;; Data sizes:     COMMON   BANK0   BANK1   BANK2   BANK3   BANK4   BANK5   BANK6
  4702 ;;      Params:         0       0       0       0       0       0       0       0
  4703 ;;      Locals:         0       0       0       0       0       0       0       0
  4704 ;;      Temps:          0       0       0       0       0       0       0       0
  4705 ;;      Totals:         0       0       0       0       0       0       0       0
  4706 ;;Total ram usage:        0 bytes
  4707 ;; Hardware stack levels used: 1
  4708 ;; Hardware stack levels required when called: 6
  4709 ;; This function calls:
  4710 ;;		Nothing
  4711 ;; This function is called by:
  4712 ;;		_LIN_sendPacket
  4713 ;; This function uses a non-reentrant model
  4714 ;;
  4715                           
  4716     0734                     _LIN_sendBreak:	
  4717                           ;psect for function _LIN_sendBreak
  4718                           
  4719     0734                     l2092:	
  4720                           ;incstack = 0
  4721                           ; Regs used in _LIN_sendBreak: []
  4722                           
  4723                           
  4724                           ;mcc_generated_files/LINDrivers/lin_master.c: 303:     TXSTAbits.SENDB = 1;
  4725     0734  0023               	movlb	3	; select bank3
  4726     0735  159E               	bsf	30,3	;volatile
  4727     0736                     l164:
  4728     0736  0008               	return
  4729     0737                     __end_of_LIN_sendBreak:
  4730                           
  4731                           	psect	text27
  4732     04BC                     __ptext27:	
  4733 ;; *************** function _EUSART_Write *****************
  4734 ;; Defined at:
  4735 ;;		line 173 in file "mcc_generated_files/eusart.c"
  4736 ;; Parameters:    Size  Location     Type
  4737 ;;  txData          1    wreg     unsigned char 
  4738 ;; Auto vars:     Size  Location     Type
  4739 ;;  txData          1   10[BANK0 ] unsigned char 
  4740 ;; Return value:  Size  Location     Type
  4741 ;;                  1    wreg      void 
  4742 ;; Registers used:
  4743 ;;		wreg, fsr1l, fsr1h, status,2, status,0
  4744 ;; Tracked objects:
  4745 ;;		On entry : 0/0
  4746 ;;		On exit  : 0/0
  4747 ;;		Unchanged: 0/0
  4748 ;; Data sizes:     COMMON   BANK0   BANK1   BANK2   BANK3   BANK4   BANK5   BANK6
  4749 ;;      Params:         0       0       0       0       0       0       0       0
  4750 ;;      Locals:         0       1       0       0       0       0       0       0
  4751 ;;      Temps:          0       1       0       0       0       0       0       0
  4752 ;;      Totals:         0       2       0       0       0       0       0       0
  4753 ;;Total ram usage:        2 bytes
  4754 ;; Hardware stack levels used: 1
  4755 ;; Hardware stack levels required when called: 6
  4756 ;; This function calls:
  4757 ;;		Nothing
  4758 ;; This function is called by:
  4759 ;;		_LIN_sendPacket
  4760 ;; This function uses a non-reentrant model
  4761 ;;
  4762                           
  4763     04BC                     _EUSART_Write:	
  4764                           ;psect for function _EUSART_Write
  4765                           
  4766                           
  4767                           ;incstack = 0
  4768                           ; Regs used in _EUSART_Write: [wreg+fsr1l+fsr1h+status,2+status,0]
  4769                           ;EUSART_Write@txData stored from wreg
  4770     04BC  0020               	movlb	0	; select bank0
  4771     04BD  00D4               	movwf	EUSART_Write@txData
  4772     04BE                     l2094:
  4773     04BE                     l2096:	
  4774                           ;mcc_generated_files/eusart.c: 173: void EUSART_Write(uint8_t txData);mcc_generated_file
      +                          s/eusart.c: 174: {;mcc_generated_files/eusart.c: 175:     while(0 == eusartTxBufferRemai
      +                          ning)
  4775                           
  4776                           
  4777                           ;mcc_generated_files/eusart.c: 175:     while(0 == eusartTxBufferRemaining)
  4778     04BE  0835               	movf	_eusartTxBufferRemaining,w	;volatile
  4779     04BF  1903               	btfsc	3,2
  4780     04C0  2CC2               	goto	u1511
  4781     04C1  2CC3               	goto	u1510
  4782     04C2                     u1511:
  4783     04C2  2CBE               	goto	l2096
  4784     04C3                     u1510:
  4785     04C3                     l292:
  4786                           
  4787                           ;mcc_generated_files/eusart.c: 179:     if(0 == PIE1bits.TXIE)
  4788     04C3  0021               	movlb	1	; select bank1
  4789     04C4  1A11               	btfsc	17,4	;volatile
  4790     04C5  2CC7               	goto	u1521
  4791     04C6  2CC8               	goto	u1520
  4792     04C7                     u1521:
  4793     04C7  2CCD               	goto	l293
  4794     04C8                     u1520:
  4795     04C8                     l2098:
  4796                           
  4797                           ;mcc_generated_files/eusart.c: 180:     {;mcc_generated_files/eusart.c: 181:         TXR
      +                          EG = txData;
  4798     04C8  0020               	movlb	0	; select bank0
  4799     04C9  0854               	movf	EUSART_Write@txData,w
  4800     04CA  0023               	movlb	3	; select bank3
  4801     04CB  009A               	movwf	26	;volatile
  4802                           
  4803                           ;mcc_generated_files/eusart.c: 182:     }
  4804     04CC  2CE2               	goto	l2110
  4805     04CD                     l293:	
  4806                           ;mcc_generated_files/eusart.c: 183:     else
  4807                           
  4808                           
  4809                           ;mcc_generated_files/eusart.c: 184:     {;mcc_generated_files/eusart.c: 185:         PIE
      +                          1bits.TXIE = 0;
  4810     04CD  1211               	bcf	17,4	;volatile
  4811     04CE                     l2100:
  4812                           
  4813                           ;mcc_generated_files/eusart.c: 186:         eusartTxBuffer[eusartTxHead++] = txData;
  4814     04CE  0020               	movlb	0	; select bank0
  4815     04CF  0837               	movf	_eusartTxHead,w
  4816     04D0  3EB0               	addlw	(low (_eusartTxBuffer| 0))& (0+255)
  4817     04D1  0086               	movwf	6
  4818     04D2  0187               	clrf	7
  4819     04D3  0854               	movf	EUSART_Write@txData,w
  4820     04D4  0081               	movwf	1
  4821     04D5                     l2102:
  4822     04D5  3001               	movlw	1
  4823     04D6  00D3               	movwf	??_EUSART_Write
  4824     04D7  0853               	movf	??_EUSART_Write,w
  4825     04D8  07B7               	addwf	_eusartTxHead,f	;volatile
  4826     04D9                     l2104:
  4827                           
  4828                           ;mcc_generated_files/eusart.c: 187:         if(sizeof(eusartTxBuffer) <= eusartTxHead)
  4829     04D9  3008               	movlw	8
  4830     04DA  0237               	subwf	_eusartTxHead,w	;volatile
  4831     04DB  1C03               	skipc
  4832     04DC  2CDE               	goto	u1531
  4833     04DD  2CDF               	goto	u1530
  4834     04DE                     u1531:
  4835     04DE  2CE0               	goto	l2108
  4836     04DF                     u1530:
  4837     04DF                     l2106:
  4838                           
  4839                           ;mcc_generated_files/eusart.c: 188:         {;mcc_generated_files/eusart.c: 189:        
      +                               eusartTxHead = 0;
  4840     04DF  01B7               	clrf	_eusartTxHead	;volatile
  4841     04E0                     l2108:
  4842                           
  4843                           ;mcc_generated_files/eusart.c: 191:         eusartTxBufferRemaining--;
  4844     04E0  3001               	movlw	1
  4845     04E1  02B5               	subwf	_eusartTxBufferRemaining,f	;volatile
  4846     04E2                     l2110:
  4847                           
  4848                           ;mcc_generated_files/eusart.c: 193:     PIE1bits.TXIE = 1;
  4849     04E2  0021               	movlb	1	; select bank1
  4850     04E3  1611               	bsf	17,4	;volatile
  4851     04E4                     l296:
  4852     04E4  0008               	return
  4853     04E5                     __end_of_EUSART_Write:
  4854                           
  4855                           	psect	text28
  4856     0421                     __ptext28:	
  4857 ;; *************** function _LIN_receivePacket *****************
  4858 ;; Defined at:
  4859 ;;		line 170 in file "mcc_generated_files/LINDrivers/lin_master.c"
  4860 ;; Parameters:    Size  Location     Type
  4861 ;;		None
  4862 ;; Auto vars:     Size  Location     Type
  4863 ;;		None
  4864 ;; Return value:  Size  Location     Type
  4865 ;;                  1    wreg      _Bool 
  4866 ;; Registers used:
  4867 ;;		wreg, fsr1l, fsr1h, status,2, status,0, pclath, cstack
  4868 ;; Tracked objects:
  4869 ;;		On entry : 0/0
  4870 ;;		On exit  : 0/0
  4871 ;;		Unchanged: 0/0
  4872 ;; Data sizes:     COMMON   BANK0   BANK1   BANK2   BANK3   BANK4   BANK5   BANK6
  4873 ;;      Params:         0       0       0       0       0       0       0       0
  4874 ;;      Locals:         0       0       0       0       0       0       0       0
  4875 ;;      Temps:          0       1       0       0       0       0       0       0
  4876 ;;      Totals:         0       1       0       0       0       0       0       0
  4877 ;;Total ram usage:        1 bytes
  4878 ;; Hardware stack levels used: 1
  4879 ;; Hardware stack levels required when called: 7
  4880 ;; This function calls:
  4881 ;;		_EUSART_Read
  4882 ;;		_LIN_getChecksum
  4883 ;; This function is called by:
  4884 ;;		_LIN_handler
  4885 ;; This function uses a non-reentrant model
  4886 ;;
  4887                           
  4888     0421                     _LIN_receivePacket:	
  4889                           ;psect for function _LIN_receivePacket
  4890                           
  4891     0421                     l2200:	
  4892                           ;incstack = 0
  4893                           ; Regs used in _LIN_receivePacket: [wreg+fsr1l+fsr1h+status,2+status,0+pclath+cstack]
  4894                           
  4895                           
  4896                           ;mcc_generated_files/LINDrivers/lin_master.c: 171:     static uint8_t rxIndex = 0;;mcc_g
      +                          enerated_files/LINDrivers/lin_master.c: 173:     if(rxIndex < LIN_rxPacket.rxLength){
  4897     0421  0021               	movlb	1	; select bank1
  4898     0422  0839               	movf	(_LIN_rxPacket^(0+128)+1),w
  4899     0423  0020               	movlb	0	; select bank0
  4900     0424  0239               	subwf	LIN_receivePacket@rxIndex,w
  4901     0425  1803               	skipnc
  4902     0426  2C28               	goto	u1621
  4903     0427  2C29               	goto	u1620
  4904     0428                     u1621:
  4905     0428  2C3A               	goto	l2208
  4906     0429                     u1620:
  4907     0429                     l2202:
  4908                           
  4909                           ;mcc_generated_files/LINDrivers/lin_master.c: 175:         LIN_rxPacket.data[rxIndex++] 
      +                          = EUSART_Read();
  4910     0429  3184  24E5  3184   	fcall	_EUSART_Read
  4911     042C  0020               	movlb	0	; select bank0
  4912     042D  00DB               	movwf	??_LIN_receivePacket
  4913     042E  0839               	movf	LIN_receivePacket@rxIndex,w
  4914     042F  3EBA               	addlw	(low ((_LIN_rxPacket| 0+2)))& (0+255)
  4915     0430  0086               	movwf	6
  4916     0431  0187               	clrf	7
  4917     0432  085B               	movf	??_LIN_receivePacket,w
  4918     0433  0081               	movwf	1
  4919     0434                     l2204:
  4920     0434  3001               	movlw	1
  4921     0435  00DB               	movwf	??_LIN_receivePacket
  4922     0436  085B               	movf	??_LIN_receivePacket,w
  4923     0437  07B9               	addwf	LIN_receivePacket@rxIndex,f
  4924     0438                     l2206:
  4925                           
  4926                           ;mcc_generated_files/LINDrivers/lin_master.c: 176:         __nop();
  4927     0438  0000               	nop
  4928                           
  4929                           ;mcc_generated_files/LINDrivers/lin_master.c: 177:     } else {
  4930     0439  2C53               	goto	l2216
  4931     043A                     l2208:
  4932                           
  4933                           ;mcc_generated_files/LINDrivers/lin_master.c: 178:         rxIndex = 0;
  4934     043A  01B9               	clrf	LIN_receivePacket@rxIndex
  4935     043B                     l2210:
  4936                           
  4937                           ;mcc_generated_files/LINDrivers/lin_master.c: 180:         if(EUSART_Read() == LIN_getCh
      +                          ecksum(LIN_rxPacket.rxLength, LIN_packet.PID, LIN_rxPacket.data))
  4938     043B  0021               	movlb	1	; select bank1
  4939     043C  0844               	movf	_LIN_packet^(0+128),w
  4940     043D  0020               	movlb	0	; select bank0
  4941     043E  00D3               	movwf	LIN_getChecksum@pid
  4942     043F  30BA               	movlw	(low ((_LIN_rxPacket| 0+2)))& (0+255)
  4943     0440  00D4               	movwf	LIN_getChecksum@data
  4944     0441  0021               	movlb	1	; select bank1
  4945     0442  0839               	movf	(_LIN_rxPacket^(0+128)+1),w
  4946     0443  3184  2455  3184   	fcall	_LIN_getChecksum
  4947     0446  0020               	movlb	0	; select bank0
  4948     0447  00DB               	movwf	??_LIN_receivePacket
  4949     0448  3184  24E5  3184   	fcall	_EUSART_Read
  4950     044B  0020               	movlb	0	; select bank0
  4951     044C  065B               	xorwf	??_LIN_receivePacket,w
  4952     044D  1D03               	skipz
  4953     044E  2C50               	goto	u1631
  4954     044F  2C51               	goto	u1630
  4955     0450                     u1631:
  4956     0450  2C53               	goto	l2216
  4957     0451                     u1630:
  4958     0451                     l2212:
  4959                           
  4960                           ;mcc_generated_files/LINDrivers/lin_master.c: 181:             return 1;
  4961     0451  3001               	movlw	1
  4962     0452  2C54               	goto	l113
  4963     0453                     l2216:
  4964                           
  4965                           ;mcc_generated_files/LINDrivers/lin_master.c: 185:     return 0;
  4966     0453  3000               	movlw	0
  4967     0454                     l113:
  4968     0454  0008               	return
  4969     0455                     __end_of_LIN_receivePacket:
  4970                           
  4971                           	psect	text29
  4972     0455                     __ptext29:	
  4973 ;; *************** function _LIN_getChecksum *****************
  4974 ;; Defined at:
  4975 ;;		line 236 in file "mcc_generated_files/LINDrivers/lin_master.c"
  4976 ;; Parameters:    Size  Location     Type
  4977 ;;  length          1    wreg     unsigned char 
  4978 ;;  pid             1    9[BANK0 ] unsigned char 
  4979 ;;  data            1   10[BANK0 ] PTR unsigned char 
  4980 ;;		 -> LIN_rxPacket(12), LIN_packet(11), 
  4981 ;; Auto vars:     Size  Location     Type
  4982 ;;  length          1   13[BANK0 ] unsigned char 
  4983 ;;  i               1   14[BANK0 ] unsigned char 
  4984 ;;  checksum        2   15[BANK0 ] unsigned short 
  4985 ;; Return value:  Size  Location     Type
  4986 ;;                  1    wreg      unsigned char 
  4987 ;; Registers used:
  4988 ;;		wreg, fsr1l, fsr1h, status,2, status,0
  4989 ;; Tracked objects:
  4990 ;;		On entry : 0/0
  4991 ;;		On exit  : 0/0
  4992 ;;		Unchanged: 0/0
  4993 ;; Data sizes:     COMMON   BANK0   BANK1   BANK2   BANK3   BANK4   BANK5   BANK6
  4994 ;;      Params:         0       2       0       0       0       0       0       0
  4995 ;;      Locals:         0       4       0       0       0       0       0       0
  4996 ;;      Temps:          0       2       0       0       0       0       0       0
  4997 ;;      Totals:         0       8       0       0       0       0       0       0
  4998 ;;Total ram usage:        8 bytes
  4999 ;; Hardware stack levels used: 1
  5000 ;; Hardware stack levels required when called: 6
  5001 ;; This function calls:
  5002 ;;		Nothing
  5003 ;; This function is called by:
  5004 ;;		_LIN_receivePacket
  5005 ;; This function uses a non-reentrant model
  5006 ;;
  5007                           
  5008     0455                     _LIN_getChecksum:	
  5009                           ;psect for function _LIN_getChecksum
  5010                           
  5011                           
  5012                           ;incstack = 0
  5013                           ; Regs used in _LIN_getChecksum: [wreg+fsr1l+fsr1h+status,2+status,0]
  5014                           ;LIN_getChecksum@length stored from wreg
  5015     0455  0020               	movlb	0	; select bank0
  5016     0456  00D7               	movwf	LIN_getChecksum@length
  5017     0457                     l2050:
  5018                           
  5019                           ;mcc_generated_files/LINDrivers/lin_master.c: 237:     uint16_t checksum = pid;
  5020     0457  0853               	movf	LIN_getChecksum@pid,w
  5021     0458  00D5               	movwf	??_LIN_getChecksum
  5022     0459  01D6               	clrf	??_LIN_getChecksum+1
  5023     045A  0855               	movf	??_LIN_getChecksum,w
  5024     045B  00D9               	movwf	LIN_getChecksum@checksum
  5025     045C  0856               	movf	??_LIN_getChecksum+1,w
  5026     045D  00DA               	movwf	LIN_getChecksum@checksum+1
  5027     045E                     l2052:
  5028                           
  5029                           ;mcc_generated_files/LINDrivers/lin_master.c: 239:     for (uint8_t i = 0; i < length; i
      +                          ++){
  5030     045E  01D8               	clrf	LIN_getChecksum@i
  5031     045F  2C7F               	goto	l2064
  5032     0460                     l2054:
  5033                           
  5034                           ;mcc_generated_files/LINDrivers/lin_master.c: 240:         checksum = checksum + *data++
      +                          ;
  5035     0460  0854               	movf	LIN_getChecksum@data,w
  5036     0461  0086               	movwf	6
  5037     0462  0187               	clrf	7
  5038     0463  0801               	movf	1,w
  5039     0464  0759               	addwf	LIN_getChecksum@checksum,w
  5040     0465  00D9               	movwf	LIN_getChecksum@checksum
  5041     0466  085A               	movf	LIN_getChecksum@checksum+1,w
  5042     0467  1803               	skipnc
  5043     0468  0A5A               	incf	LIN_getChecksum@checksum+1,w
  5044     0469  00DA               	movwf	LIN_getChecksum@checksum+1
  5045     046A                     l2056:
  5046     046A  3001               	movlw	1
  5047     046B  00D5               	movwf	??_LIN_getChecksum
  5048     046C  0855               	movf	??_LIN_getChecksum,w
  5049     046D  07D4               	addwf	LIN_getChecksum@data,f
  5050     046E                     l2058:
  5051                           
  5052                           ;mcc_generated_files/LINDrivers/lin_master.c: 241:         if(checksum > 0xFF)
  5053     046E  3001               	movlw	1
  5054     046F  025A               	subwf	LIN_getChecksum@checksum+1,w
  5055     0470  3000               	movlw	0
  5056     0471  1903               	skipnz
  5057     0472  0259               	subwf	LIN_getChecksum@checksum,w
  5058     0473  1C03               	skipc
  5059     0474  2C76               	goto	u1471
  5060     0475  2C77               	goto	u1470
  5061     0476                     u1471:
  5062     0476  2C7B               	goto	l2062
  5063     0477                     u1470:
  5064     0477                     l2060:
  5065                           
  5066                           ;mcc_generated_files/LINDrivers/lin_master.c: 242:             checksum -= 0xFF;
  5067     0477  30FF               	movlw	255
  5068     0478  02D9               	subwf	LIN_getChecksum@checksum,f
  5069     0479  3000               	movlw	0
  5070     047A  3BDA               	subwfb	LIN_getChecksum@checksum+1,f
  5071     047B                     l2062:
  5072                           
  5073                           ;mcc_generated_files/LINDrivers/lin_master.c: 243:     }
  5074     047B  3001               	movlw	1
  5075     047C  00D5               	movwf	??_LIN_getChecksum
  5076     047D  0855               	movf	??_LIN_getChecksum,w
  5077     047E  07D8               	addwf	LIN_getChecksum@i,f
  5078     047F                     l2064:
  5079     047F  0857               	movf	LIN_getChecksum@length,w
  5080     0480  0258               	subwf	LIN_getChecksum@i,w
  5081     0481  1C03               	skipc
  5082     0482  2C84               	goto	u1481
  5083     0483  2C85               	goto	u1480
  5084     0484                     u1481:
  5085     0484  2C60               	goto	l2054
  5086     0485                     u1480:
  5087     0485                     l132:
  5088                           
  5089                           ;mcc_generated_files/LINDrivers/lin_master.c: 244:     checksum = ~checksum;
  5090     0485  09D9               	comf	LIN_getChecksum@checksum,f
  5091     0486  09DA               	comf	LIN_getChecksum@checksum+1,f
  5092     0487                     l2066:
  5093                           
  5094                           ;mcc_generated_files/LINDrivers/lin_master.c: 246:     return (uint8_t)checksum;
  5095     0487  0859               	movf	LIN_getChecksum@checksum,w
  5096     0488                     l133:
  5097     0488  0008               	return
  5098     0489                     __end_of_LIN_getChecksum:
  5099                           
  5100                           	psect	text30
  5101     04E5                     __ptext30:	
  5102 ;; *************** function _EUSART_Read *****************
  5103 ;; Defined at:
  5104 ;;		line 151 in file "mcc_generated_files/eusart.c"
  5105 ;; Parameters:    Size  Location     Type
  5106 ;;		None
  5107 ;; Auto vars:     Size  Location     Type
  5108 ;;  readValue       1   10[BANK0 ] unsigned char 
  5109 ;; Return value:  Size  Location     Type
  5110 ;;                  1    wreg      unsigned char 
  5111 ;; Registers used:
  5112 ;;		wreg, fsr1l, fsr1h, status,2, status,0
  5113 ;; Tracked objects:
  5114 ;;		On entry : 0/0
  5115 ;;		On exit  : 0/0
  5116 ;;		Unchanged: 0/0
  5117 ;; Data sizes:     COMMON   BANK0   BANK1   BANK2   BANK3   BANK4   BANK5   BANK6
  5118 ;;      Params:         0       0       0       0       0       0       0       0
  5119 ;;      Locals:         0       1       0       0       0       0       0       0
  5120 ;;      Temps:          0       1       0       0       0       0       0       0
  5121 ;;      Totals:         0       2       0       0       0       0       0       0
  5122 ;;Total ram usage:        2 bytes
  5123 ;; Hardware stack levels used: 1
  5124 ;; Hardware stack levels required when called: 6
  5125 ;; This function calls:
  5126 ;;		Nothing
  5127 ;; This function is called by:
  5128 ;;		_LIN_receivePacket
  5129 ;; This function uses a non-reentrant model
  5130 ;;
  5131                           
  5132     04E5                     _EUSART_Read:	
  5133                           ;psect for function _EUSART_Read
  5134                           
  5135     04E5                     l2070:	
  5136                           ;incstack = 0
  5137                           ; Regs used in _EUSART_Read: [wreg+fsr1l+fsr1h+status,2+status,0]
  5138                           
  5139     04E5                     l2072:	
  5140                           ;mcc_generated_files/eusart.c: 155:     while(0 == eusartRxCount)
  5141                           
  5142                           
  5143                           ;mcc_generated_files/eusart.c: 155:     while(0 == eusartRxCount)
  5144     04E5  0020               	movlb	0	; select bank0
  5145     04E6  0832               	movf	_eusartRxCount,w	;volatile
  5146     04E7  1903               	btfsc	3,2
  5147     04E8  2CEA               	goto	u1491
  5148     04E9  2CEB               	goto	u1490
  5149     04EA                     u1491:
  5150     04EA  2CE5               	goto	l2072
  5151     04EB                     u1490:
  5152     04EB                     l2074:
  5153                           
  5154                           ;mcc_generated_files/eusart.c: 159:     eusartRxLastError = eusartRxStatusBuffer[eusartR
      +                          xTail];
  5155     04EB  0833               	movf	_eusartRxTail,w	;volatile
  5156     04EC  3EA0               	addlw	(low (_eusartRxStatusBuffer| 0))& (0+255)
  5157     04ED  0086               	movwf	6
  5158     04EE  0187               	clrf	7
  5159     04EF  0801               	movf	1,w
  5160     04F0  00B1               	movwf	_eusartRxLastError	;volatile
  5161                           
  5162                           ;mcc_generated_files/eusart.c: 161:     readValue = eusartRxBuffer[eusartRxTail++];
  5163     04F1  0833               	movf	_eusartRxTail,w
  5164     04F2  3EA8               	addlw	(low (_eusartRxBuffer| 0))& (0+255)
  5165     04F3  0086               	movwf	6
  5166     04F4  0187               	clrf	7
  5167     04F5  0801               	movf	1,w
  5168     04F6  00D4               	movwf	EUSART_Read@readValue
  5169     04F7                     l2076:
  5170     04F7  3001               	movlw	1
  5171     04F8  00D3               	movwf	??_EUSART_Read
  5172     04F9  0853               	movf	??_EUSART_Read,w
  5173     04FA  07B3               	addwf	_eusartRxTail,f	;volatile
  5174     04FB                     l2078:
  5175                           
  5176                           ;mcc_generated_files/eusart.c: 162:     if(sizeof(eusartRxBuffer) <= eusartRxTail)
  5177     04FB  3008               	movlw	8
  5178     04FC  0233               	subwf	_eusartRxTail,w	;volatile
  5179     04FD  1C03               	skipc
  5180     04FE  2D00               	goto	u1501
  5181     04FF  2D01               	goto	u1500
  5182     0500                     u1501:
  5183     0500  2D02               	goto	l2082
  5184     0501                     u1500:
  5185     0501                     l2080:
  5186                           
  5187                           ;mcc_generated_files/eusart.c: 163:     {;mcc_generated_files/eusart.c: 164:         eus
      +                          artRxTail = 0;
  5188     0501  01B3               	clrf	_eusartRxTail	;volatile
  5189     0502                     l2082:
  5190                           
  5191                           ;mcc_generated_files/eusart.c: 166:     PIE1bits.RCIE = 0;
  5192     0502  0021               	movlb	1	; select bank1
  5193     0503  1291               	bcf	17,5	;volatile
  5194     0504                     l2084:
  5195                           
  5196                           ;mcc_generated_files/eusart.c: 167:     eusartRxCount--;
  5197     0504  3001               	movlw	1
  5198     0505  0020               	movlb	0	; select bank0
  5199     0506  02B2               	subwf	_eusartRxCount,f	;volatile
  5200     0507                     l2086:
  5201                           
  5202                           ;mcc_generated_files/eusart.c: 168:     PIE1bits.RCIE = 1;
  5203     0507  0021               	movlb	1	; select bank1
  5204     0508  1691               	bsf	17,5	;volatile
  5205     0509                     l2088:
  5206                           
  5207                           ;mcc_generated_files/eusart.c: 170:     return readValue;
  5208     0509  0020               	movlb	0	; select bank0
  5209     050A  0854               	movf	EUSART_Read@readValue,w
  5210     050B                     l287:
  5211     050B  0008               	return
  5212     050C                     __end_of_EUSART_Read:
  5213                           
  5214                           	psect	text31
  5215     070E                     __ptext31:	
  5216 ;; *************** function _LIN_enableRx *****************
  5217 ;; Defined at:
  5218 ;;		line 292 in file "mcc_generated_files/LINDrivers/lin_master.c"
  5219 ;; Parameters:    Size  Location     Type
  5220 ;;		None
  5221 ;; Auto vars:     Size  Location     Type
  5222 ;;		None
  5223 ;; Return value:  Size  Location     Type
  5224 ;;                  1    wreg      void 
  5225 ;; Registers used:
  5226 ;;		None
  5227 ;; Tracked objects:
  5228 ;;		On entry : 0/0
  5229 ;;		On exit  : 0/0
  5230 ;;		Unchanged: 0/0
  5231 ;; Data sizes:     COMMON   BANK0   BANK1   BANK2   BANK3   BANK4   BANK5   BANK6
  5232 ;;      Params:         0       0       0       0       0       0       0       0
  5233 ;;      Locals:         0       0       0       0       0       0       0       0
  5234 ;;      Temps:          0       0       0       0       0       0       0       0
  5235 ;;      Totals:         0       0       0       0       0       0       0       0
  5236 ;;Total ram usage:        0 bytes
  5237 ;; Hardware stack levels used: 1
  5238 ;; Hardware stack levels required when called: 6
  5239 ;; This function calls:
  5240 ;;		Nothing
  5241 ;; This function is called by:
  5242 ;;		_LIN_handler
  5243 ;; This function uses a non-reentrant model
  5244 ;;
  5245                           
  5246     070E                     _LIN_enableRx:	
  5247                           ;psect for function _LIN_enableRx
  5248                           
  5249     070E                     l2194:	
  5250                           ;incstack = 0
  5251                           ; Regs used in _LIN_enableRx: []
  5252                           
  5253                           
  5254                           ;mcc_generated_files/LINDrivers/lin_master.c: 293:     RCSTAbits.CREN = 1;
  5255     070E  0023               	movlb	3	; select bank3
  5256     070F  161D               	bsf	29,4	;volatile
  5257                           
  5258                           ;mcc_generated_files/LINDrivers/lin_master.c: 294:     PIE1bits.RCIE = 1;
  5259     0710  0021               	movlb	1	; select bank1
  5260     0711  1691               	bsf	17,5	;volatile
  5261     0712                     l158:
  5262     0712  0008               	return
  5263     0713                     __end_of_LIN_enableRx:
  5264                           
  5265                           	psect	text32
  5266     0713                     __ptext32:	
  5267 ;; *************** function _LIN_disableRx *****************
  5268 ;; Defined at:
  5269 ;;		line 297 in file "mcc_generated_files/LINDrivers/lin_master.c"
  5270 ;; Parameters:    Size  Location     Type
  5271 ;;		None
  5272 ;; Auto vars:     Size  Location     Type
  5273 ;;		None
  5274 ;; Return value:  Size  Location     Type
  5275 ;;                  1    wreg      void 
  5276 ;; Registers used:
  5277 ;;		None
  5278 ;; Tracked objects:
  5279 ;;		On entry : 0/0
  5280 ;;		On exit  : 0/0
  5281 ;;		Unchanged: 0/0
  5282 ;; Data sizes:     COMMON   BANK0   BANK1   BANK2   BANK3   BANK4   BANK5   BANK6
  5283 ;;      Params:         0       0       0       0       0       0       0       0
  5284 ;;      Locals:         0       0       0       0       0       0       0       0
  5285 ;;      Temps:          0       0       0       0       0       0       0       0
  5286 ;;      Totals:         0       0       0       0       0       0       0       0
  5287 ;;Total ram usage:        0 bytes
  5288 ;; Hardware stack levels used: 1
  5289 ;; Hardware stack levels required when called: 6
  5290 ;; This function calls:
  5291 ;;		Nothing
  5292 ;; This function is called by:
  5293 ;;		_LIN_handler
  5294 ;; This function uses a non-reentrant model
  5295 ;;
  5296                           
  5297     0713                     _LIN_disableRx:	
  5298                           ;psect for function _LIN_disableRx
  5299                           
  5300     0713                     l2164:	
  5301                           ;incstack = 0
  5302                           ; Regs used in _LIN_disableRx: []
  5303                           
  5304                           
  5305                           ;mcc_generated_files/LINDrivers/lin_master.c: 298:     RCSTAbits.CREN = 0;
  5306     0713  0023               	movlb	3	; select bank3
  5307     0714  121D               	bcf	29,4	;volatile
  5308                           
  5309                           ;mcc_generated_files/LINDrivers/lin_master.c: 299:     PIE1bits.RCIE = 0;
  5310     0715  0021               	movlb	1	; select bank1
  5311     0716  1291               	bcf	17,5	;volatile
  5312     0717                     l161:
  5313     0717  0008               	return
  5314     0718                     __end_of_LIN_disableRx:
  5315                           
  5316                           	psect	text33
  5317     06D0                     __ptext33:	
  5318 ;; *************** function _EUSART_is_rx_ready *****************
  5319 ;; Defined at:
  5320 ;;		line 137 in file "mcc_generated_files/eusart.c"
  5321 ;; Parameters:    Size  Location     Type
  5322 ;;		None
  5323 ;; Auto vars:     Size  Location     Type
  5324 ;;		None
  5325 ;; Return value:  Size  Location     Type
  5326 ;;                  1    wreg      _Bool 
  5327 ;; Registers used:
  5328 ;;		wreg, status,2, status,0
  5329 ;; Tracked objects:
  5330 ;;		On entry : 0/0
  5331 ;;		On exit  : 0/0
  5332 ;;		Unchanged: 0/0
  5333 ;; Data sizes:     COMMON   BANK0   BANK1   BANK2   BANK3   BANK4   BANK5   BANK6
  5334 ;;      Params:         0       0       0       0       0       0       0       0
  5335 ;;      Locals:         0       0       0       0       0       0       0       0
  5336 ;;      Temps:          0       0       0       0       0       0       0       0
  5337 ;;      Totals:         0       0       0       0       0       0       0       0
  5338 ;;Total ram usage:        0 bytes
  5339 ;; Hardware stack levels used: 1
  5340 ;; Hardware stack levels required when called: 6
  5341 ;; This function calls:
  5342 ;;		Nothing
  5343 ;; This function is called by:
  5344 ;;		_LIN_handler
  5345 ;; This function uses a non-reentrant model
  5346 ;;
  5347                           
  5348     06D0                     _EUSART_is_rx_ready:	
  5349                           ;psect for function _EUSART_is_rx_ready
  5350                           
  5351     06D0                     l2196:	
  5352                           ;incstack = 0
  5353                           ; Regs used in _EUSART_is_rx_ready: [wreg+status,2+status,0]
  5354                           
  5355                           
  5356                           ;mcc_generated_files/eusart.c: 139:     return (eusartRxCount ? 1 : 0);
  5357     06D0  0020               	movlb	0	; select bank0
  5358     06D1  0832               	movf	_eusartRxCount,w	;volatile
  5359     06D2  1D03               	btfss	3,2
  5360     06D3  2ED5               	goto	u1601
  5361     06D4  2ED7               	goto	u1600
  5362     06D5                     u1601:
  5363     06D5  3001               	movlw	1
  5364     06D6  2ED8               	goto	u1610
  5365     06D7                     u1600:
  5366     06D7  3000               	movlw	0
  5367     06D8                     u1610:
  5368     06D8                     l274:
  5369     06D8  0008               	return
  5370     06D9                     __end_of_EUSART_is_rx_ready:
  5371                           
  5372                           	psect	text34
  5373     073E                     __ptext34:	
  5374 ;; *************** function _Clear_No_Call_Warning *****************
  5375 ;; Defined at:
  5376 ;;		line 189 in file "main.c"
  5377 ;; Parameters:    Size  Location     Type
  5378 ;;		None
  5379 ;; Auto vars:     Size  Location     Type
  5380 ;;  i               1    0        unsigned char 
  5381 ;; Return value:  Size  Location     Type
  5382 ;;                  1    wreg      void 
  5383 ;; Registers used:
  5384 ;;		status,2
  5385 ;; Tracked objects:
  5386 ;;		On entry : 0/0
  5387 ;;		On exit  : 0/0
  5388 ;;		Unchanged: 0/0
  5389 ;; Data sizes:     COMMON   BANK0   BANK1   BANK2   BANK3   BANK4   BANK5   BANK6
  5390 ;;      Params:         0       0       0       0       0       0       0       0
  5391 ;;      Locals:         0       0       0       0       0       0       0       0
  5392 ;;      Temps:          0       0       0       0       0       0       0       0
  5393 ;;      Totals:         0       0       0       0       0       0       0       0
  5394 ;;Total ram usage:        0 bytes
  5395 ;; Hardware stack levels used: 1
  5396 ;; Hardware stack levels required when called: 7
  5397 ;; This function calls:
  5398 ;;		_EUSART_get_last_status
  5399 ;;		_EUSART_is_tx_done
  5400 ;;		_EUSART_is_tx_ready
  5401 ;;		_PIN_MANAGER_IOC
  5402 ;;		_TMR0_ReadTimer
  5403 ;;		_TMR0_Reload
  5404 ;; This function is called by:
  5405 ;;		_main
  5406 ;; This function uses a non-reentrant model
  5407 ;;
  5408                           
  5409     073E                     _Clear_No_Call_Warning:	
  5410                           ;psect for function _Clear_No_Call_Warning
  5411                           
  5412     073E                     l2420:	
  5413                           ;incstack = 0
  5414                           ; Regs used in _Clear_No_Call_Warning: [status,2]
  5415                           
  5416     073E                     l516:
  5417     073E  0008               	return
  5418     073F                     __end_of_Clear_No_Call_Warning:
  5419                           
  5420                           	psect	text35
  5421     0724                     __ptext35:	
  5422 ;; *************** function _TMR0_Reload *****************
  5423 ;; Defined at:
  5424 ;;		line 102 in file "mcc_generated_files/tmr0.c"
  5425 ;; Parameters:    Size  Location     Type
  5426 ;;		None
  5427 ;; Auto vars:     Size  Location     Type
  5428 ;;		None
  5429 ;; Return value:  Size  Location     Type
  5430 ;;                  1    wreg      void 
  5431 ;; Registers used:
  5432 ;;		wreg
  5433 ;; Tracked objects:
  5434 ;;		On entry : 0/0
  5435 ;;		On exit  : 0/0
  5436 ;;		Unchanged: 0/0
  5437 ;; Data sizes:     COMMON   BANK0   BANK1   BANK2   BANK3   BANK4   BANK5   BANK6
  5438 ;;      Params:         0       0       0       0       0       0       0       0
  5439 ;;      Locals:         0       0       0       0       0       0       0       0
  5440 ;;      Temps:          0       0       0       0       0       0       0       0
  5441 ;;      Totals:         0       0       0       0       0       0       0       0
  5442 ;;Total ram usage:        0 bytes
  5443 ;; Hardware stack levels used: 1
  5444 ;; Hardware stack levels required when called: 6
  5445 ;; This function calls:
  5446 ;;		Nothing
  5447 ;; This function is called by:
  5448 ;;		_Clear_No_Call_Warning
  5449 ;; This function uses a non-reentrant model
  5450 ;;
  5451                           
  5452     0724                     _TMR0_Reload:	
  5453                           ;psect for function _TMR0_Reload
  5454                           
  5455     0724                     l2328:	
  5456                           ;incstack = 0
  5457                           ; Regs used in _TMR0_Reload: [wreg]
  5458                           
  5459                           
  5460                           ;mcc_generated_files/tmr0.c: 105:     TMR0 = timer0ReloadVal;
  5461     0724  0020               	movlb	0	; select bank0
  5462     0725  0830               	movf	_timer0ReloadVal,w	;volatile
  5463     0726  0095               	movwf	21	;volatile
  5464     0727                     l464:
  5465     0727  0008               	return
  5466     0728                     __end_of_TMR0_Reload:
  5467                           
  5468                           	psect	text36
  5469     0737                     __ptext36:	
  5470 ;; *************** function _TMR0_ReadTimer *****************
  5471 ;; Defined at:
  5472 ;;		line 87 in file "mcc_generated_files/tmr0.c"
  5473 ;; Parameters:    Size  Location     Type
  5474 ;;		None
  5475 ;; Auto vars:     Size  Location     Type
  5476 ;;  readVal         1    0        unsigned char 
  5477 ;; Return value:  Size  Location     Type
  5478 ;;                  1    wreg      unsigned char 
  5479 ;; Registers used:
  5480 ;;		wreg
  5481 ;; Tracked objects:
  5482 ;;		On entry : 0/0
  5483 ;;		On exit  : 0/0
  5484 ;;		Unchanged: 0/0
  5485 ;; Data sizes:     COMMON   BANK0   BANK1   BANK2   BANK3   BANK4   BANK5   BANK6
  5486 ;;      Params:         0       0       0       0       0       0       0       0
  5487 ;;      Locals:         0       0       0       0       0       0       0       0
  5488 ;;      Temps:          0       0       0       0       0       0       0       0
  5489 ;;      Totals:         0       0       0       0       0       0       0       0
  5490 ;;Total ram usage:        0 bytes
  5491 ;; Hardware stack levels used: 1
  5492 ;; Hardware stack levels required when called: 6
  5493 ;; This function calls:
  5494 ;;		Nothing
  5495 ;; This function is called by:
  5496 ;;		_Clear_No_Call_Warning
  5497 ;; This function uses a non-reentrant model
  5498 ;;
  5499                           
  5500     0737                     _TMR0_ReadTimer:	
  5501                           ;psect for function _TMR0_ReadTimer
  5502                           
  5503     0737                     l2324:	
  5504                           ;incstack = 0
  5505                           ; Regs used in _TMR0_ReadTimer: [wreg]
  5506                           
  5507     0737  0020               	movlb	0	; select bank0
  5508     0738  0815               	movf	21,w	;volatile
  5509     0739                     l458:
  5510     0739  0008               	return
  5511     073A                     __end_of_TMR0_ReadTimer:
  5512                           
  5513                           	psect	text37
  5514     073F                     __ptext37:	
  5515 ;; *************** function _PIN_MANAGER_IOC *****************
  5516 ;; Defined at:
  5517 ;;		line 99 in file "mcc_generated_files/pin_manager.c"
  5518 ;; Parameters:    Size  Location     Type
  5519 ;;		None
  5520 ;; Auto vars:     Size  Location     Type
  5521 ;;		None
  5522 ;; Return value:  Size  Location     Type
  5523 ;;                  1    wreg      void 
  5524 ;; Registers used:
  5525 ;;		None
  5526 ;; Tracked objects:
  5527 ;;		On entry : 0/0
  5528 ;;		On exit  : 0/0
  5529 ;;		Unchanged: 0/0
  5530 ;; Data sizes:     COMMON   BANK0   BANK1   BANK2   BANK3   BANK4   BANK5   BANK6
  5531 ;;      Params:         0       0       0       0       0       0       0       0
  5532 ;;      Locals:         0       0       0       0       0       0       0       0
  5533 ;;      Temps:          0       0       0       0       0       0       0       0
  5534 ;;      Totals:         0       0       0       0       0       0       0       0
  5535 ;;Total ram usage:        0 bytes
  5536 ;; Hardware stack levels used: 1
  5537 ;; Hardware stack levels required when called: 6
  5538 ;; This function calls:
  5539 ;;		Nothing
  5540 ;; This function is called by:
  5541 ;;		_Clear_No_Call_Warning
  5542 ;; This function uses a non-reentrant model
  5543 ;;
  5544                           
  5545     073F                     _PIN_MANAGER_IOC:	
  5546                           ;psect for function _PIN_MANAGER_IOC
  5547                           
  5548     073F                     l371:	
  5549                           ;incstack = 0
  5550                           ; Regs used in _PIN_MANAGER_IOC: []
  5551                           
  5552     073F  0008               	return
  5553     0740                     __end_of_PIN_MANAGER_IOC:
  5554                           
  5555                           	psect	text38
  5556     0740                     __ptext38:	
  5557 ;; *************** function _EUSART_is_tx_ready *****************
  5558 ;; Defined at:
  5559 ;;		line 132 in file "mcc_generated_files/eusart.c"
  5560 ;; Parameters:    Size  Location     Type
  5561 ;;		None
  5562 ;; Auto vars:     Size  Location     Type
  5563 ;;		None
  5564 ;; Return value:  Size  Location     Type
  5565 ;;                  1    wreg      _Bool 
  5566 ;; Registers used:
  5567 ;;		None
  5568 ;; Tracked objects:
  5569 ;;		On entry : 0/0
  5570 ;;		On exit  : 0/0
  5571 ;;		Unchanged: 0/0
  5572 ;; Data sizes:     COMMON   BANK0   BANK1   BANK2   BANK3   BANK4   BANK5   BANK6
  5573 ;;      Params:         0       0       0       0       0       0       0       0
  5574 ;;      Locals:         0       0       0       0       0       0       0       0
  5575 ;;      Temps:          0       0       0       0       0       0       0       0
  5576 ;;      Totals:         0       0       0       0       0       0       0       0
  5577 ;;Total ram usage:        0 bytes
  5578 ;; Hardware stack levels used: 1
  5579 ;; Hardware stack levels required when called: 6
  5580 ;; This function calls:
  5581 ;;		Nothing
  5582 ;; This function is called by:
  5583 ;;		_Clear_No_Call_Warning
  5584 ;; This function uses a non-reentrant model
  5585 ;;
  5586                           
  5587     0740                     _EUSART_is_tx_ready:	
  5588                           ;psect for function _EUSART_is_tx_ready
  5589                           
  5590     0740                     l2272:	
  5591                           ;incstack = 0
  5592                           ; Regs used in _EUSART_is_tx_ready: []
  5593                           
  5594     0740                     l271:	
  5595                           ;mcc_generated_files/eusart.c: 134:     return (eusartTxBufferRemaining ? 1 : 0);;	Retur
      +                          n value of _EUSART_is_tx_ready is never used
  5596                           
  5597     0740  0008               	return
  5598     0741                     __end_of_EUSART_is_tx_ready:
  5599                           
  5600                           	psect	text39
  5601     073A                     __ptext39:	
  5602 ;; *************** function _EUSART_is_tx_done *****************
  5603 ;; Defined at:
  5604 ;;		line 142 in file "mcc_generated_files/eusart.c"
  5605 ;; Parameters:    Size  Location     Type
  5606 ;;		None
  5607 ;; Auto vars:     Size  Location     Type
  5608 ;;		None
  5609 ;; Return value:  Size  Location     Type
  5610 ;;                  1    wreg      _Bool 
  5611 ;; Registers used:
  5612 ;;		wreg
  5613 ;; Tracked objects:
  5614 ;;		On entry : 0/0
  5615 ;;		On exit  : 0/0
  5616 ;;		Unchanged: 0/0
  5617 ;; Data sizes:     COMMON   BANK0   BANK1   BANK2   BANK3   BANK4   BANK5   BANK6
  5618 ;;      Params:         0       0       0       0       0       0       0       0
  5619 ;;      Locals:         0       0       0       0       0       0       0       0
  5620 ;;      Temps:          0       0       0       0       0       0       0       0
  5621 ;;      Totals:         0       0       0       0       0       0       0       0
  5622 ;;Total ram usage:        0 bytes
  5623 ;; Hardware stack levels used: 1
  5624 ;; Hardware stack levels required when called: 6
  5625 ;; This function calls:
  5626 ;;		Nothing
  5627 ;; This function is called by:
  5628 ;;		_Clear_No_Call_Warning
  5629 ;; This function uses a non-reentrant model
  5630 ;;
  5631                           
  5632     073A                     _EUSART_is_tx_done:	
  5633                           ;psect for function _EUSART_is_tx_done
  5634                           
  5635     073A                     l2274:	
  5636                           ;incstack = 0
  5637                           ; Regs used in _EUSART_is_tx_done: [wreg]
  5638                           
  5639                           
  5640                           ;mcc_generated_files/eusart.c: 144:     return TXSTAbits.TRMT;;	Return value of _EUSART_
      +                          is_tx_done is never used
  5641     073A  0023               	movlb	3	; select bank3
  5642     073B  081E               	movf	30,w	;volatile
  5643     073C                     l277:
  5644     073C  0008               	return
  5645     073D                     __end_of_EUSART_is_tx_done:
  5646                           
  5647                           	psect	text40
  5648     0741                     __ptext40:	
  5649 ;; *************** function _EUSART_get_last_status *****************
  5650 ;; Defined at:
  5651 ;;		line 147 in file "mcc_generated_files/eusart.c"
  5652 ;; Parameters:    Size  Location     Type
  5653 ;;		None
  5654 ;; Auto vars:     Size  Location     Type
  5655 ;;		None
  5656 ;; Return value:  Size  Location     Type
  5657 ;;                  1    wreg      struct .
  5658 ;; Registers used:
  5659 ;;		None
  5660 ;; Tracked objects:
  5661 ;;		On entry : 0/0
  5662 ;;		On exit  : 0/0
  5663 ;;		Unchanged: 0/0
  5664 ;; Data sizes:     COMMON   BANK0   BANK1   BANK2   BANK3   BANK4   BANK5   BANK6
  5665 ;;      Params:         0       0       0       0       0       0       0       0
  5666 ;;      Locals:         0       0       0       0       0       0       0       0
  5667 ;;      Temps:          0       0       0       0       0       0       0       0
  5668 ;;      Totals:         0       0       0       0       0       0       0       0
  5669 ;;Total ram usage:        0 bytes
  5670 ;; Hardware stack levels used: 1
  5671 ;; Hardware stack levels required when called: 6
  5672 ;; This function calls:
  5673 ;;		Nothing
  5674 ;; This function is called by:
  5675 ;;		_Clear_No_Call_Warning
  5676 ;; This function uses a non-reentrant model
  5677 ;;
  5678                           
  5679     0741                     _EUSART_get_last_status:	
  5680                           ;psect for function _EUSART_get_last_status
  5681                           
  5682     0741                     l2278:	
  5683                           ;incstack = 0
  5684                           ; Regs used in _EUSART_get_last_status: []
  5685                           
  5686     0741                     l280:	
  5687                           ;mcc_generated_files/eusart.c: 148:     return eusartRxLastError;;	Return value of _EUSA
      +                          RT_get_last_status is never used
  5688                           
  5689     0741  0008               	return
  5690     0742                     __end_of_EUSART_get_last_status:
  5691                           
  5692                           	psect	intentry
  5693     0004                     __pintentry:	
  5694 ;; *************** function _INTERRUPT_InterruptManager *****************
  5695 ;; Defined at:
  5696 ;;		line 52 in file "mcc_generated_files/interrupt_manager.c"
  5697 ;; Parameters:    Size  Location     Type
  5698 ;;		None
  5699 ;; Auto vars:     Size  Location     Type
  5700 ;;		None
  5701 ;; Return value:  Size  Location     Type
  5702 ;;                  1    wreg      void 
  5703 ;; Registers used:
  5704 ;;		wreg, fsr0l, fsr0h, fsr1l, fsr1h, status,2, status,0, pclath, cstack
  5705 ;; Tracked objects:
  5706 ;;		On entry : 0/0
  5707 ;;		On exit  : 0/0
  5708 ;;		Unchanged: 0/0
  5709 ;; Data sizes:     COMMON   BANK0   BANK1   BANK2   BANK3   BANK4   BANK5   BANK6
  5710 ;;      Params:         0       0       0       0       0       0       0       0
  5711 ;;      Locals:         0       0       0       0       0       0       0       0
  5712 ;;      Temps:          0       0       0       0       0       0       0       0
  5713 ;;      Totals:         0       0       0       0       0       0       0       0
  5714 ;;Total ram usage:        0 bytes
  5715 ;; Hardware stack levels used: 1
  5716 ;; Hardware stack levels required when called: 5
  5717 ;; This function calls:
  5718 ;;		NULL
  5719 ;;		_EUSART_Receive_ISR
  5720 ;;		_EUSART_Transmit_ISR
  5721 ;;		_TMR0_ISR
  5722 ;; This function is called by:
  5723 ;;		Interrupt level 1
  5724 ;; This function uses a non-reentrant model
  5725 ;;
  5726                           
  5727     0004                     _INTERRUPT_InterruptManager:
  5728                           
  5729                           ;incstack = 0
  5730     0004  147E               	bsf	int$flags,0	;set compiler interrupt flag (level 1)
  5731                           
  5732                           ; Regs used in _INTERRUPT_InterruptManager: [wreg-fsr1h+status,2+status,0+pclath+cstack]
  5733     0005  3180               	pagesel	$
  5734     0006                     i1l2450:
  5735                           
  5736                           ;mcc_generated_files/interrupt_manager.c: 55:     if(INTCONbits.TMR0IE == 1 && INTCONbit
      +                          s.TMR0IF == 1)
  5737     0006  1E8B               	btfss	11,5	;volatile
  5738     0007  2809               	goto	u182_21
  5739     0008  280A               	goto	u182_20
  5740     0009                     u182_21:
  5741     0009  2812               	goto	i1l392
  5742     000A                     u182_20:
  5743     000A                     i1l2452:
  5744     000A  1D0B               	btfss	11,2	;volatile
  5745     000B  280D               	goto	u183_21
  5746     000C  280E               	goto	u183_20
  5747     000D                     u183_21:
  5748     000D  2812               	goto	i1l392
  5749     000E                     u183_20:
  5750     000E                     i1l2454:
  5751                           
  5752                           ;mcc_generated_files/interrupt_manager.c: 56:     {;mcc_generated_files/interrupt_manage
      +                          r.c: 57:         TMR0_ISR();
  5753     000E  3186  2684  3180   	fcall	_TMR0_ISR
  5754                           
  5755                           ;mcc_generated_files/interrupt_manager.c: 58:     }
  5756     0011  2836               	goto	i1l400
  5757     0012                     i1l392:	
  5758                           ;mcc_generated_files/interrupt_manager.c: 59:     else if(INTCONbits.PEIE == 1)
  5759                           
  5760     0012  1F0B               	btfss	11,6	;volatile
  5761     0013  2815               	goto	u184_21
  5762     0014  2816               	goto	u184_20
  5763     0015                     u184_21:
  5764     0015  2836               	goto	i1l400
  5765     0016                     u184_20:
  5766     0016                     i1l2456:
  5767                           
  5768                           ;mcc_generated_files/interrupt_manager.c: 60:     {;mcc_generated_files/interrupt_manage
      +                          r.c: 61:         if(PIE1bits.TXIE == 1 && PIR1bits.TXIF == 1)
  5769     0016  0021               	movlb	1	; select bank1
  5770     0017  1E11               	btfss	17,4	;volatile
  5771     0018  281A               	goto	u185_21
  5772     0019  281B               	goto	u185_20
  5773     001A                     u185_21:
  5774     001A  2826               	goto	i1l395
  5775     001B                     u185_20:
  5776     001B                     i1l2458:
  5777     001B  0020               	movlb	0	; select bank0
  5778     001C  1E11               	btfss	17,4	;volatile
  5779     001D  281F               	goto	u186_21
  5780     001E  2820               	goto	u186_20
  5781     001F                     u186_21:
  5782     001F  2826               	goto	i1l395
  5783     0020                     u186_20:
  5784     0020                     i1l2460:
  5785                           
  5786                           ;mcc_generated_files/interrupt_manager.c: 62:         {;mcc_generated_files/interrupt_ma
      +                          nager.c: 63:             EUSART_TxDefaultInterruptHandler();
  5787     0020  082B               	movf	_EUSART_TxDefaultInterruptHandler+1,w
  5788     0021  008A               	movwf	10
  5789     0022  082A               	movf	_EUSART_TxDefaultInterruptHandler,w
  5790     0023  000A               	callw
  5791     0024  3180               	pagesel	$
  5792                           
  5793                           ;mcc_generated_files/interrupt_manager.c: 64:         }
  5794     0025  2836               	goto	i1l400
  5795     0026                     i1l395:	
  5796                           ;mcc_generated_files/interrupt_manager.c: 65:         else if(PIE1bits.RCIE == 1 && PIR1
      +                          bits.RCIF == 1)
  5797                           
  5798     0026  0021               	movlb	1	; select bank1
  5799     0027  1E91               	btfss	17,5	;volatile
  5800     0028  282A               	goto	u187_21
  5801     0029  282B               	goto	u187_20
  5802     002A                     u187_21:
  5803     002A  2836               	goto	i1l399
  5804     002B                     u187_20:
  5805     002B                     i1l2462:
  5806     002B  0020               	movlb	0	; select bank0
  5807     002C  1E91               	btfss	17,5	;volatile
  5808     002D  282F               	goto	u188_21
  5809     002E  2830               	goto	u188_20
  5810     002F                     u188_21:
  5811     002F  2836               	goto	i1l399
  5812     0030                     u188_20:
  5813     0030                     i1l2464:
  5814                           
  5815                           ;mcc_generated_files/interrupt_manager.c: 66:         {;mcc_generated_files/interrupt_ma
      +                          nager.c: 67:             EUSART_RxDefaultInterruptHandler();
  5816     0030  0829               	movf	_EUSART_RxDefaultInterruptHandler+1,w
  5817     0031  008A               	movwf	10
  5818     0032  0828               	movf	_EUSART_RxDefaultInterruptHandler,w
  5819     0033  000A               	callw
  5820     0034  3180               	pagesel	$
  5821                           
  5822                           ;mcc_generated_files/interrupt_manager.c: 68:         }
  5823     0035  2836               	goto	i1l400
  5824     0036                     i1l399:	
  5825                           ;mcc_generated_files/interrupt_manager.c: 75:     {;mcc_generated_files/interrupt_manage
      +                          r.c: 77:     }
  5826                           
  5827     0036                     i1l400:
  5828     0036  107E               	bcf	int$flags,0	;clear compiler interrupt flag (level 1)
  5829     0037  0009               	retfie
  5830     0038                     __end_of_INTERRUPT_InterruptManager:
  5831                           
  5832                           	psect	text42
  5833     0684                     __ptext42:	
  5834 ;; *************** function _TMR0_ISR *****************
  5835 ;; Defined at:
  5836 ;;		line 108 in file "mcc_generated_files/tmr0.c"
  5837 ;; Parameters:    Size  Location     Type
  5838 ;;		None
  5839 ;; Auto vars:     Size  Location     Type
  5840 ;;		None
  5841 ;; Return value:  Size  Location     Type
  5842 ;;                  1    wreg      void 
  5843 ;; Registers used:
  5844 ;;		wreg, fsr0l, fsr0h, fsr1l, fsr1h, status,2, status,0, pclath, cstack
  5845 ;; Tracked objects:
  5846 ;;		On entry : 0/0
  5847 ;;		On exit  : 0/0
  5848 ;;		Unchanged: 0/0
  5849 ;; Data sizes:     COMMON   BANK0   BANK1   BANK2   BANK3   BANK4   BANK5   BANK6
  5850 ;;      Params:         0       0       0       0       0       0       0       0
  5851 ;;      Locals:         0       0       0       0       0       0       0       0
  5852 ;;      Temps:          0       0       0       0       0       0       0       0
  5853 ;;      Totals:         0       0       0       0       0       0       0       0
  5854 ;;Total ram usage:        0 bytes
  5855 ;; Hardware stack levels used: 1
  5856 ;; Hardware stack levels required when called: 4
  5857 ;; This function calls:
  5858 ;;		NULL
  5859 ;;		_LIN_timerHandler
  5860 ;;		_TMR0_DefaultInterruptHandler
  5861 ;; This function is called by:
  5862 ;;		_INTERRUPT_InterruptManager
  5863 ;; This function uses a non-reentrant model
  5864 ;;
  5865                           
  5866     0684                     _TMR0_ISR:	
  5867                           ;psect for function _TMR0_ISR
  5868                           
  5869     0684                     i1l2410:	
  5870                           ;incstack = 0
  5871                           ; Regs used in _TMR0_ISR: [wreg-fsr1h+status,2+status,0+pclath+cstack]
  5872                           
  5873                           
  5874                           ;mcc_generated_files/tmr0.c: 112:     INTCONbits.TMR0IF = 0;
  5875     0684  110B               	bcf	11,2	;volatile
  5876     0685                     i1l2412:
  5877                           
  5878                           ;mcc_generated_files/tmr0.c: 114:     TMR0 = timer0ReloadVal;
  5879     0685  0020               	movlb	0	; select bank0
  5880     0686  0830               	movf	_timer0ReloadVal,w	;volatile
  5881     0687  0095               	movwf	21	;volatile
  5882     0688                     i1l2414:
  5883                           
  5884                           ;mcc_generated_files/tmr0.c: 116:     if(TMR0_InterruptHandler)
  5885     0688  0820               	movf	_TMR0_InterruptHandler,w
  5886     0689  0421               	iorwf	_TMR0_InterruptHandler+1,w
  5887     068A  1903               	btfsc	3,2
  5888     068B  2E8D               	goto	u181_21
  5889     068C  2E8E               	goto	u181_20
  5890     068D                     u181_21:
  5891     068D  2E93               	goto	i1l468
  5892     068E                     u181_20:
  5893     068E                     i1l2416:
  5894                           
  5895                           ;mcc_generated_files/tmr0.c: 117:     {;mcc_generated_files/tmr0.c: 118:         TMR0_In
      +                          terruptHandler();
  5896     068E  0821               	movf	_TMR0_InterruptHandler+1,w
  5897     068F  008A               	movwf	10
  5898     0690  0820               	movf	_TMR0_InterruptHandler,w
  5899     0691  000A               	callw
  5900     0692  3186               	pagesel	$
  5901     0693                     i1l468:
  5902     0693  0008               	return
  5903     0694                     __end_of_TMR0_ISR:
  5904                           
  5905                           	psect	text43
  5906     050C                     __ptext43:	
  5907 ;; *************** function _LIN_timerHandler *****************
  5908 ;; Defined at:
  5909 ;;		line 256 in file "mcc_generated_files/LINDrivers/lin_master.c"
  5910 ;; Parameters:    Size  Location     Type
  5911 ;;		None
  5912 ;; Auto vars:     Size  Location     Type
  5913 ;;		None
  5914 ;; Return value:  Size  Location     Type
  5915 ;;                  1    wreg      void 
  5916 ;; Registers used:
  5917 ;;		wreg, fsr0l, fsr0h, fsr1l, fsr1h, status,2, status,0, pclath, cstack
  5918 ;; Tracked objects:
  5919 ;;		On entry : 0/0
  5920 ;;		On exit  : 0/0
  5921 ;;		Unchanged: 0/0
  5922 ;; Data sizes:     COMMON   BANK0   BANK1   BANK2   BANK3   BANK4   BANK5   BANK6
  5923 ;;      Params:         0       0       0       0       0       0       0       0
  5924 ;;      Locals:         0       0       0       0       0       0       0       0
  5925 ;;      Temps:          1       0       0       0       0       0       0       0
  5926 ;;      Totals:         1       0       0       0       0       0       0       0
  5927 ;;Total ram usage:        1 bytes
  5928 ;; Hardware stack levels used: 1
  5929 ;; Hardware stack levels required when called: 3
  5930 ;; This function calls:
  5931 ;;		_LIN_sendPeriodicTx
  5932 ;;		i1_LIN_stopTimer
  5933 ;; This function is called by:
  5934 ;;		_LIN_setTimerHandler
  5935 ;;		_TMR0_ISR
  5936 ;; This function uses a non-reentrant model
  5937 ;;
  5938                           
  5939     050C                     _LIN_timerHandler:	
  5940                           ;psect for function _LIN_timerHandler
  5941                           
  5942     050C                     i1l2220:	
  5943                           ;incstack = 0
  5944                           ; Regs used in _LIN_timerHandler: [wreg-fsr1h+status,2+status,0+pclath+cstack]
  5945                           
  5946                           
  5947                           ;mcc_generated_files/LINDrivers/lin_master.c: 258:     if(LIN_timerRunning == 1){
  5948     050C  0020               	movlb	0	; select bank0
  5949     050D  033E               	decf	_LIN_timerRunning,w
  5950     050E  1D03               	btfss	3,2
  5951     050F  2D11               	goto	u164_21
  5952     0510  2D12               	goto	u164_20
  5953     0511                     u164_21:
  5954     0511  2D1F               	goto	i1l2226
  5955     0512                     u164_20:
  5956     0512                     i1l2222:
  5957                           
  5958                           ;mcc_generated_files/LINDrivers/lin_master.c: 259:         if (++LIN_timerCallBack >= LI
      +                          N_timeout){
  5959     0512  3001               	movlw	1
  5960     0513  00FD               	movwf	??_LIN_timerHandler
  5961     0514  087D               	movf	??_LIN_timerHandler,w
  5962     0515  07BC               	addwf	_LIN_timerCallBack,f	;volatile
  5963     0516  0866               	movf	_LIN_timeout,w
  5964     0517  023C               	subwf	_LIN_timerCallBack,w	;volatile
  5965     0518  1C03               	skipc
  5966     0519  2D1B               	goto	u165_21
  5967     051A  2D1C               	goto	u165_20
  5968     051B                     u165_21:
  5969     051B  2D1F               	goto	i1l2226
  5970     051C                     u165_20:
  5971     051C                     i1l2224:
  5972                           
  5973                           ;mcc_generated_files/LINDrivers/lin_master.c: 261:             LIN_stopTimer();
  5974     051C  3187  2728  3185   	fcall	i1_LIN_stopTimer
  5975     051F                     i1l2226:
  5976                           
  5977                           ;mcc_generated_files/LINDrivers/lin_master.c: 264:     if(LIN_enablePeriodTx == 1){
  5978     051F  0020               	movlb	0	; select bank0
  5979     0520  033D               	decf	_LIN_enablePeriodTx,w
  5980     0521  1D03               	btfss	3,2
  5981     0522  2D24               	goto	u166_21
  5982     0523  2D25               	goto	u166_20
  5983     0524                     u166_21:
  5984     0524  2D32               	goto	i1l143
  5985     0525                     u166_20:
  5986     0525                     i1l2228:
  5987                           
  5988                           ;mcc_generated_files/LINDrivers/lin_master.c: 265:         if(++LIN_periodCallBack >= LI
      +                          N_period){
  5989     0525  3001               	movlw	1
  5990     0526  00FD               	movwf	??_LIN_timerHandler
  5991     0527  087D               	movf	??_LIN_timerHandler,w
  5992     0528  07BB               	addwf	_LIN_periodCallBack,f	;volatile
  5993     0529  083F               	movf	_LIN_period,w
  5994     052A  023B               	subwf	_LIN_periodCallBack,w	;volatile
  5995     052B  1C03               	skipc
  5996     052C  2D2E               	goto	u167_21
  5997     052D  2D2F               	goto	u167_20
  5998     052E                     u167_21:
  5999     052E  2D32               	goto	i1l143
  6000     052F                     u167_20:
  6001     052F                     i1l2230:
  6002                           
  6003                           ;mcc_generated_files/LINDrivers/lin_master.c: 266:             LIN_sendPeriodicTx();
  6004     052F  3182  227C  3185   	fcall	_LIN_sendPeriodicTx
  6005     0532                     i1l143:
  6006     0532  0008               	return
  6007     0533                     __end_of_LIN_timerHandler:
  6008                           
  6009                           	psect	text44
  6010     0742                     __ptext44:	
  6011 ;; *************** function _TMR0_DefaultInterruptHandler *****************
  6012 ;; Defined at:
  6013 ;;		line 129 in file "mcc_generated_files/tmr0.c"
  6014 ;; Parameters:    Size  Location     Type
  6015 ;;		None
  6016 ;; Auto vars:     Size  Location     Type
  6017 ;;		None
  6018 ;; Return value:  Size  Location     Type
  6019 ;;                  1    wreg      void 
  6020 ;; Registers used:
  6021 ;;		None
  6022 ;; Tracked objects:
  6023 ;;		On entry : 0/0
  6024 ;;		On exit  : 0/0
  6025 ;;		Unchanged: 0/0
  6026 ;; Data sizes:     COMMON   BANK0   BANK1   BANK2   BANK3   BANK4   BANK5   BANK6
  6027 ;;      Params:         0       0       0       0       0       0       0       0
  6028 ;;      Locals:         0       0       0       0       0       0       0       0
  6029 ;;      Temps:          0       0       0       0       0       0       0       0
  6030 ;;      Totals:         0       0       0       0       0       0       0       0
  6031 ;;Total ram usage:        0 bytes
  6032 ;; Hardware stack levels used: 1
  6033 ;; This function calls:
  6034 ;;		Nothing
  6035 ;; This function is called by:
  6036 ;;		_TMR0_Initialize
  6037 ;;		_TMR0_ISR
  6038 ;; This function uses a non-reentrant model
  6039 ;;
  6040                           
  6041     0742                     _TMR0_DefaultInterruptHandler:	
  6042                           ;psect for function _TMR0_DefaultInterruptHandler
  6043                           
  6044     0742                     i1l474:	
  6045                           ;incstack = 0
  6046                           ; Regs used in _TMR0_DefaultInterruptHandler: []
  6047                           
  6048     0742  0008               	return
  6049     0743                     __end_of_TMR0_DefaultInterruptHandler:
  6050                           
  6051                           	psect	text45
  6052     0728                     __ptext45:	
  6053 ;; *************** function i1_LIN_stopTimer *****************
  6054 ;; Defined at:
  6055 ;;		line 276 in file "mcc_generated_files/LINDrivers/lin_master.c"
  6056 ;; Parameters:    Size  Location     Type
  6057 ;;		None
  6058 ;; Auto vars:     Size  Location     Type
  6059 ;;		None
  6060 ;; Return value:  Size  Location     Type
  6061 ;;                  1    wreg      void 
  6062 ;; Registers used:
  6063 ;;		status,2
  6064 ;; Tracked objects:
  6065 ;;		On entry : 0/0
  6066 ;;		On exit  : 0/0
  6067 ;;		Unchanged: 0/0
  6068 ;; Data sizes:     COMMON   BANK0   BANK1   BANK2   BANK3   BANK4   BANK5   BANK6
  6069 ;;      Params:         0       0       0       0       0       0       0       0
  6070 ;;      Locals:         0       0       0       0       0       0       0       0
  6071 ;;      Temps:          0       0       0       0       0       0       0       0
  6072 ;;      Totals:         0       0       0       0       0       0       0       0
  6073 ;;Total ram usage:        0 bytes
  6074 ;; Hardware stack levels used: 1
  6075 ;; This function calls:
  6076 ;;		Nothing
  6077 ;; This function is called by:
  6078 ;;		_LIN_timerHandler
  6079 ;; This function uses a non-reentrant model
  6080 ;;
  6081                           
  6082     0728                     i1_LIN_stopTimer:	
  6083                           ;psect for function i1_LIN_stopTimer
  6084                           
  6085     0728                     i1l2162:	
  6086                           ;incstack = 0
  6087                           ; Regs used in i1_LIN_stopTimer: [status,2]
  6088                           
  6089                           
  6090                           ;mcc_generated_files/LINDrivers/lin_master.c: 278:     LIN_timerCallBack = 0;
  6091     0728  0020               	movlb	0	; select bank0
  6092     0729  01BC               	clrf	_LIN_timerCallBack	;volatile
  6093                           
  6094                           ;mcc_generated_files/LINDrivers/lin_master.c: 279:     LIN_timerRunning = 0;
  6095     072A  01BE               	clrf	_LIN_timerRunning
  6096     072B                     i1l149:
  6097     072B  0008               	return
  6098     072C                     __end_ofi1_LIN_stopTimer:
  6099                           
  6100                           	psect	text46
  6101     027C                     __ptext46:	
  6102 ;; *************** function _LIN_sendPeriodicTx *****************
  6103 ;; Defined at:
  6104 ;;		line 306 in file "mcc_generated_files/LINDrivers/lin_master.c"
  6105 ;; Parameters:    Size  Location     Type
  6106 ;;		None
  6107 ;; Auto vars:     Size  Location     Type
  6108 ;;  periodicTx      2    7[BANK0 ] PTR const struct .
  6109 ;;		 -> NULL(0), scheduleTable(6), 
  6110 ;; Return value:  Size  Location     Type
  6111 ;;                  1    wreg      void 
  6112 ;; Registers used:
  6113 ;;		wreg, fsr0l, fsr0h, fsr1l, fsr1h, status,2, status,0, pclath, cstack
  6114 ;; Tracked objects:
  6115 ;;		On entry : 0/0
  6116 ;;		On exit  : 0/0
  6117 ;;		Unchanged: 0/0
  6118 ;; Data sizes:     COMMON   BANK0   BANK1   BANK2   BANK3   BANK4   BANK5   BANK6
  6119 ;;      Params:         0       0       0       0       0       0       0       0
  6120 ;;      Locals:         0       2       0       0       0       0       0       0
  6121 ;;      Temps:          0       3       0       0       0       0       0       0
  6122 ;;      Totals:         0       5       0       0       0       0       0       0
  6123 ;;Total ram usage:        5 bytes
  6124 ;; Hardware stack levels used: 1
  6125 ;; Hardware stack levels required when called: 2
  6126 ;; This function calls:
  6127 ;;		_LIN_queuePacket
  6128 ;;		___wmul
  6129 ;; This function is called by:
  6130 ;;		_LIN_timerHandler
  6131 ;; This function uses a non-reentrant model
  6132 ;;
  6133                           
  6134     027C                     _LIN_sendPeriodicTx:	
  6135                           ;psect for function _LIN_sendPeriodicTx
  6136                           
  6137     027C                     i1l2124:	
  6138                           ;incstack = 0
  6139                           ; Regs used in _LIN_sendPeriodicTx: [wreg-fsr1h+status,2+status,0+pclath+cstack]
  6140                           
  6141                           
  6142                           ;mcc_generated_files/LINDrivers/lin_master.c: 307:     static volatile uint8_t scheduleI
      +                          ndex = 0;;mcc_generated_files/LINDrivers/lin_master.c: 308:     const lin_cmd_packet_t* 
      +                          periodicTx;;mcc_generated_files/LINDrivers/lin_master.c: 310:     LIN_periodCallBack = 0
      +                          ;
  6143     027C  0020               	movlb	0	; select bank0
  6144     027D  01BB               	clrf	_LIN_periodCallBack	;volatile
  6145     027E                     i1l2126:
  6146                           
  6147                           ;mcc_generated_files/LINDrivers/lin_master.c: 311:     periodicTx = schedule + scheduleI
      +                          ndex;
  6148     027E  0838               	movf	LIN_sendPeriodicTx@scheduleIndex,w	;volatile
  6149     027F  00CE               	movwf	??_LIN_sendPeriodicTx
  6150     0280  01CF               	clrf	??_LIN_sendPeriodicTx+1
  6151     0281  084E               	movf	??_LIN_sendPeriodicTx,w
  6152     0282  00F0               	movwf	___wmul@multiplier
  6153     0283  084F               	movf	??_LIN_sendPeriodicTx+1,w
  6154     0284  00F1               	movwf	___wmul@multiplier+1
  6155     0285  3006               	movlw	6
  6156     0286  00F2               	movwf	___wmul@multiplicand
  6157     0287  3000               	movlw	0
  6158     0288  00F3               	movwf	___wmul@multiplicand+1
  6159     0289  3185  25C0  3182   	fcall	___wmul
  6160     028C  0870               	movf	?___wmul,w
  6161     028D  0020               	movlb	0	; select bank0
  6162     028E  072C               	addwf	_schedule,w
  6163     028F  00D1               	movwf	LIN_sendPeriodicTx@periodicTx
  6164     0290  0871               	movf	?___wmul+1,w
  6165     0291  3D2D               	addwfc	_schedule+1,w
  6166     0292  00D2               	movwf	LIN_sendPeriodicTx@periodicTx+1
  6167     0293                     i1l2128:
  6168                           
  6169                           ;mcc_generated_files/LINDrivers/lin_master.c: 313:     if(periodicTx->period > 0){
  6170     0293  0852               	movf	LIN_sendPeriodicTx@periodicTx+1,w
  6171     0294  00CF               	movwf	??_LIN_sendPeriodicTx+1
  6172     0295  0851               	movf	LIN_sendPeriodicTx@periodicTx,w
  6173     0296  00CE               	movwf	??_LIN_sendPeriodicTx
  6174     0297  3004               	movlw	4
  6175     0298  074E               	addwf	??_LIN_sendPeriodicTx,w
  6176     0299  0084               	movwf	4
  6177     029A  084F               	movf	??_LIN_sendPeriodicTx+1,w
  6178     029B  1803               	skipnc
  6179     029C  0A4F               	incf	??_LIN_sendPeriodicTx+1,w
  6180     029D  0085               	movwf	5
  6181     029E  0012               	moviw fsr0++
  6182     029F  1903               	btfsc	3,2
  6183     02A0  2AA2               	goto	u154_21
  6184     02A1  2AA3               	goto	u154_20
  6185     02A2                     u154_21:
  6186     02A2  2AB8               	goto	i1l2132
  6187     02A3                     u154_20:
  6188     02A3                     i1l2130:
  6189                           
  6190                           ;mcc_generated_files/LINDrivers/lin_master.c: 314:         LIN_queuePacket(periodicTx->c
      +                          md, periodicTx->data);
  6191     02A3  0852               	movf	LIN_sendPeriodicTx@periodicTx+1,w
  6192     02A4  00CF               	movwf	??_LIN_sendPeriodicTx+1
  6193     02A5  0851               	movf	LIN_sendPeriodicTx@periodicTx,w
  6194     02A6  00CE               	movwf	??_LIN_sendPeriodicTx
  6195     02A7  3005               	movlw	5
  6196     02A8  074E               	addwf	??_LIN_sendPeriodicTx,w
  6197     02A9  0084               	movwf	4
  6198     02AA  084F               	movf	??_LIN_sendPeriodicTx+1,w
  6199     02AB  1803               	skipnc
  6200     02AC  0A4F               	incf	??_LIN_sendPeriodicTx+1,w
  6201     02AD  0085               	movwf	5
  6202     02AE  0800               	movf	0,w	;code access
  6203     02AF  00F8               	movwf	LIN_queuePacket@data
  6204     02B0  0851               	movf	LIN_sendPeriodicTx@periodicTx,w
  6205     02B1  0084               	movwf	4
  6206     02B2  0852               	movf	LIN_sendPeriodicTx@periodicTx+1,w
  6207     02B3  0085               	movwf	5
  6208     02B4  0800               	movf	0,w	;code access
  6209     02B5  3181  213C  3182   	fcall	_LIN_queuePacket
  6210     02B8                     i1l2132:
  6211                           
  6212                           ;mcc_generated_files/LINDrivers/lin_master.c: 318:         if(++scheduleIndex >= schedul
      +                          eLength){
  6213     02B8  3001               	movlw	1
  6214     02B9  0020               	movlb	0	; select bank0
  6215     02BA  00CE               	movwf	??_LIN_sendPeriodicTx
  6216     02BB  084E               	movf	??_LIN_sendPeriodicTx,w
  6217     02BC  07B8               	addwf	LIN_sendPeriodicTx@scheduleIndex,f	;volatile
  6218     02BD  0840               	movf	_scheduleLength,w
  6219     02BE  0238               	subwf	LIN_sendPeriodicTx@scheduleIndex,w	;volatile
  6220     02BF  1C03               	skipc
  6221     02C0  2AC2               	goto	u155_21
  6222     02C1  2AC3               	goto	u155_20
  6223     02C2                     u155_21:
  6224     02C2  2AC4               	goto	i1l2136
  6225     02C3                     u155_20:
  6226     02C3                     i1l2134:
  6227                           
  6228                           ;mcc_generated_files/LINDrivers/lin_master.c: 319:             scheduleIndex = 0;
  6229     02C3  01B8               	clrf	LIN_sendPeriodicTx@scheduleIndex	;volatile
  6230     02C4                     i1l2136:
  6231                           
  6232                           ;mcc_generated_files/LINDrivers/lin_master.c: 321:         periodicTx = schedule + sched
      +                          uleIndex;
  6233     02C4  0838               	movf	LIN_sendPeriodicTx@scheduleIndex,w	;volatile
  6234     02C5  00CE               	movwf	??_LIN_sendPeriodicTx
  6235     02C6  01CF               	clrf	??_LIN_sendPeriodicTx+1
  6236     02C7  084E               	movf	??_LIN_sendPeriodicTx,w
  6237     02C8  00F0               	movwf	___wmul@multiplier
  6238     02C9  084F               	movf	??_LIN_sendPeriodicTx+1,w
  6239     02CA  00F1               	movwf	___wmul@multiplier+1
  6240     02CB  3006               	movlw	6
  6241     02CC  00F2               	movwf	___wmul@multiplicand
  6242     02CD  3000               	movlw	0
  6243     02CE  00F3               	movwf	___wmul@multiplicand+1
  6244     02CF  3185  25C0  3182   	fcall	___wmul
  6245     02D2  0870               	movf	?___wmul,w
  6246     02D3  0020               	movlb	0	; select bank0
  6247     02D4  072C               	addwf	_schedule,w
  6248     02D5  00D1               	movwf	LIN_sendPeriodicTx@periodicTx
  6249     02D6  0871               	movf	?___wmul+1,w
  6250     02D7  3D2D               	addwfc	_schedule+1,w
  6251     02D8  00D2               	movwf	LIN_sendPeriodicTx@periodicTx+1
  6252     02D9                     i1l2138:
  6253                           
  6254                           ;mcc_generated_files/LINDrivers/lin_master.c: 322:     } while(periodicTx->period == 0);
  6255     02D9  0852               	movf	LIN_sendPeriodicTx@periodicTx+1,w
  6256     02DA  00CF               	movwf	??_LIN_sendPeriodicTx+1
  6257     02DB  0851               	movf	LIN_sendPeriodicTx@periodicTx,w
  6258     02DC  00CE               	movwf	??_LIN_sendPeriodicTx
  6259     02DD  3004               	movlw	4
  6260     02DE  074E               	addwf	??_LIN_sendPeriodicTx,w
  6261     02DF  0084               	movwf	4
  6262     02E0  084F               	movf	??_LIN_sendPeriodicTx+1,w
  6263     02E1  1803               	skipnc
  6264     02E2  0A4F               	incf	??_LIN_sendPeriodicTx+1,w
  6265     02E3  0085               	movwf	5
  6266     02E4  0012               	moviw fsr0++
  6267     02E5  1903               	btfsc	3,2
  6268     02E6  2AE8               	goto	u156_21
  6269     02E7  2AE9               	goto	u156_20
  6270     02E8                     u156_21:
  6271     02E8  2AB8               	goto	i1l2132
  6272     02E9                     u156_20:
  6273     02E9                     i1l2140:
  6274                           
  6275                           ;mcc_generated_files/LINDrivers/lin_master.c: 324:     LIN_period = periodicTx->period;
  6276     02E9  0852               	movf	LIN_sendPeriodicTx@periodicTx+1,w
  6277     02EA  00CF               	movwf	??_LIN_sendPeriodicTx+1
  6278     02EB  0851               	movf	LIN_sendPeriodicTx@periodicTx,w
  6279     02EC  00CE               	movwf	??_LIN_sendPeriodicTx
  6280     02ED  3004               	movlw	4
  6281     02EE  074E               	addwf	??_LIN_sendPeriodicTx,w
  6282     02EF  0084               	movwf	4
  6283     02F0  084F               	movf	??_LIN_sendPeriodicTx+1,w
  6284     02F1  1803               	skipnc
  6285     02F2  0A4F               	incf	??_LIN_sendPeriodicTx+1,w
  6286     02F3  0085               	movwf	5
  6287     02F4  0800               	movf	0,w	;code access
  6288     02F5  00BF               	movwf	_LIN_period
  6289     02F6                     i1l173:
  6290     02F6  0008               	return
  6291     02F7                     __end_of_LIN_sendPeriodicTx:
  6292                           
  6293                           	psect	text47
  6294     05C0                     __ptext47:	
  6295 ;; *************** function ___wmul *****************
  6296 ;; Defined at:
  6297 ;;		line 15 in file "C:\Program Files\Microchip\xc8\v2.46\pic\sources\c99\common\Umul16.c"
  6298 ;; Parameters:    Size  Location     Type
  6299 ;;  multiplier      2    0[COMMON] unsigned int 
  6300 ;;  multiplicand    2    2[COMMON] unsigned int 
  6301 ;; Auto vars:     Size  Location     Type
  6302 ;;  product         2    4[COMMON] unsigned int 
  6303 ;; Return value:  Size  Location     Type
  6304 ;;                  2    0[COMMON] unsigned int 
  6305 ;; Registers used:
  6306 ;;		wreg, status,2, status,0
  6307 ;; Tracked objects:
  6308 ;;		On entry : 0/0
  6309 ;;		On exit  : 0/0
  6310 ;;		Unchanged: 0/0
  6311 ;; Data sizes:     COMMON   BANK0   BANK1   BANK2   BANK3   BANK4   BANK5   BANK6
  6312 ;;      Params:         4       0       0       0       0       0       0       0
  6313 ;;      Locals:         2       0       0       0       0       0       0       0
  6314 ;;      Temps:          0       0       0       0       0       0       0       0
  6315 ;;      Totals:         6       0       0       0       0       0       0       0
  6316 ;;Total ram usage:        6 bytes
  6317 ;; Hardware stack levels used: 1
  6318 ;; This function calls:
  6319 ;;		Nothing
  6320 ;; This function is called by:
  6321 ;;		_LIN_sendPeriodicTx
  6322 ;; This function uses a non-reentrant model
  6323 ;;
  6324                           
  6325     05C0                     ___wmul:	
  6326                           ;psect for function ___wmul
  6327                           
  6328     05C0                     i1l2030:	
  6329                           ;incstack = 0
  6330                           ; Regs used in ___wmul: [wreg+status,2+status,0]
  6331                           
  6332     05C0  01F4               	clrf	___wmul@product
  6333     05C1  01F5               	clrf	___wmul@product+1
  6334     05C2                     i1l2032:
  6335     05C2  1C70               	btfss	___wmul@multiplier,0
  6336     05C3  2DC5               	goto	u143_21
  6337     05C4  2DC6               	goto	u143_20
  6338     05C5                     u143_21:
  6339     05C5  2DCA               	goto	i1l734
  6340     05C6                     u143_20:
  6341     05C6                     i1l2034:
  6342     05C6  0872               	movf	___wmul@multiplicand,w
  6343     05C7  07F4               	addwf	___wmul@product,f
  6344     05C8  0873               	movf	___wmul@multiplicand+1,w
  6345     05C9  3DF5               	addwfc	___wmul@product+1,f
  6346     05CA                     i1l734:
  6347     05CA  3001               	movlw	1
  6348     05CB                     u144_25:
  6349     05CB  35F2               	lslf	___wmul@multiplicand,f
  6350     05CC  0DF3               	rlf	___wmul@multiplicand+1,f
  6351     05CD  0B89               	decfsz	9,f
  6352     05CE  2DCB               	goto	u144_25
  6353     05CF                     i1l2036:
  6354     05CF  3001               	movlw	1
  6355     05D0                     u145_25:
  6356     05D0  36F1               	lsrf	___wmul@multiplier+1,f
  6357     05D1  0CF0               	rrf	___wmul@multiplier,f
  6358     05D2  0B89               	decfsz	9,f
  6359     05D3  2DD0               	goto	u145_25
  6360     05D4                     i1l2038:
  6361     05D4  0870               	movf	___wmul@multiplier,w
  6362     05D5  0471               	iorwf	___wmul@multiplier+1,w
  6363     05D6  1D03               	btfss	3,2
  6364     05D7  2DD9               	goto	u146_21
  6365     05D8  2DDA               	goto	u146_20
  6366     05D9                     u146_21:
  6367     05D9  2DC2               	goto	i1l2032
  6368     05DA                     u146_20:
  6369     05DA                     i1l2040:
  6370     05DA  0875               	movf	___wmul@product+1,w
  6371     05DB  00F1               	movwf	?___wmul+1
  6372     05DC  0874               	movf	___wmul@product,w
  6373     05DD  00F0               	movwf	?___wmul
  6374     05DE                     i1l736:
  6375     05DE  0008               	return
  6376     05DF                     __end_of___wmul:
  6377                           
  6378                           	psect	text48
  6379     013C                     __ptext48:	
  6380 ;; *************** function _LIN_queuePacket *****************
  6381 ;; Defined at:
  6382 ;;		line 70 in file "mcc_generated_files/LINDrivers/lin_master.c"
  6383 ;; Parameters:    Size  Location     Type
  6384 ;;  cmd             1    wreg     unsigned char 
  6385 ;;  data            1    8[COMMON] PTR unsigned char 
  6386 ;;		 -> SW_STATE_Data(8), 
  6387 ;; Auto vars:     Size  Location     Type
  6388 ;;  cmd             1    0[BANK0 ] unsigned char 
  6389 ;;  i               1    1[BANK0 ] unsigned char 
  6390 ;;  tempSchedule    2    2[BANK0 ] PTR const struct .
  6391 ;;		 -> NULL(0), scheduleTable(6), 
  6392 ;; Return value:  Size  Location     Type
  6393 ;;                  1    wreg      void 
  6394 ;; Registers used:
  6395 ;;		wreg, fsr0l, fsr0h, fsr1l, fsr1h, status,2, status,0, pclath, cstack
  6396 ;; Tracked objects:
  6397 ;;		On entry : 0/0
  6398 ;;		On exit  : 0/0
  6399 ;;		Unchanged: 0/0
  6400 ;; Data sizes:     COMMON   BANK0   BANK1   BANK2   BANK3   BANK4   BANK5   BANK6
  6401 ;;      Params:         1       0       0       0       0       0       0       0
  6402 ;;      Locals:         0       4       0       0       0       0       0       0
  6403 ;;      Temps:          4       0       0       0       0       0       0       0
  6404 ;;      Totals:         5       4       0       0       0       0       0       0
  6405 ;;Total ram usage:        9 bytes
  6406 ;; Hardware stack levels used: 1
  6407 ;; Hardware stack levels required when called: 1
  6408 ;; This function calls:
  6409 ;;		_LIN_calcParity
  6410 ;;		i1_LIN_getChecksum
  6411 ;;		i1_memcpy
  6412 ;;		i1_memset
  6413 ;; This function is called by:
  6414 ;;		_LIN_sendPeriodicTx
  6415 ;; This function uses a non-reentrant model
  6416 ;;
  6417                           
  6418     013C                     _LIN_queuePacket:	
  6419                           ;psect for function _LIN_queuePacket
  6420                           
  6421                           
  6422                           ;incstack = 0
  6423                           ; Regs used in _LIN_queuePacket: [wreg-fsr1h+status,2+status,0+pclath+cstack]
  6424                           ;LIN_queuePacket@cmd stored from wreg
  6425     013C  0020               	movlb	0	; select bank0
  6426     013D  00CA               	movwf	LIN_queuePacket@cmd
  6427     013E                     i1l1980:
  6428                           
  6429                           ;mcc_generated_files/LINDrivers/lin_master.c: 71:     const lin_cmd_packet_t* tempSchedu
      +                          le = schedule;
  6430     013E  082D               	movf	_schedule+1,w
  6431     013F  00CD               	movwf	LIN_queuePacket@tempSchedule+1
  6432     0140  082C               	movf	_schedule,w
  6433     0141  00CC               	movwf	LIN_queuePacket@tempSchedule
  6434     0142                     i1l1982:
  6435                           
  6436                           ;mcc_generated_files/LINDrivers/lin_master.c: 73:     for(uint8_t i = 0; i < scheduleLen
      +                          gth; i++){
  6437     0142  01CB               	clrf	LIN_queuePacket@i
  6438     0143  2957               	goto	i1l1992
  6439     0144                     i1l1984:
  6440                           
  6441                           ;mcc_generated_files/LINDrivers/lin_master.c: 74:         if(cmd == tempSchedule->cmd){
  6442     0144  084C               	movf	LIN_queuePacket@tempSchedule,w
  6443     0145  0084               	movwf	4
  6444     0146  084D               	movf	LIN_queuePacket@tempSchedule+1,w
  6445     0147  0085               	movwf	5
  6446     0148  0800               	movf	0,w	;code access
  6447     0149  064A               	xorwf	LIN_queuePacket@cmd,w
  6448     014A  1D03               	skipz
  6449     014B  294D               	goto	u137_21
  6450     014C  294E               	goto	u137_20
  6451     014D                     u137_21:
  6452     014D  294F               	goto	i1l1988
  6453     014E                     u137_20:
  6454     014E  295D               	goto	i1l1994
  6455     014F                     i1l1988:
  6456                           
  6457                           ;mcc_generated_files/LINDrivers/lin_master.c: 77:         tempSchedule++;
  6458     014F  3006               	movlw	6
  6459     0150  07CC               	addwf	LIN_queuePacket@tempSchedule,f
  6460     0151  3000               	movlw	0
  6461     0152  3DCD               	addwfc	LIN_queuePacket@tempSchedule+1,f
  6462     0153                     i1l1990:
  6463                           
  6464                           ;mcc_generated_files/LINDrivers/lin_master.c: 78:     }
  6465     0153  3001               	movlw	1
  6466     0154  00F9               	movwf	??_LIN_queuePacket
  6467     0155  0879               	movf	??_LIN_queuePacket,w
  6468     0156  07CB               	addwf	LIN_queuePacket@i,f
  6469     0157                     i1l1992:
  6470     0157  0840               	movf	_scheduleLength,w
  6471     0158  024B               	subwf	LIN_queuePacket@i,w
  6472     0159  1C03               	skipc
  6473     015A  295C               	goto	u138_21
  6474     015B  295D               	goto	u138_20
  6475     015C                     u138_21:
  6476     015C  2944               	goto	i1l1984
  6477     015D                     u138_20:
  6478     015D                     i1l1994:
  6479                           
  6480                           ;mcc_generated_files/LINDrivers/lin_master.c: 81:     memset(LIN_packet.rawPacket, 0, si
      +                          zeof(LIN_packet.rawPacket));
  6481     015D  3000               	movlw	0
  6482     015E  00F0               	movwf	i1memset@c
  6483     015F  00F1               	movwf	i1memset@c+1
  6484     0160  300B               	movlw	11
  6485     0161  00F2               	movwf	i1memset@n
  6486     0162  3000               	movlw	0
  6487     0163  00F3               	movwf	i1memset@n+1
  6488     0164  30C4               	movlw	(low (_LIN_packet| 0))& (0+255)
  6489     0165  3186  2614  3181   	fcall	i1_memset
  6490     0168                     i1l1996:
  6491                           
  6492                           ;mcc_generated_files/LINDrivers/lin_master.c: 84:     LIN_packet.PID = LIN_calcParity(te
      +                          mpSchedule->cmd);
  6493     0168  0020               	movlb	0	; select bank0
  6494     0169  084C               	movf	LIN_queuePacket@tempSchedule,w
  6495     016A  0084               	movwf	4
  6496     016B  084D               	movf	LIN_queuePacket@tempSchedule+1,w
  6497     016C  0085               	movwf	5
  6498     016D  0800               	movf	0,w	;code access
  6499     016E  3181  21F6  3181   	fcall	_LIN_calcParity
  6500     0171  0021               	movlb	1	; select bank1
  6501     0172  00C4               	movwf	_LIN_packet^(0+128)
  6502     0173                     i1l1998:
  6503                           
  6504                           ;mcc_generated_files/LINDrivers/lin_master.c: 86:     if(tempSchedule->type == TRANSMIT)
      +                          {
  6505     0173  0020               	movlb	0	; select bank0
  6506     0174  084D               	movf	LIN_queuePacket@tempSchedule+1,w
  6507     0175  00FA               	movwf	??_LIN_queuePacket+1
  6508     0176  084C               	movf	LIN_queuePacket@tempSchedule,w
  6509     0177  00F9               	movwf	??_LIN_queuePacket
  6510     0178  3001               	movlw	1
  6511     0179  0779               	addwf	??_LIN_queuePacket,w
  6512     017A  0084               	movwf	4
  6513     017B  087A               	movf	??_LIN_queuePacket+1,w
  6514     017C  1803               	skipnc
  6515     017D  0A7A               	incf	??_LIN_queuePacket+1,w
  6516     017E  0085               	movwf	5
  6517     017F  0012               	moviw fsr0++
  6518     0180  1D03               	btfss	3,2
  6519     0181  2983               	goto	u139_21
  6520     0182  2984               	goto	u139_20
  6521     0183                     u139_21:
  6522     0183  29CD               	goto	i1l2010
  6523     0184                     u139_20:
  6524     0184                     i1l2000:
  6525                           
  6526                           ;mcc_generated_files/LINDrivers/lin_master.c: 89:         if(tempSchedule->length > 0){
  6527     0184  084D               	movf	LIN_queuePacket@tempSchedule+1,w
  6528     0185  00FA               	movwf	??_LIN_queuePacket+1
  6529     0186  084C               	movf	LIN_queuePacket@tempSchedule,w
  6530     0187  00F9               	movwf	??_LIN_queuePacket
  6531     0188  3002               	movlw	2
  6532     0189  0779               	addwf	??_LIN_queuePacket,w
  6533     018A  0084               	movwf	4
  6534     018B  087A               	movf	??_LIN_queuePacket+1,w
  6535     018C  1803               	skipnc
  6536     018D  0A7A               	incf	??_LIN_queuePacket+1,w
  6537     018E  0085               	movwf	5
  6538     018F  0012               	moviw fsr0++
  6539     0190  1903               	btfsc	3,2
  6540     0191  2993               	goto	u140_21
  6541     0192  2994               	goto	u140_20
  6542     0193                     u140_21:
  6543     0193  29BC               	goto	i1l81
  6544     0194                     u140_20:
  6545     0194                     i1l2002:
  6546                           
  6547                           ;mcc_generated_files/LINDrivers/lin_master.c: 90:             LIN_packet.length = tempSc
      +                          hedule->length;
  6548     0194  084D               	movf	LIN_queuePacket@tempSchedule+1,w
  6549     0195  00FA               	movwf	??_LIN_queuePacket+1
  6550     0196  084C               	movf	LIN_queuePacket@tempSchedule,w
  6551     0197  00F9               	movwf	??_LIN_queuePacket
  6552     0198  3002               	movlw	2
  6553     0199  0779               	addwf	??_LIN_queuePacket,w
  6554     019A  0084               	movwf	4
  6555     019B  087A               	movf	??_LIN_queuePacket+1,w
  6556     019C  1803               	skipnc
  6557     019D  0A7A               	incf	??_LIN_queuePacket+1,w
  6558     019E  0085               	movwf	5
  6559     019F  0800               	movf	0,w	;code access
  6560     01A0  0021               	movlb	1	; select bank1
  6561     01A1  00CE               	movwf	(_LIN_packet^(0+128)+10)
  6562     01A2                     i1l2004:
  6563                           
  6564                           ;mcc_generated_files/LINDrivers/lin_master.c: 91:             memcpy(LIN_packet.data, da
      +                          ta, tempSchedule->length);
  6565     01A2  0878               	movf	LIN_queuePacket@data,w
  6566     01A3  00F0               	movwf	i1memcpy@s1
  6567     01A4  0020               	movlb	0	; select bank0
  6568     01A5  084D               	movf	LIN_queuePacket@tempSchedule+1,w
  6569     01A6  00FA               	movwf	??_LIN_queuePacket+1
  6570     01A7  084C               	movf	LIN_queuePacket@tempSchedule,w
  6571     01A8  00F9               	movwf	??_LIN_queuePacket
  6572     01A9  3002               	movlw	2
  6573     01AA  0779               	addwf	??_LIN_queuePacket,w
  6574     01AB  0084               	movwf	4
  6575     01AC  087A               	movf	??_LIN_queuePacket+1,w
  6576     01AD  1803               	skipnc
  6577     01AE  0A7A               	incf	??_LIN_queuePacket+1,w
  6578     01AF  0085               	movwf	5
  6579     01B0  0800               	movf	0,w	;code access
  6580     01B1  00FB               	movwf	??_LIN_queuePacket+2
  6581     01B2  01FC               	clrf	??_LIN_queuePacket+3
  6582     01B3  087B               	movf	??_LIN_queuePacket+2,w
  6583     01B4  00F1               	movwf	i1memcpy@n
  6584     01B5  087C               	movf	??_LIN_queuePacket+3,w
  6585     01B6  00F2               	movwf	i1memcpy@n+1
  6586     01B7  30C5               	movlw	(low ((_LIN_packet| 0+1)))& (0+255)
  6587     01B8  3185  2559  3181   	fcall	i1_memcpy
  6588                           
  6589                           ;mcc_generated_files/LINDrivers/lin_master.c: 92:         } else {
  6590     01BB  29C1               	goto	i1l2008
  6591     01BC                     i1l81:
  6592                           
  6593                           ;mcc_generated_files/LINDrivers/lin_master.c: 93:             LIN_packet.length = 1;
  6594     01BC  0021               	movlb	1	; select bank1
  6595     01BD  01CE               	clrf	(_LIN_packet^(0+128)+10)
  6596     01BE  0ACE               	incf	(_LIN_packet^(0+128)+10),f
  6597     01BF                     i1l2006:
  6598                           
  6599                           ;mcc_generated_files/LINDrivers/lin_master.c: 94:             LIN_packet.data[0] = 0xAA;
  6600     01BF  30AA               	movlw	170
  6601     01C0  00C5               	movwf	(_LIN_packet^(0+128)+1)
  6602     01C1                     i1l2008:
  6603                           
  6604                           ;mcc_generated_files/LINDrivers/lin_master.c: 98:         LIN_packet.checksum = LIN_getC
      +                          hecksum(LIN_packet.length, LIN_packet.PID, LIN_packet.data);
  6605     01C1  0021               	movlb	1	; select bank1
  6606     01C2  0844               	movf	_LIN_packet^(0+128),w
  6607     01C3  00F0               	movwf	i1LIN_getChecksum@pid
  6608     01C4  30C5               	movlw	(low ((_LIN_packet| 0+1)))& (0+255)
  6609     01C5  00F1               	movwf	i1LIN_getChecksum@data
  6610     01C6  084E               	movf	(_LIN_packet^(0+128)+10),w
  6611     01C7  3184  2489  3181   	fcall	i1_LIN_getChecksum
  6612     01CA  0021               	movlb	1	; select bank1
  6613     01CB  00CD               	movwf	(_LIN_packet^(0+128)+9)
  6614                           
  6615                           ;mcc_generated_files/LINDrivers/lin_master.c: 106:     } else {
  6616     01CC  29F2               	goto	i1l2012
  6617     01CD                     i1l2010:
  6618                           
  6619                           ;mcc_generated_files/LINDrivers/lin_master.c: 107:         LIN_rxPacket.rxLength = tempS
      +                          chedule->length;
  6620     01CD  084D               	movf	LIN_queuePacket@tempSchedule+1,w
  6621     01CE  00FA               	movwf	??_LIN_queuePacket+1
  6622     01CF  084C               	movf	LIN_queuePacket@tempSchedule,w
  6623     01D0  00F9               	movwf	??_LIN_queuePacket
  6624     01D1  3002               	movlw	2
  6625     01D2  0779               	addwf	??_LIN_queuePacket,w
  6626     01D3  0084               	movwf	4
  6627     01D4  087A               	movf	??_LIN_queuePacket+1,w
  6628     01D5  1803               	skipnc
  6629     01D6  0A7A               	incf	??_LIN_queuePacket+1,w
  6630     01D7  0085               	movwf	5
  6631     01D8  0800               	movf	0,w	;code access
  6632     01D9  0021               	movlb	1	; select bank1
  6633     01DA  00B9               	movwf	(_LIN_rxPacket^(0+128)+1)
  6634                           
  6635                           ;mcc_generated_files/LINDrivers/lin_master.c: 108:         LIN_rxPacket.cmd = tempSchedu
      +                          le->cmd;
  6636     01DB  0020               	movlb	0	; select bank0
  6637     01DC  084C               	movf	LIN_queuePacket@tempSchedule,w
  6638     01DD  0084               	movwf	4
  6639     01DE  084D               	movf	LIN_queuePacket@tempSchedule+1,w
  6640     01DF  0085               	movwf	5
  6641     01E0  0800               	movf	0,w	;code access
  6642     01E1  0021               	movlb	1	; select bank1
  6643     01E2  00B8               	movwf	_LIN_rxPacket^(0+128)
  6644                           
  6645                           ;mcc_generated_files/LINDrivers/lin_master.c: 109:         LIN_rxPacket.timeout = tempSc
      +                          hedule->timeout;
  6646     01E3  0020               	movlb	0	; select bank0
  6647     01E4  084D               	movf	LIN_queuePacket@tempSchedule+1,w
  6648     01E5  00FA               	movwf	??_LIN_queuePacket+1
  6649     01E6  084C               	movf	LIN_queuePacket@tempSchedule,w
  6650     01E7  00F9               	movwf	??_LIN_queuePacket
  6651     01E8  3003               	movlw	3
  6652     01E9  0779               	addwf	??_LIN_queuePacket,w
  6653     01EA  0084               	movwf	4
  6654     01EB  087A               	movf	??_LIN_queuePacket+1,w
  6655     01EC  1803               	skipnc
  6656     01ED  0A7A               	incf	??_LIN_queuePacket+1,w
  6657     01EE  0085               	movwf	5
  6658     01EF  0800               	movf	0,w	;code access
  6659     01F0  0021               	movlb	1	; select bank1
  6660     01F1  00C3               	movwf	(_LIN_rxPacket^(0+128)+11)
  6661     01F2                     i1l2012:
  6662                           
  6663                           ;mcc_generated_files/LINDrivers/lin_master.c: 112:     LIN_txReady = 1;
  6664     01F2  0020               	movlb	0	; select bank0
  6665     01F3  01C1               	clrf	_LIN_txReady
  6666     01F4  0AC1               	incf	_LIN_txReady,f
  6667     01F5                     i1l84:
  6668     01F5  0008               	return
  6669     01F6                     __end_of_LIN_queuePacket:
  6670                           
  6671                           	psect	text49
  6672     0614                     __ptext49:	
  6673 ;; *************** function i1_memset *****************
  6674 ;; Defined at:
  6675 ;;		line 3 in file "C:\Program Files\Microchip\xc8\v2.46\pic\sources\c99\common\memset.c"
  6676 ;; Parameters:    Size  Location     Type
  6677 ;;  dest            1    wreg     PTR void 
  6678 ;;		 -> LIN_rxPacket(12), LIN_packet(11), 
  6679 ;;  c               2    0[COMMON] int 
  6680 ;;  n               2    2[COMMON] unsigned int 
  6681 ;; Auto vars:     Size  Location     Type
  6682 ;;  dest            1    5[COMMON] PTR void 
  6683 ;;		 -> LIN_rxPacket(12), LIN_packet(11), 
  6684 ;;  p               1    6[COMMON] PTR unsigned char 
  6685 ;;		 -> LIN_rxPacket(12), LIN_packet(11), 
  6686 ;; Return value:  Size  Location     Type
  6687 ;;                  2    0[COMMON] PTR void 
  6688 ;; Registers used:
  6689 ;;		wreg, fsr1l, fsr1h, status,2, status,0
  6690 ;; Tracked objects:
  6691 ;;		On entry : 0/0
  6692 ;;		On exit  : 0/0
  6693 ;;		Unchanged: 0/0
  6694 ;; Data sizes:     COMMON   BANK0   BANK1   BANK2   BANK3   BANK4   BANK5   BANK6
  6695 ;;      Params:         4       0       0       0       0       0       0       0
  6696 ;;      Locals:         2       0       0       0       0       0       0       0
  6697 ;;      Temps:          1       0       0       0       0       0       0       0
  6698 ;;      Totals:         7       0       0       0       0       0       0       0
  6699 ;;Total ram usage:        7 bytes
  6700 ;; Hardware stack levels used: 1
  6701 ;; This function calls:
  6702 ;;		Nothing
  6703 ;; This function is called by:
  6704 ;;		_LIN_queuePacket
  6705 ;; This function uses a non-reentrant model
  6706 ;;
  6707                           
  6708     0614                     i1_memset:	
  6709                           ;psect for function i1_memset
  6710                           
  6711                           
  6712                           ;incstack = 0
  6713                           ; Regs used in i1_memset: [wreg+fsr1l+fsr1h+status,2+status,0]
  6714                           ;i1memset@dest stored from wreg
  6715     0614  00F5               	movwf	i1memset@dest
  6716     0615                     i1l1966:
  6717     0615  0875               	movf	i1memset@dest,w
  6718     0616  00F6               	movwf	i1memset@p
  6719     0617  2E21               	goto	i1l1972
  6720     0618                     i1l1968:
  6721     0618  0876               	movf	i1memset@p,w
  6722     0619  0086               	movwf	6
  6723     061A  0187               	clrf	7
  6724     061B  0870               	movf	i1memset@c,w
  6725     061C  0081               	movwf	1
  6726     061D                     i1l1970:
  6727     061D  3001               	movlw	1
  6728     061E  00F4               	movwf	??i1_memset
  6729     061F  0874               	movf	??i1_memset,w
  6730     0620  07F6               	addwf	i1memset@p,f
  6731     0621                     i1l1972:
  6732     0621  3001               	movlw	1
  6733     0622  02F2               	subwf	i1memset@n,f
  6734     0623  3000               	movlw	0
  6735     0624  3BF3               	subwfb	i1memset@n+1,f
  6736     0625  0A72               	incf	i1memset@n,w
  6737     0626  1D03               	skipz
  6738     0627  2E2C               	goto	u136_21
  6739     0628  0A73               	incf	i1memset@n+1,w
  6740     0629  1D03               	btfss	3,2
  6741     062A  2E2C               	goto	u136_21
  6742     062B  2E2D               	goto	u136_20
  6743     062C                     u136_21:
  6744     062C  2E18               	goto	i1l1968
  6745     062D                     u136_20:
  6746     062D                     i1l1202:
  6747     062D  0008               	return
  6748     062E                     __end_ofi1_memset:
  6749                           
  6750                           	psect	text50
  6751     0559                     __ptext50:	
  6752 ;; *************** function i1_memcpy *****************
  6753 ;; Defined at:
  6754 ;;		line 4 in file "C:\Program Files\Microchip\xc8\v2.46\pic\sources\c99\common\memcpy.c"
  6755 ;; Parameters:    Size  Location     Type
  6756 ;;  d1              1    wreg     PTR void 
  6757 ;;		 -> processLIN@tempRxData(8), LIN_packet(11), 
  6758 ;;  s1              1    0[COMMON] PTR const void 
  6759 ;;		 -> SW_STATE_Data(8), LIN_rxPacket(12), 
  6760 ;;  n               2    1[COMMON] unsigned int 
  6761 ;; Auto vars:     Size  Location     Type
  6762 ;;  d1              1    4[COMMON] PTR void 
  6763 ;;		 -> processLIN@tempRxData(8), LIN_packet(11), 
  6764 ;;  s               1    7[COMMON] PTR const unsigned char 
  6765 ;;		 -> SW_STATE_Data(8), LIN_rxPacket(12), 
  6766 ;;  d               1    6[COMMON] PTR unsigned char 
  6767 ;;		 -> processLIN@tempRxData(8), LIN_packet(11), 
  6768 ;;  tmp             1    5[COMMON] unsigned char 
  6769 ;; Return value:  Size  Location     Type
  6770 ;;                  2    0[COMMON] PTR void 
  6771 ;; Registers used:
  6772 ;;		wreg, fsr1l, fsr1h, status,2, status,0
  6773 ;; Tracked objects:
  6774 ;;		On entry : 0/0
  6775 ;;		On exit  : 0/0
  6776 ;;		Unchanged: 0/0
  6777 ;; Data sizes:     COMMON   BANK0   BANK1   BANK2   BANK3   BANK4   BANK5   BANK6
  6778 ;;      Params:         3       0       0       0       0       0       0       0
  6779 ;;      Locals:         4       0       0       0       0       0       0       0
  6780 ;;      Temps:          1       0       0       0       0       0       0       0
  6781 ;;      Totals:         8       0       0       0       0       0       0       0
  6782 ;;Total ram usage:        8 bytes
  6783 ;; Hardware stack levels used: 1
  6784 ;; This function calls:
  6785 ;;		Nothing
  6786 ;; This function is called by:
  6787 ;;		_LIN_queuePacket
  6788 ;; This function uses a non-reentrant model
  6789 ;;
  6790                           
  6791     0559                     i1_memcpy:	
  6792                           ;psect for function i1_memcpy
  6793                           
  6794                           
  6795                           ;incstack = 0
  6796                           ; Regs used in i1_memcpy: [wreg+fsr1l+fsr1h+status,2+status,0]
  6797                           ;i1memcpy@d1 stored from wreg
  6798     0559  00F4               	movwf	i1memcpy@d1
  6799     055A                     i1l1958:
  6800     055A  0870               	movf	i1memcpy@s1,w
  6801     055B  00F7               	movwf	i1memcpy@s
  6802     055C  0874               	movf	i1memcpy@d1,w
  6803     055D  00F6               	movwf	i1memcpy@d
  6804     055E  2D71               	goto	i1l1193
  6805     055F                     i1l1960:
  6806     055F  0877               	movf	i1memcpy@s,w
  6807     0560  0086               	movwf	6
  6808     0561  0187               	clrf	7
  6809     0562  0801               	movf	1,w
  6810     0563  00F5               	movwf	i1memcpy@tmp
  6811     0564                     i1l1962:
  6812     0564  3001               	movlw	1
  6813     0565  00F3               	movwf	??i1_memcpy
  6814     0566  0873               	movf	??i1_memcpy,w
  6815     0567  07F7               	addwf	i1memcpy@s,f
  6816     0568                     i1l1964:
  6817     0568  0876               	movf	i1memcpy@d,w
  6818     0569  0086               	movwf	6
  6819     056A  0187               	clrf	7
  6820     056B  0875               	movf	i1memcpy@tmp,w
  6821     056C  0081               	movwf	1
  6822     056D  3001               	movlw	1
  6823     056E  00F3               	movwf	??i1_memcpy
  6824     056F  0873               	movf	??i1_memcpy,w
  6825     0570  07F6               	addwf	i1memcpy@d,f
  6826     0571                     i1l1193:
  6827     0571  3001               	movlw	1
  6828     0572  02F1               	subwf	i1memcpy@n,f
  6829     0573  3000               	movlw	0
  6830     0574  3BF2               	subwfb	i1memcpy@n+1,f
  6831     0575  0A71               	incf	i1memcpy@n,w
  6832     0576  1D03               	skipz
  6833     0577  2D7C               	goto	u135_21
  6834     0578  0A72               	incf	i1memcpy@n+1,w
  6835     0579  1D03               	btfss	3,2
  6836     057A  2D7C               	goto	u135_21
  6837     057B  2D7D               	goto	u135_20
  6838     057C                     u135_21:
  6839     057C  2D5F               	goto	i1l1960
  6840     057D                     u135_20:
  6841     057D                     i1l1196:
  6842     057D  0008               	return
  6843     057E                     __end_ofi1_memcpy:
  6844                           
  6845                           	psect	text51
  6846     0489                     __ptext51:	
  6847 ;; *************** function i1_LIN_getChecksum *****************
  6848 ;; Defined at:
  6849 ;;		line 236 in file "mcc_generated_files/LINDrivers/lin_master.c"
  6850 ;; Parameters:    Size  Location     Type
  6851 ;;  length          1    wreg     unsigned char 
  6852 ;;  pid             1    0[COMMON] unsigned char 
  6853 ;;  data            1    1[COMMON] PTR unsigned char 
  6854 ;;		 -> LIN_rxPacket(12), LIN_packet(11), 
  6855 ;; Auto vars:     Size  Location     Type
  6856 ;;  length          1    4[COMMON] unsigned char 
  6857 ;;  checksum        2    6[COMMON] unsigned short 
  6858 ;;  i               1    5[COMMON] unsigned char 
  6859 ;; Return value:  Size  Location     Type
  6860 ;;                  1    wreg      unsigned char 
  6861 ;; Registers used:
  6862 ;;		wreg, fsr1l, fsr1h, status,2, status,0
  6863 ;; Tracked objects:
  6864 ;;		On entry : 0/0
  6865 ;;		On exit  : 0/0
  6866 ;;		Unchanged: 0/0
  6867 ;; Data sizes:     COMMON   BANK0   BANK1   BANK2   BANK3   BANK4   BANK5   BANK6
  6868 ;;      Params:         2       0       0       0       0       0       0       0
  6869 ;;      Locals:         4       0       0       0       0       0       0       0
  6870 ;;      Temps:          2       0       0       0       0       0       0       0
  6871 ;;      Totals:         8       0       0       0       0       0       0       0
  6872 ;;Total ram usage:        8 bytes
  6873 ;; Hardware stack levels used: 1
  6874 ;; This function calls:
  6875 ;;		Nothing
  6876 ;; This function is called by:
  6877 ;;		_LIN_queuePacket
  6878 ;; This function uses a non-reentrant model
  6879 ;;
  6880                           
  6881     0489                     i1_LIN_getChecksum:	
  6882                           ;psect for function i1_LIN_getChecksum
  6883                           
  6884                           
  6885                           ;incstack = 0
  6886                           ; Regs used in i1_LIN_getChecksum: [wreg+fsr1l+fsr1h+status,2+status,0]
  6887                           ;i1LIN_getChecksum@length stored from wreg
  6888     0489  00F4               	movwf	i1LIN_getChecksum@length
  6889     048A                     i1l1938:
  6890                           
  6891                           ;mcc_generated_files/LINDrivers/lin_master.c: 237:     uint16_t checksum = pid;
  6892     048A  0870               	movf	i1LIN_getChecksum@pid,w
  6893     048B  00F2               	movwf	??i1_LIN_getChecksum
  6894     048C  01F3               	clrf	??i1_LIN_getChecksum+1
  6895     048D  0872               	movf	??i1_LIN_getChecksum,w
  6896     048E  00F6               	movwf	i1LIN_getChecksum@checksum
  6897     048F  0873               	movf	??i1_LIN_getChecksum+1,w
  6898     0490  00F7               	movwf	i1LIN_getChecksum@checksum+1
  6899     0491                     i1l1940:
  6900                           
  6901                           ;mcc_generated_files/LINDrivers/lin_master.c: 239:     for (uint8_t i = 0; i < length; i
      +                          ++){
  6902     0491  01F5               	clrf	i1LIN_getChecksum@i
  6903     0492  2CB2               	goto	i1l1952
  6904     0493                     i1l1942:
  6905                           
  6906                           ;mcc_generated_files/LINDrivers/lin_master.c: 240:         checksum = checksum + *data++
      +                          ;
  6907     0493  0871               	movf	i1LIN_getChecksum@data,w
  6908     0494  0086               	movwf	6
  6909     0495  0187               	clrf	7
  6910     0496  0801               	movf	1,w
  6911     0497  0776               	addwf	i1LIN_getChecksum@checksum,w
  6912     0498  00F6               	movwf	i1LIN_getChecksum@checksum
  6913     0499  0877               	movf	i1LIN_getChecksum@checksum+1,w
  6914     049A  1803               	skipnc
  6915     049B  0A77               	incf	i1LIN_getChecksum@checksum+1,w
  6916     049C  00F7               	movwf	i1LIN_getChecksum@checksum+1
  6917     049D                     i1l1944:
  6918     049D  3001               	movlw	1
  6919     049E  00F2               	movwf	??i1_LIN_getChecksum
  6920     049F  0872               	movf	??i1_LIN_getChecksum,w
  6921     04A0  07F1               	addwf	i1LIN_getChecksum@data,f
  6922     04A1                     i1l1946:
  6923                           
  6924                           ;mcc_generated_files/LINDrivers/lin_master.c: 241:         if(checksum > 0xFF)
  6925     04A1  3001               	movlw	1
  6926     04A2  0277               	subwf	i1LIN_getChecksum@checksum+1,w
  6927     04A3  3000               	movlw	0
  6928     04A4  1903               	skipnz
  6929     04A5  0276               	subwf	i1LIN_getChecksum@checksum,w
  6930     04A6  1C03               	skipc
  6931     04A7  2CA9               	goto	u133_21
  6932     04A8  2CAA               	goto	u133_20
  6933     04A9                     u133_21:
  6934     04A9  2CAE               	goto	i1l1950
  6935     04AA                     u133_20:
  6936     04AA                     i1l1948:
  6937                           
  6938                           ;mcc_generated_files/LINDrivers/lin_master.c: 242:             checksum -= 0xFF;
  6939     04AA  30FF               	movlw	255
  6940     04AB  02F6               	subwf	i1LIN_getChecksum@checksum,f
  6941     04AC  3000               	movlw	0
  6942     04AD  3BF7               	subwfb	i1LIN_getChecksum@checksum+1,f
  6943     04AE                     i1l1950:
  6944                           
  6945                           ;mcc_generated_files/LINDrivers/lin_master.c: 243:     }
  6946     04AE  3001               	movlw	1
  6947     04AF  00F2               	movwf	??i1_LIN_getChecksum
  6948     04B0  0872               	movf	??i1_LIN_getChecksum,w
  6949     04B1  07F5               	addwf	i1LIN_getChecksum@i,f
  6950     04B2                     i1l1952:
  6951     04B2  0874               	movf	i1LIN_getChecksum@length,w
  6952     04B3  0275               	subwf	i1LIN_getChecksum@i,w
  6953     04B4  1C03               	skipc
  6954     04B5  2CB7               	goto	u134_21
  6955     04B6  2CB8               	goto	u134_20
  6956     04B7                     u134_21:
  6957     04B7  2C93               	goto	i1l1942
  6958     04B8                     u134_20:
  6959     04B8                     i1l132:
  6960                           
  6961                           ;mcc_generated_files/LINDrivers/lin_master.c: 244:     checksum = ~checksum;
  6962     04B8  09F6               	comf	i1LIN_getChecksum@checksum,f
  6963     04B9  09F7               	comf	i1LIN_getChecksum@checksum+1,f
  6964     04BA                     i1l1954:
  6965                           
  6966                           ;mcc_generated_files/LINDrivers/lin_master.c: 246:     return (uint8_t)checksum;
  6967     04BA  0876               	movf	i1LIN_getChecksum@checksum,w
  6968     04BB                     i1l133:
  6969     04BB  0008               	return
  6970     04BC                     __end_ofi1_LIN_getChecksum:
  6971                           
  6972                           	psect	text52
  6973     01F6                     __ptext52:	
  6974 ;; *************** function _LIN_calcParity *****************
  6975 ;; Defined at:
  6976 ;;		line 218 in file "mcc_generated_files/LINDrivers/lin_master.c"
  6977 ;; Parameters:    Size  Location     Type
  6978 ;;  CMD             1    wreg     unsigned char 
  6979 ;; Auto vars:     Size  Location     Type
  6980 ;;  CMD             1    1[COMMON] unsigned char 
  6981 ;;  PID             1    2[COMMON] struct .
  6982 ;; Return value:  Size  Location     Type
  6983 ;;                  1    wreg      unsigned char 
  6984 ;; Registers used:
  6985 ;;		wreg, status,0
  6986 ;; Tracked objects:
  6987 ;;		On entry : 0/0
  6988 ;;		On exit  : 0/0
  6989 ;;		Unchanged: 0/0
  6990 ;; Data sizes:     COMMON   BANK0   BANK1   BANK2   BANK3   BANK4   BANK5   BANK6
  6991 ;;      Params:         0       0       0       0       0       0       0       0
  6992 ;;      Locals:         2       0       0       0       0       0       0       0
  6993 ;;      Temps:          1       0       0       0       0       0       0       0
  6994 ;;      Totals:         3       0       0       0       0       0       0       0
  6995 ;;Total ram usage:        3 bytes
  6996 ;; Hardware stack levels used: 1
  6997 ;; This function calls:
  6998 ;;		Nothing
  6999 ;; This function is called by:
  7000 ;;		_LIN_queuePacket
  7001 ;; This function uses a non-reentrant model
  7002 ;;
  7003                           
  7004     01F6                     _LIN_calcParity:	
  7005                           ;psect for function _LIN_calcParity
  7006                           
  7007                           
  7008                           ;incstack = 0
  7009                           ; Regs used in _LIN_calcParity: [wreg+status,0]
  7010                           ;LIN_calcParity@CMD stored from wreg
  7011     01F6  00F1               	movwf	LIN_calcParity@CMD
  7012     01F7                     i1l1928:
  7013                           
  7014                           ;mcc_generated_files/LINDrivers/lin_master.c: 219:     lin_pid_t PID;;mcc_generated_file
      +                          s/LINDrivers/lin_master.c: 220:     PID.rawPID = CMD;
  7015     01F7  0871               	movf	LIN_calcParity@CMD,w
  7016     01F8  00F2               	movwf	LIN_calcParity@PID
  7017                           
  7018                           ;mcc_generated_files/LINDrivers/lin_master.c: 225:     PID.P0 = PID.ID0 ^ PID.ID1;
  7019     01F9  18F2               	btfsc	LIN_calcParity@PID,1
  7020     01FA  29FC               	goto	u107_21
  7021     01FB  29FE               	goto	u107_20
  7022     01FC                     u107_21:
  7023     01FC  3001               	movlw	1
  7024     01FD  29FF               	goto	u107_22
  7025     01FE                     u107_20:
  7026     01FE  3000               	movlw	0
  7027     01FF                     u107_22:
  7028     01FF  00F0               	movwf	??_LIN_calcParity
  7029     0200  1872               	btfsc	LIN_calcParity@PID,0
  7030     0201  2A03               	goto	u108_21
  7031     0202  2A05               	goto	u108_20
  7032     0203                     u108_21:
  7033     0203  3001               	movlw	1
  7034     0204  2A06               	goto	u108_22
  7035     0205                     u108_20:
  7036     0205  3000               	movlw	0
  7037     0206                     u108_22:
  7038     0206  0670               	xorwf	??_LIN_calcParity,w
  7039     0207  1D03               	skipz
  7040     0208  2A0A               	goto	u109_21
  7041     0209  2A0C               	goto	u109_20
  7042     020A                     u109_21:
  7043     020A  1772               	bsf	LIN_calcParity@PID,6
  7044     020B  2A0D               	goto	u110_24
  7045     020C                     u109_20:
  7046     020C  1372               	bcf	LIN_calcParity@PID,6
  7047     020D                     u110_24:
  7048                           
  7049                           ;mcc_generated_files/LINDrivers/lin_master.c: 226:     PID.P0 = PID.P0 ^ PID.ID2;
  7050     020D  1972               	btfsc	LIN_calcParity@PID,2
  7051     020E  2A10               	goto	u111_21
  7052     020F  2A12               	goto	u111_20
  7053     0210                     u111_21:
  7054     0210  3001               	movlw	1
  7055     0211  2A13               	goto	u111_22
  7056     0212                     u111_20:
  7057     0212  3000               	movlw	0
  7058     0213                     u111_22:
  7059     0213  00F0               	movwf	??_LIN_calcParity
  7060     0214  1B72               	btfsc	LIN_calcParity@PID,6
  7061     0215  2A17               	goto	u112_21
  7062     0216  2A19               	goto	u112_20
  7063     0217                     u112_21:
  7064     0217  3001               	movlw	1
  7065     0218  2A1A               	goto	u112_22
  7066     0219                     u112_20:
  7067     0219  3000               	movlw	0
  7068     021A                     u112_22:
  7069     021A  0670               	xorwf	??_LIN_calcParity,w
  7070     021B  1D03               	skipz
  7071     021C  2A1E               	goto	u113_21
  7072     021D  2A20               	goto	u113_20
  7073     021E                     u113_21:
  7074     021E  1772               	bsf	LIN_calcParity@PID,6
  7075     021F  2A21               	goto	u114_24
  7076     0220                     u113_20:
  7077     0220  1372               	bcf	LIN_calcParity@PID,6
  7078     0221                     u114_24:
  7079                           
  7080                           ;mcc_generated_files/LINDrivers/lin_master.c: 227:     PID.P0 = PID.P0 ^ PID.ID4;
  7081     0221  1A72               	btfsc	LIN_calcParity@PID,4
  7082     0222  2A24               	goto	u115_21
  7083     0223  2A26               	goto	u115_20
  7084     0224                     u115_21:
  7085     0224  3001               	movlw	1
  7086     0225  2A27               	goto	u115_22
  7087     0226                     u115_20:
  7088     0226  3000               	movlw	0
  7089     0227                     u115_22:
  7090     0227  00F0               	movwf	??_LIN_calcParity
  7091     0228  1B72               	btfsc	LIN_calcParity@PID,6
  7092     0229  2A2B               	goto	u116_21
  7093     022A  2A2D               	goto	u116_20
  7094     022B                     u116_21:
  7095     022B  3001               	movlw	1
  7096     022C  2A2E               	goto	u116_22
  7097     022D                     u116_20:
  7098     022D  3000               	movlw	0
  7099     022E                     u116_22:
  7100     022E  0670               	xorwf	??_LIN_calcParity,w
  7101     022F  1D03               	skipz
  7102     0230  2A32               	goto	u117_21
  7103     0231  2A34               	goto	u117_20
  7104     0232                     u117_21:
  7105     0232  1772               	bsf	LIN_calcParity@PID,6
  7106     0233  2A35               	goto	u118_24
  7107     0234                     u117_20:
  7108     0234  1372               	bcf	LIN_calcParity@PID,6
  7109     0235                     u118_24:
  7110                           
  7111                           ;mcc_generated_files/LINDrivers/lin_master.c: 228:     PID.P1 = PID.ID1 ^ PID.ID3;
  7112     0235  19F2               	btfsc	LIN_calcParity@PID,3
  7113     0236  2A38               	goto	u119_21
  7114     0237  2A3A               	goto	u119_20
  7115     0238                     u119_21:
  7116     0238  3001               	movlw	1
  7117     0239  2A3B               	goto	u119_22
  7118     023A                     u119_20:
  7119     023A  3000               	movlw	0
  7120     023B                     u119_22:
  7121     023B  00F0               	movwf	??_LIN_calcParity
  7122     023C  18F2               	btfsc	LIN_calcParity@PID,1
  7123     023D  2A3F               	goto	u120_21
  7124     023E  2A41               	goto	u120_20
  7125     023F                     u120_21:
  7126     023F  3001               	movlw	1
  7127     0240  2A42               	goto	u120_22
  7128     0241                     u120_20:
  7129     0241  3000               	movlw	0
  7130     0242                     u120_22:
  7131     0242  0670               	xorwf	??_LIN_calcParity,w
  7132     0243  1D03               	skipz
  7133     0244  2A46               	goto	u121_21
  7134     0245  2A48               	goto	u121_20
  7135     0246                     u121_21:
  7136     0246  17F2               	bsf	LIN_calcParity@PID,7
  7137     0247  2A49               	goto	u122_24
  7138     0248                     u121_20:
  7139     0248  13F2               	bcf	LIN_calcParity@PID,7
  7140     0249                     u122_24:
  7141                           
  7142                           ;mcc_generated_files/LINDrivers/lin_master.c: 229:     PID.P1 = PID.P1 ^ PID.ID4;
  7143     0249  1A72               	btfsc	LIN_calcParity@PID,4
  7144     024A  2A4C               	goto	u123_21
  7145     024B  2A4E               	goto	u123_20
  7146     024C                     u123_21:
  7147     024C  3001               	movlw	1
  7148     024D  2A4F               	goto	u123_22
  7149     024E                     u123_20:
  7150     024E  3000               	movlw	0
  7151     024F                     u123_22:
  7152     024F  00F0               	movwf	??_LIN_calcParity
  7153     0250  1BF2               	btfsc	LIN_calcParity@PID,7
  7154     0251  2A53               	goto	u124_21
  7155     0252  2A55               	goto	u124_20
  7156     0253                     u124_21:
  7157     0253  3001               	movlw	1
  7158     0254  2A56               	goto	u124_22
  7159     0255                     u124_20:
  7160     0255  3000               	movlw	0
  7161     0256                     u124_22:
  7162     0256  0670               	xorwf	??_LIN_calcParity,w
  7163     0257  1D03               	skipz
  7164     0258  2A5A               	goto	u125_21
  7165     0259  2A5C               	goto	u125_20
  7166     025A                     u125_21:
  7167     025A  17F2               	bsf	LIN_calcParity@PID,7
  7168     025B  2A5D               	goto	u126_24
  7169     025C                     u125_20:
  7170     025C  13F2               	bcf	LIN_calcParity@PID,7
  7171     025D                     u126_24:
  7172                           
  7173                           ;mcc_generated_files/LINDrivers/lin_master.c: 230:     PID.P1 = PID.P1 ^ PID.ID5;
  7174     025D  1AF2               	btfsc	LIN_calcParity@PID,5
  7175     025E  2A60               	goto	u127_21
  7176     025F  2A62               	goto	u127_20
  7177     0260                     u127_21:
  7178     0260  3001               	movlw	1
  7179     0261  2A63               	goto	u127_22
  7180     0262                     u127_20:
  7181     0262  3000               	movlw	0
  7182     0263                     u127_22:
  7183     0263  00F0               	movwf	??_LIN_calcParity
  7184     0264  1BF2               	btfsc	LIN_calcParity@PID,7
  7185     0265  2A67               	goto	u128_21
  7186     0266  2A69               	goto	u128_20
  7187     0267                     u128_21:
  7188     0267  3001               	movlw	1
  7189     0268  2A6A               	goto	u128_22
  7190     0269                     u128_20:
  7191     0269  3000               	movlw	0
  7192     026A                     u128_22:
  7193     026A  0670               	xorwf	??_LIN_calcParity,w
  7194     026B  1D03               	skipz
  7195     026C  2A6E               	goto	u129_21
  7196     026D  2A70               	goto	u129_20
  7197     026E                     u129_21:
  7198     026E  17F2               	bsf	LIN_calcParity@PID,7
  7199     026F  2A71               	goto	u130_24
  7200     0270                     u129_20:
  7201     0270  13F2               	bcf	LIN_calcParity@PID,7
  7202     0271                     u130_24:
  7203     0271                     i1l1930:
  7204                           
  7205                           ;mcc_generated_files/LINDrivers/lin_master.c: 231:     PID.P1 = ~PID.P1;
  7206     0271  1003               	clrc
  7207     0272  1FF2               	btfss	LIN_calcParity@PID,7
  7208     0273  1403               	setc
  7209     0274  1803               	btfsc	3,0
  7210     0275  2A77               	goto	u131_21
  7211     0276  2A79               	goto	u131_20
  7212     0277                     u131_21:
  7213     0277  17F2               	bsf	LIN_calcParity@PID,7
  7214     0278  2A7A               	goto	u132_24
  7215     0279                     u131_20:
  7216     0279  13F2               	bcf	LIN_calcParity@PID,7
  7217     027A                     u132_24:
  7218     027A                     i1l1932:
  7219                           
  7220                           ;mcc_generated_files/LINDrivers/lin_master.c: 233:     return PID.rawPID;
  7221     027A  0872               	movf	LIN_calcParity@PID,w
  7222     027B                     i1l126:
  7223     027B  0008               	return
  7224     027C                     __end_of_LIN_calcParity:
  7225                           
  7226                           	psect	text53
  7227     057E                     __ptext53:	
  7228 ;; *************** function _EUSART_Transmit_ISR *****************
  7229 ;; Defined at:
  7230 ;;		line 197 in file "mcc_generated_files/eusart.c"
  7231 ;; Parameters:    Size  Location     Type
  7232 ;;		None
  7233 ;; Auto vars:     Size  Location     Type
  7234 ;;		None
  7235 ;; Return value:  Size  Location     Type
  7236 ;;                  1    wreg      void 
  7237 ;; Registers used:
  7238 ;;		wreg, fsr1l, fsr1h, status,2, status,0
  7239 ;; Tracked objects:
  7240 ;;		On entry : 0/0
  7241 ;;		On exit  : 0/0
  7242 ;;		Unchanged: 0/0
  7243 ;; Data sizes:     COMMON   BANK0   BANK1   BANK2   BANK3   BANK4   BANK5   BANK6
  7244 ;;      Params:         0       0       0       0       0       0       0       0
  7245 ;;      Locals:         0       0       0       0       0       0       0       0
  7246 ;;      Temps:          1       0       0       0       0       0       0       0
  7247 ;;      Totals:         1       0       0       0       0       0       0       0
  7248 ;;Total ram usage:        1 bytes
  7249 ;; Hardware stack levels used: 1
  7250 ;; This function calls:
  7251 ;;		Nothing
  7252 ;; This function is called by:
  7253 ;;		_EUSART_Initialize
  7254 ;;		_INTERRUPT_InterruptManager
  7255 ;; This function uses a non-reentrant model
  7256 ;;
  7257                           
  7258     057E                     _EUSART_Transmit_ISR:	
  7259                           ;psect for function _EUSART_Transmit_ISR
  7260                           
  7261     057E                     i1l2378:	
  7262                           ;incstack = 0
  7263                           ; Regs used in _EUSART_Transmit_ISR: [wreg+fsr1l+fsr1h+status,2+status,0]
  7264                           
  7265                           
  7266                           ;mcc_generated_files/eusart.c: 201:     if(sizeof(eusartTxBuffer) > eusartTxBufferRemain
      +                          ing)
  7267     057E  3008               	movlw	8
  7268     057F  0020               	movlb	0	; select bank0
  7269     0580  0235               	subwf	_eusartTxBufferRemaining,w	;volatile
  7270     0581  1803               	skipnc
  7271     0582  2D84               	goto	u176_21
  7272     0583  2D85               	goto	u176_20
  7273     0584                     u176_21:
  7274     0584  2D9D               	goto	i1l299
  7275     0585                     u176_20:
  7276     0585                     i1l2380:
  7277                           
  7278                           ;mcc_generated_files/eusart.c: 202:     {;mcc_generated_files/eusart.c: 203:         TXR
      +                          EG = eusartTxBuffer[eusartTxTail++];
  7279     0585  0836               	movf	_eusartTxTail,w
  7280     0586  3EB0               	addlw	(low (_eusartTxBuffer| 0))& (0+255)
  7281     0587  0086               	movwf	6
  7282     0588  0187               	clrf	7
  7283     0589  0801               	movf	1,w
  7284     058A  0023               	movlb	3	; select bank3
  7285     058B  009A               	movwf	26	;volatile
  7286     058C                     i1l2382:
  7287     058C  3001               	movlw	1
  7288     058D  00F0               	movwf	??_EUSART_Transmit_ISR
  7289     058E  0870               	movf	??_EUSART_Transmit_ISR,w
  7290     058F  0020               	movlb	0	; select bank0
  7291     0590  07B6               	addwf	_eusartTxTail,f	;volatile
  7292     0591                     i1l2384:
  7293                           
  7294                           ;mcc_generated_files/eusart.c: 204:         if(sizeof(eusartTxBuffer) <= eusartTxTail)
  7295     0591  3008               	movlw	8
  7296     0592  0236               	subwf	_eusartTxTail,w	;volatile
  7297     0593  1C03               	skipc
  7298     0594  2D96               	goto	u177_21
  7299     0595  2D97               	goto	u177_20
  7300     0596                     u177_21:
  7301     0596  2D98               	goto	i1l2388
  7302     0597                     u177_20:
  7303     0597                     i1l2386:
  7304                           
  7305                           ;mcc_generated_files/eusart.c: 205:         {;mcc_generated_files/eusart.c: 206:        
      +                               eusartTxTail = 0;
  7306     0597  01B6               	clrf	_eusartTxTail	;volatile
  7307     0598                     i1l2388:
  7308                           
  7309                           ;mcc_generated_files/eusart.c: 208:         eusartTxBufferRemaining++;
  7310     0598  3001               	movlw	1
  7311     0599  00F0               	movwf	??_EUSART_Transmit_ISR
  7312     059A  0870               	movf	??_EUSART_Transmit_ISR,w
  7313     059B  07B5               	addwf	_eusartTxBufferRemaining,f	;volatile
  7314                           
  7315                           ;mcc_generated_files/eusart.c: 209:     }
  7316     059C  2D9F               	goto	i1l302
  7317     059D                     i1l299:	
  7318                           ;mcc_generated_files/eusart.c: 210:     else
  7319                           
  7320                           
  7321                           ;mcc_generated_files/eusart.c: 211:     {;mcc_generated_files/eusart.c: 212:         PIE
      +                          1bits.TXIE = 0;
  7322     059D  0021               	movlb	1	; select bank1
  7323     059E  1211               	bcf	17,4	;volatile
  7324     059F                     i1l302:
  7325     059F  0008               	return
  7326     05A0                     __end_of_EUSART_Transmit_ISR:
  7327                           
  7328                           	psect	text54
  7329     03B3                     __ptext54:	
  7330 ;; *************** function _EUSART_Receive_ISR *****************
  7331 ;; Defined at:
  7332 ;;		line 216 in file "mcc_generated_files/eusart.c"
  7333 ;; Parameters:    Size  Location     Type
  7334 ;;		None
  7335 ;; Auto vars:     Size  Location     Type
  7336 ;;		None
  7337 ;; Return value:  Size  Location     Type
  7338 ;;                  1    wreg      void 
  7339 ;; Registers used:
  7340 ;;		wreg, fsr1l, fsr1h, status,2, status,0, pclath, cstack
  7341 ;; Tracked objects:
  7342 ;;		On entry : 0/0
  7343 ;;		On exit  : 0/0
  7344 ;;		Unchanged: 0/0
  7345 ;; Data sizes:     COMMON   BANK0   BANK1   BANK2   BANK3   BANK4   BANK5   BANK6
  7346 ;;      Params:         0       0       0       0       0       0       0       0
  7347 ;;      Locals:         0       0       0       0       0       0       0       0
  7348 ;;      Temps:          0       0       0       0       0       0       0       0
  7349 ;;      Totals:         0       0       0       0       0       0       0       0
  7350 ;;Total ram usage:        0 bytes
  7351 ;; Hardware stack levels used: 1
  7352 ;; Hardware stack levels required when called: 2
  7353 ;; This function calls:
  7354 ;;		NULL
  7355 ;;		_EUSART_DefaultErrorHandler
  7356 ;;		_EUSART_DefaultFramingErrorHandler
  7357 ;;		_EUSART_DefaultOverrunErrorHandler
  7358 ;;		_EUSART_RxDataHandler
  7359 ;; This function is called by:
  7360 ;;		_EUSART_Initialize
  7361 ;;		_INTERRUPT_InterruptManager
  7362 ;; This function uses a non-reentrant model
  7363 ;;
  7364                           
  7365     03B3                     _EUSART_Receive_ISR:	
  7366                           ;psect for function _EUSART_Receive_ISR
  7367                           
  7368     03B3                     i1l2390:	
  7369                           ;incstack = 0
  7370                           ; Regs used in _EUSART_Receive_ISR: [wreg+fsr1l+fsr1h+status,2+status,0+pclath+cstack]
  7371                           
  7372                           
  7373                           ;mcc_generated_files/eusart.c: 219:     eusartRxStatusBuffer[eusartRxHead].status = 0;
  7374     03B3  0020               	movlb	0	; select bank0
  7375     03B4  0834               	movf	_eusartRxHead,w	;volatile
  7376     03B5  3EA0               	addlw	(low (_eusartRxStatusBuffer| 0))& (0+255)
  7377     03B6  0086               	movwf	6
  7378     03B7  0187               	clrf	7
  7379     03B8  0181               	clrf	1
  7380     03B9                     i1l2392:
  7381                           
  7382                           ;mcc_generated_files/eusart.c: 221:     if(RCSTAbits.FERR){
  7383     03B9  0023               	movlb	3	; select bank3
  7384     03BA  1D1D               	btfss	29,2	;volatile
  7385     03BB  2BBD               	goto	u178_21
  7386     03BC  2BBE               	goto	u178_20
  7387     03BD                     u178_21:
  7388     03BD  2BC9               	goto	i1l2398
  7389     03BE                     u178_20:
  7390     03BE                     i1l2394:
  7391                           
  7392                           ;mcc_generated_files/eusart.c: 222:         eusartRxStatusBuffer[eusartRxHead].ferr = 1;
  7393     03BE  0020               	movlb	0	; select bank0
  7394     03BF  0834               	movf	_eusartRxHead,w	;volatile
  7395     03C0  3EA0               	addlw	(low (_eusartRxStatusBuffer| 0))& (0+255)
  7396     03C1  0086               	movwf	6
  7397     03C2  0187               	clrf	7
  7398     03C3  1481               	bsf	1,1
  7399     03C4                     i1l2396:
  7400                           
  7401                           ;mcc_generated_files/eusart.c: 223:         EUSART_FramingErrorHandler();
  7402     03C4  0827               	movf	_EUSART_FramingErrorHandler+1,w
  7403     03C5  008A               	movwf	10
  7404     03C6  0826               	movf	_EUSART_FramingErrorHandler,w
  7405     03C7  000A               	callw
  7406     03C8  3183               	pagesel	$
  7407     03C9                     i1l2398:
  7408                           
  7409                           ;mcc_generated_files/eusart.c: 226:     if(RCSTAbits.OERR){
  7410     03C9  0023               	movlb	3	; select bank3
  7411     03CA  1C9D               	btfss	29,1	;volatile
  7412     03CB  2BCD               	goto	u179_21
  7413     03CC  2BCE               	goto	u179_20
  7414     03CD                     u179_21:
  7415     03CD  2BD9               	goto	i1l2404
  7416     03CE                     u179_20:
  7417     03CE                     i1l2400:
  7418                           
  7419                           ;mcc_generated_files/eusart.c: 227:         eusartRxStatusBuffer[eusartRxHead].oerr = 1;
  7420     03CE  0020               	movlb	0	; select bank0
  7421     03CF  0834               	movf	_eusartRxHead,w	;volatile
  7422     03D0  3EA0               	addlw	(low (_eusartRxStatusBuffer| 0))& (0+255)
  7423     03D1  0086               	movwf	6
  7424     03D2  0187               	clrf	7
  7425     03D3  1501               	bsf	1,2
  7426     03D4                     i1l2402:
  7427                           
  7428                           ;mcc_generated_files/eusart.c: 228:         EUSART_OverrunErrorHandler();
  7429     03D4  0825               	movf	_EUSART_OverrunErrorHandler+1,w
  7430     03D5  008A               	movwf	10
  7431     03D6  0824               	movf	_EUSART_OverrunErrorHandler,w
  7432     03D7  000A               	callw
  7433     03D8  3183               	pagesel	$
  7434     03D9                     i1l2404:
  7435                           
  7436                           ;mcc_generated_files/eusart.c: 231:     if(eusartRxStatusBuffer[eusartRxHead].status){
  7437     03D9  0020               	movlb	0	; select bank0
  7438     03DA  0834               	movf	_eusartRxHead,w	;volatile
  7439     03DB  3EA0               	addlw	(low (_eusartRxStatusBuffer| 0))& (0+255)
  7440     03DC  0086               	movwf	6
  7441     03DD  0187               	clrf	7
  7442     03DE  0801               	movf	1,w
  7443     03DF  1903               	btfsc	3,2
  7444     03E0  2BE2               	goto	u180_21
  7445     03E1  2BE3               	goto	u180_20
  7446     03E2                     u180_21:
  7447     03E2  2BE9               	goto	i1l2408
  7448     03E3                     u180_20:
  7449     03E3                     i1l2406:
  7450                           
  7451                           ;mcc_generated_files/eusart.c: 232:         EUSART_ErrorHandler();
  7452     03E3  0823               	movf	_EUSART_ErrorHandler+1,w
  7453     03E4  008A               	movwf	10
  7454     03E5  0822               	movf	_EUSART_ErrorHandler,w
  7455     03E6  000A               	callw
  7456     03E7  3183               	pagesel	$
  7457                           
  7458                           ;mcc_generated_files/eusart.c: 233:     } else {
  7459     03E8  2BEC               	goto	i1l309
  7460     03E9                     i1l2408:
  7461                           
  7462                           ;mcc_generated_files/eusart.c: 234:         EUSART_RxDataHandler();
  7463     03E9  3186  262E  3183   	fcall	_EUSART_RxDataHandler
  7464     03EC                     i1l309:
  7465     03EC  0008               	return
  7466     03ED                     __end_of_EUSART_Receive_ISR:
  7467                           
  7468                           	psect	text55
  7469     072C                     __ptext55:	
  7470 ;; *************** function _EUSART_DefaultOverrunErrorHandler *****************
  7471 ;; Defined at:
  7472 ;;		line 252 in file "mcc_generated_files/eusart.c"
  7473 ;; Parameters:    Size  Location     Type
  7474 ;;		None
  7475 ;; Auto vars:     Size  Location     Type
  7476 ;;		None
  7477 ;; Return value:  Size  Location     Type
  7478 ;;                  1    wreg      void 
  7479 ;; Registers used:
  7480 ;;		None
  7481 ;; Tracked objects:
  7482 ;;		On entry : 0/0
  7483 ;;		On exit  : 0/0
  7484 ;;		Unchanged: 0/0
  7485 ;; Data sizes:     COMMON   BANK0   BANK1   BANK2   BANK3   BANK4   BANK5   BANK6
  7486 ;;      Params:         0       0       0       0       0       0       0       0
  7487 ;;      Locals:         0       0       0       0       0       0       0       0
  7488 ;;      Temps:          0       0       0       0       0       0       0       0
  7489 ;;      Totals:         0       0       0       0       0       0       0       0
  7490 ;;Total ram usage:        0 bytes
  7491 ;; Hardware stack levels used: 1
  7492 ;; This function calls:
  7493 ;;		Nothing
  7494 ;; This function is called by:
  7495 ;;		_EUSART_Initialize
  7496 ;;		_EUSART_Receive_ISR
  7497 ;; This function uses a non-reentrant model
  7498 ;;
  7499                           
  7500     072C                     _EUSART_DefaultOverrunErrorHandler:	
  7501                           ;psect for function _EUSART_DefaultOverrunErrorHandler
  7502                           
  7503     072C                     i1l2280:	
  7504                           ;incstack = 0
  7505                           ; Regs used in _EUSART_DefaultOverrunErrorHandler: []
  7506                           
  7507                           
  7508                           ;mcc_generated_files/eusart.c: 255:     RCSTAbits.CREN = 0;
  7509     072C  0023               	movlb	3	; select bank3
  7510     072D  121D               	bcf	29,4	;volatile
  7511                           
  7512                           ;mcc_generated_files/eusart.c: 256:     RCSTAbits.CREN = 1;
  7513     072E  161D               	bsf	29,4	;volatile
  7514     072F                     i1l319:
  7515     072F  0008               	return
  7516     0730                     __end_of_EUSART_DefaultOverrunErrorHandler:
  7517                           
  7518                           	psect	text56
  7519     0743                     __ptext56:	
  7520 ;; *************** function _EUSART_DefaultFramingErrorHandler *****************
  7521 ;; Defined at:
  7522 ;;		line 250 in file "mcc_generated_files/eusart.c"
  7523 ;; Parameters:    Size  Location     Type
  7524 ;;		None
  7525 ;; Auto vars:     Size  Location     Type
  7526 ;;		None
  7527 ;; Return value:  Size  Location     Type
  7528 ;;                  1    wreg      void 
  7529 ;; Registers used:
  7530 ;;		None
  7531 ;; Tracked objects:
  7532 ;;		On entry : 0/0
  7533 ;;		On exit  : 0/0
  7534 ;;		Unchanged: 0/0
  7535 ;; Data sizes:     COMMON   BANK0   BANK1   BANK2   BANK3   BANK4   BANK5   BANK6
  7536 ;;      Params:         0       0       0       0       0       0       0       0
  7537 ;;      Locals:         0       0       0       0       0       0       0       0
  7538 ;;      Temps:          0       0       0       0       0       0       0       0
  7539 ;;      Totals:         0       0       0       0       0       0       0       0
  7540 ;;Total ram usage:        0 bytes
  7541 ;; Hardware stack levels used: 1
  7542 ;; This function calls:
  7543 ;;		Nothing
  7544 ;; This function is called by:
  7545 ;;		_EUSART_Initialize
  7546 ;;		_EUSART_Receive_ISR
  7547 ;; This function uses a non-reentrant model
  7548 ;;
  7549                           
  7550     0743                     _EUSART_DefaultFramingErrorHandler:	
  7551                           ;psect for function _EUSART_DefaultFramingErrorHandler
  7552                           
  7553     0743                     i1l316:	
  7554                           ;incstack = 0
  7555                           ; Regs used in _EUSART_DefaultFramingErrorHandler: []
  7556                           
  7557     0743  0008               	return
  7558     0744                     __end_of_EUSART_DefaultFramingErrorHandler:
  7559                           
  7560                           	psect	text57
  7561     0730                     __ptext57:	
  7562 ;; *************** function _EUSART_DefaultErrorHandler *****************
  7563 ;; Defined at:
  7564 ;;		line 260 in file "mcc_generated_files/eusart.c"
  7565 ;; Parameters:    Size  Location     Type
  7566 ;;		None
  7567 ;; Auto vars:     Size  Location     Type
  7568 ;;		None
  7569 ;; Return value:  Size  Location     Type
  7570 ;;                  1    wreg      void 
  7571 ;; Registers used:
  7572 ;;		wreg, fsr1l, fsr1h, status,2, status,0, pclath, cstack
  7573 ;; Tracked objects:
  7574 ;;		On entry : 0/0
  7575 ;;		On exit  : 0/0
  7576 ;;		Unchanged: 0/0
  7577 ;; Data sizes:     COMMON   BANK0   BANK1   BANK2   BANK3   BANK4   BANK5   BANK6
  7578 ;;      Params:         0       0       0       0       0       0       0       0
  7579 ;;      Locals:         0       0       0       0       0       0       0       0
  7580 ;;      Temps:          0       0       0       0       0       0       0       0
  7581 ;;      Totals:         0       0       0       0       0       0       0       0
  7582 ;;Total ram usage:        0 bytes
  7583 ;; Hardware stack levels used: 1
  7584 ;; Hardware stack levels required when called: 1
  7585 ;; This function calls:
  7586 ;;		_EUSART_RxDataHandler
  7587 ;; This function is called by:
  7588 ;;		_EUSART_Initialize
  7589 ;;		_EUSART_Receive_ISR
  7590 ;; This function uses a non-reentrant model
  7591 ;;
  7592                           
  7593     0730                     _EUSART_DefaultErrorHandler:	
  7594                           ;psect for function _EUSART_DefaultErrorHandler
  7595                           
  7596     0730                     i1l2282:	
  7597                           ;incstack = 0
  7598                           ; Regs used in _EUSART_DefaultErrorHandler: [wreg+fsr1l+fsr1h+status,2+status,0+pclath+c
      +                          stack]
  7599                           
  7600                           
  7601                           ;mcc_generated_files/eusart.c: 261:     EUSART_RxDataHandler();
  7602     0730  3186  262E  3187   	fcall	_EUSART_RxDataHandler
  7603     0733                     i1l322:
  7604     0733  0008               	return
  7605     0734                     __end_of_EUSART_DefaultErrorHandler:
  7606                           
  7607                           	psect	text58
  7608     062E                     __ptext58:	
  7609 ;; *************** function _EUSART_RxDataHandler *****************
  7610 ;; Defined at:
  7611 ;;		line 240 in file "mcc_generated_files/eusart.c"
  7612 ;; Parameters:    Size  Location     Type
  7613 ;;		None
  7614 ;; Auto vars:     Size  Location     Type
  7615 ;;		None
  7616 ;; Return value:  Size  Location     Type
  7617 ;;                  1    wreg      void 
  7618 ;; Registers used:
  7619 ;;		wreg, fsr1l, fsr1h, status,2, status,0
  7620 ;; Tracked objects:
  7621 ;;		On entry : 0/0
  7622 ;;		On exit  : 0/0
  7623 ;;		Unchanged: 0/0
  7624 ;; Data sizes:     COMMON   BANK0   BANK1   BANK2   BANK3   BANK4   BANK5   BANK6
  7625 ;;      Params:         0       0       0       0       0       0       0       0
  7626 ;;      Locals:         0       0       0       0       0       0       0       0
  7627 ;;      Temps:          1       0       0       0       0       0       0       0
  7628 ;;      Totals:         1       0       0       0       0       0       0       0
  7629 ;;Total ram usage:        1 bytes
  7630 ;; Hardware stack levels used: 1
  7631 ;; This function calls:
  7632 ;;		Nothing
  7633 ;; This function is called by:
  7634 ;;		_EUSART_Receive_ISR
  7635 ;;		_EUSART_DefaultErrorHandler
  7636 ;; This function uses a non-reentrant model
  7637 ;;
  7638                           
  7639     062E                     _EUSART_RxDataHandler:	
  7640                           ;psect for function _EUSART_RxDataHandler
  7641                           
  7642     062E                     i1l2152:	
  7643                           ;incstack = 0
  7644                           ; Regs used in _EUSART_RxDataHandler: [wreg+fsr1l+fsr1h+status,2+status,0]
  7645                           
  7646                           
  7647                           ;mcc_generated_files/eusart.c: 242:     eusartRxBuffer[eusartRxHead++] = RCREG;
  7648     062E  0020               	movlb	0	; select bank0
  7649     062F  0834               	movf	_eusartRxHead,w
  7650     0630  3EA8               	addlw	(low (_eusartRxBuffer| 0))& (0+255)
  7651     0631  0086               	movwf	6
  7652     0632  0187               	clrf	7
  7653     0633  0023               	movlb	3	; select bank3
  7654     0634  0819               	movf	25,w	;volatile
  7655     0635  0081               	movwf	1
  7656     0636                     i1l2154:
  7657     0636  3001               	movlw	1
  7658     0637  00F0               	movwf	??_EUSART_RxDataHandler
  7659     0638  0870               	movf	??_EUSART_RxDataHandler,w
  7660     0639  0020               	movlb	0	; select bank0
  7661     063A  07B4               	addwf	_eusartRxHead,f	;volatile
  7662     063B                     i1l2156:
  7663                           
  7664                           ;mcc_generated_files/eusart.c: 243:     if(sizeof(eusartRxBuffer) <= eusartRxHead)
  7665     063B  3008               	movlw	8
  7666     063C  0234               	subwf	_eusartRxHead,w	;volatile
  7667     063D  1C03               	skipc
  7668     063E  2E40               	goto	u157_21
  7669     063F  2E41               	goto	u157_20
  7670     0640                     u157_21:
  7671     0640  2E42               	goto	i1l2160
  7672     0641                     u157_20:
  7673     0641                     i1l2158:
  7674                           
  7675                           ;mcc_generated_files/eusart.c: 244:     {;mcc_generated_files/eusart.c: 245:         eus
      +                          artRxHead = 0;
  7676     0641  01B4               	clrf	_eusartRxHead	;volatile
  7677     0642                     i1l2160:
  7678                           
  7679                           ;mcc_generated_files/eusart.c: 247:     eusartRxCount++;
  7680     0642  3001               	movlw	1
  7681     0643  00F0               	movwf	??_EUSART_RxDataHandler
  7682     0644  0870               	movf	??_EUSART_RxDataHandler,w
  7683     0645  07B2               	addwf	_eusartRxCount,f	;volatile
  7684     0646                     i1l313:
  7685     0646  0008               	return
  7686     0647                     __end_of_EUSART_RxDataHandler:
  7687     007E                     btemp	set	126	;btemp
  7688     007E                     int$flags	set	126
  7689     007E                     wtemp0	set	126
  7690                           
  7691                           	psect	config
  7692                           
  7693                           ;Config register CONFIG1 @ 0x8007
  7694                           ;	Oscillator Selection
  7695                           ;	FOSC = INTOSC, INTOSC oscillator: I/O function on CLKIN pin
  7696                           ;	Watchdog Timer Enable
  7697                           ;	WDTE = OFF, WDT disabled
  7698                           ;	Power-up Timer Enable
  7699                           ;	PWRTE = OFF, PWRT disabled
  7700                           ;	MCLR Pin Function Select
  7701                           ;	MCLRE = ON, MCLR/VPP pin function is MCLR
  7702                           ;	Flash Program Memory Code Protection
  7703                           ;	CP = OFF, Program memory code protection is disabled
  7704                           ;	Data Memory Code Protection
  7705                           ;	CPD = OFF, Data memory code protection is disabled
  7706                           ;	Brown-out Reset Enable
  7707                           ;	BOREN = ON, Brown-out Reset enabled
  7708                           ;	Clock Out Enable
  7709                           ;	CLKOUTEN = OFF, CLKOUT function is disabled. I/O or oscillator function on the CLKOUT 
      +                          pin
  7710                           ;	Internal/External Switchover
  7711                           ;	IESO = ON, Internal/External Switchover mode is enabled
  7712                           ;	Fail-Safe Clock Monitor Enable
  7713                           ;	FCMEN = ON, Fail-Safe Clock Monitor is enabled
  7714     8007                     	org	32775
  7715     8007  3FE4               	dw	16356
  7716                           
  7717                           ;Config register CONFIG2 @ 0x8008
  7718                           ;	Flash Memory Self-Write Protection
  7719                           ;	WRT = OFF, Write protection off
  7720                           ;	Voltage Regulator Capacitor Enable
  7721                           ;	VCAPEN = OFF, All VCAP pin functionality is disabled
  7722                           ;	PLL Enable
  7723                           ;	PLLEN = ON, 4x PLL enabled
  7724                           ;	Stack Overflow/Underflow Reset Enable
  7725                           ;	STVREN = ON, Stack Overflow or Underflow will cause a Reset
  7726                           ;	Brown-out Reset Voltage Selection
  7727                           ;	BORV = LO, Brown-out Reset Voltage (Vbor), low trip point selected.
  7728                           ;	Low-Voltage Programming Enable
  7729                           ;	LVP = OFF, High-voltage on MCLR/VPP must be used for programming
  7730     8008                     	org	32776
  7731     8008  1FFF               	dw	8191

Data Sizes:
    Strings     0
    Constant    6
    Data        1
    BSS         89
    Persistent  32
    Stack       0

Auto Spaces:
    Space          Size  Autos    Used
    COMMON           14     14      14
    BANK0            80     28      71
    BANK1            80      2      49
    BANK2            80      0       0
    BANK3            80      0       0
    BANK4            80      0       0
    BANK5            80      0       0
    BANK6            16      0       0

Pointer List with Targets:

    EUSART_ErrorHandler	PTR FTN()void  size(2) Largest target is 1
		 -> EUSART_DefaultErrorHandler(), NULL(), 

    EUSART_FramingErrorHandler	PTR FTN()void  size(2) Largest target is 1
		 -> EUSART_DefaultFramingErrorHandler(), NULL(), 

    EUSART_OverrunErrorHandler	PTR FTN()void  size(2) Largest target is 1
		 -> EUSART_DefaultOverrunErrorHandler(), NULL(), 

    EUSART_RxDefaultInterruptHandler	PTR FTN()void  size(2) Largest target is 1
		 -> EUSART_Receive_ISR(), NULL(), 

    EUSART_SetErrorHandler@interruptHandler	PTR FTN()void  size(2) Largest target is 1
		 -> EUSART_DefaultErrorHandler(), 

    EUSART_SetFramingErrorHandler@interruptHandler	PTR FTN()void  size(2) Largest target is 1
		 -> EUSART_DefaultFramingErrorHandler(), 

    EUSART_SetOverrunErrorHandler@interruptHandler	PTR FTN()void  size(2) Largest target is 1
		 -> EUSART_DefaultOverrunErrorHandler(), 

    EUSART_SetRxInterruptHandler@interruptHandler	PTR FTN()void  size(2) Largest target is 1
		 -> EUSART_Receive_ISR(), 

    EUSART_SetTxInterruptHandler@interruptHandler	PTR FTN()void  size(2) Largest target is 1
		 -> EUSART_Transmit_ISR(), 

    EUSART_TxDefaultInterruptHandler	PTR FTN()void  size(2) Largest target is 1
		 -> EUSART_Transmit_ISR(), NULL(), 

    LIN_getChecksum@data	PTR unsigned char  size(1) Largest target is 12
		 -> LIN_packet(BANK1[11]), LIN_rxPacket(BANK1[12]), 

    LIN_getPacket@data	PTR unsigned char  size(1) Largest target is 8
		 -> processLIN@tempRxData(BANK0[8]), 

    LIN_init@processData	PTR FTN()void  size(2) Largest target is 1
		 -> processLIN(), 

    LIN_init@table	const PTR const struct . size(2) Largest target is 7
		 -> scheduleTable(CODE[6]), 

    LIN_processData	PTR FTN()void  size(2) Largest target is 1
		 -> processLIN(), NULL(), 

    LIN_queuePacket@data	PTR unsigned char  size(1) Largest target is 8
		 -> SW_STATE_Data(BANK0[8]), 

    LIN_queuePacket@tempSchedule	PTR const struct . size(2) Largest target is 7
		 -> scheduleTable(CODE[6]), NULL(NULL[0]), 

    LIN_queuePacket@tempSchedule$data	PTR unsigned char  size(1) Largest target is 8
		 -> SW_STATE_Data(BANK0[8]), 

    LIN_sendPeriodicTx@periodicTx	PTR const struct . size(2) Largest target is 7
		 -> scheduleTable(CODE[6]), NULL(NULL[0]), 

    LIN_sendPeriodicTx@periodicTx$data	PTR unsigned char  size(1) Largest target is 8
		 -> SW_STATE_Data(BANK0[8]), 

    memcpy@d	PTR unsigned char  size(1) Largest target is 11
		 -> LIN_packet(BANK1[11]), processLIN@tempRxData(BANK0[8]), 

    memcpy@d1	PTR void  size(1) Largest target is 11
		 -> LIN_packet(BANK1[11]), processLIN@tempRxData(BANK0[8]), 

    memcpy@s	PTR const unsigned char  size(1) Largest target is 12
		 -> LIN_rxPacket(BANK1[12]), LIN_rxPacket$data(BANK1[8]), SW_STATE_Data(BANK0[8]), 

    memcpy@s1	PTR const void  size(1) Largest target is 12
		 -> LIN_rxPacket(BANK1[12]), LIN_rxPacket$data(BANK1[8]), SW_STATE_Data(BANK0[8]), 

    memset@dest	PTR void  size(1) Largest target is 12
		 -> LIN_packet(BANK1[11]), LIN_rxPacket(BANK1[12]), 

    memset@p	PTR unsigned char  size(1) Largest target is 12
		 -> LIN_packet(BANK1[11]), LIN_rxPacket(BANK1[12]), 

    S43$data	PTR unsigned char  size(1) Largest target is 8
		 -> SW_STATE_Data(BANK0[8]), 

    schedule	PTR const struct . size(2) Largest target is 7
		 -> scheduleTable(CODE[6]), NULL(NULL[0]), 

    schedule$data	PTR unsigned char  size(1) Largest target is 8
		 -> SW_STATE_Data(BANK0[8]), 

    scheduleTable$data	PTR unsigned char  size(1) Largest target is 8
		 -> SW_STATE_Data(BANK0[8]), 

    sp__memcpy	PTR void  size(1) Largest target is 11
		 -> LIN_packet(BANK1[11]), processLIN@tempRxData(BANK0[8]), 

    sp__memset	PTR void  size(1) Largest target is 12
		 -> LIN_packet(BANK1[11]), LIN_rxPacket(BANK1[12]), 

    TMR0_InterruptHandler	PTR FTN()void  size(2) Largest target is 1
		 -> LIN_timerHandler(), TMR0_DefaultInterruptHandler(), NULL(), 

    TMR0_SetInterruptHandler@InterruptHandler	PTR FTN()void  size(2) Largest target is 1
		 -> LIN_timerHandler(), TMR0_DefaultInterruptHandler(), 


Critical Paths under _main in COMMON

    None.

Critical Paths under _INTERRUPT_InterruptManager in COMMON

    _TMR0_ISR->_LIN_timerHandler
    _LIN_sendPeriodicTx->_LIN_queuePacket
    _LIN_queuePacket->i1_LIN_getChecksum
    _LIN_queuePacket->i1_memcpy
    _EUSART_Receive_ISR->_EUSART_RxDataHandler
    _EUSART_DefaultErrorHandler->_EUSART_RxDataHandler

Critical Paths under _main in BANK0

    _TMR0_Initialize->_TMR0_SetInterruptHandler
    _LIN_Master_Initialize->_LIN_init
    _LIN_setTimerHandler->_TMR0_SetInterruptHandler
    _EUSART_Initialize->_EUSART_SetErrorHandler
    _EUSART_Initialize->_EUSART_SetFramingErrorHandler
    _EUSART_Initialize->_EUSART_SetOverrunErrorHandler
    _EUSART_Initialize->_EUSART_SetRxInterruptHandler
    _EUSART_Initialize->_EUSART_SetTxInterruptHandler
    _LIN_handler->_processLIN
    _processLIN->_LIN_getPacket
    _LIN_getPacket->_memcpy
    _LIN_startTimer->_TMR0_WriteTimer
    _LIN_sendPacket->_EUSART_Write
    _LIN_receivePacket->_LIN_getChecksum

Critical Paths under _INTERRUPT_InterruptManager in BANK0

    _LIN_timerHandler->_LIN_sendPeriodicTx
    _LIN_sendPeriodicTx->_LIN_queuePacket

Critical Paths under _main in BANK1

    _main->_LIN_handler

Critical Paths under _INTERRUPT_InterruptManager in BANK1

    None.

Critical Paths under _main in BANK2

    None.

Critical Paths under _INTERRUPT_InterruptManager in BANK2

    None.

Critical Paths under _main in BANK3

    None.

Critical Paths under _INTERRUPT_InterruptManager in BANK3

    None.

Critical Paths under _main in BANK4

    None.

Critical Paths under _INTERRUPT_InterruptManager in BANK4

    None.

Critical Paths under _main in BANK5

    None.

Critical Paths under _INTERRUPT_InterruptManager in BANK5

    None.

Critical Paths under _main in BANK6

    None.

Critical Paths under _INTERRUPT_InterruptManager in BANK6

    None.

Call Graph Tables:

 ---------------------------------------------------------------------------------
 (Depth) Function   	        Calls       Base Space   Used Autos Params    Refs
 ---------------------------------------------------------------------------------
 (0) _main                                                 0     0      0    3597
              _Clear_No_Call_Warning
                        _LIN_handler
                  _SYSTEM_Initialize
 ---------------------------------------------------------------------------------
 (1) _SYSTEM_Initialize                                    0     0      0    1056
                  _EUSART_Initialize
              _LIN_Master_Initialize
              _OSCILLATOR_Initialize
             _PIN_MANAGER_Initialize
                    _TMR0_Initialize
                     _WDT_Initialize
 ---------------------------------------------------------------------------------
 (2) _WDT_Initialize                                       0     0      0       0
 ---------------------------------------------------------------------------------
 (2) _TMR0_Initialize                                      0     0      0     174
           _TMR0_SetInterruptHandler
 ---------------------------------------------------------------------------------
 (2) _PIN_MANAGER_Initialize                               0     0      0       0
 ---------------------------------------------------------------------------------
 (2) _OSCILLATOR_Initialize                                0     0      0       0
 ---------------------------------------------------------------------------------
 (2) _LIN_Master_Initialize                                0     0      0     392
                           _LIN_init
 ---------------------------------------------------------------------------------
 (3) _LIN_init                                             5     1      4     392
                                             11 BANK0      5     1      4
                _LIN_setTimerHandler
                    _LIN_startPeriod
                      _LIN_stopTimer
 ---------------------------------------------------------------------------------
 (4) _LIN_stopTimer                                        0     0      0       0
 ---------------------------------------------------------------------------------
 (4) _LIN_startPeriod                                      0     0      0       0
 ---------------------------------------------------------------------------------
 (4) _LIN_setTimerHandler                                  0     0      0     174
           _TMR0_SetInterruptHandler
 ---------------------------------------------------------------------------------
 (3) _TMR0_SetInterruptHandler                             2     0      2     174
                                              9 BANK0      2     0      2
 ---------------------------------------------------------------------------------
 (2) _EUSART_Initialize                                    0     0      0     490
             _EUSART_SetErrorHandler
      _EUSART_SetFramingErrorHandler
      _EUSART_SetOverrunErrorHandler
       _EUSART_SetRxInterruptHandler
       _EUSART_SetTxInterruptHandler
 ---------------------------------------------------------------------------------
 (3) _EUSART_SetTxInterruptHandler                         2     0      2      98
                                              9 BANK0      2     0      2
 ---------------------------------------------------------------------------------
 (3) _EUSART_SetRxInterruptHandler                         2     0      2      98
                                              9 BANK0      2     0      2
 ---------------------------------------------------------------------------------
 (3) _EUSART_SetOverrunErrorHandler                        2     0      2      98
                                              9 BANK0      2     0      2
 ---------------------------------------------------------------------------------
 (3) _EUSART_SetFramingErrorHandler                        2     0      2      98
                                              9 BANK0      2     0      2
 ---------------------------------------------------------------------------------
 (3) _EUSART_SetErrorHandler                               2     0      2      98
                                              9 BANK0      2     0      2
 ---------------------------------------------------------------------------------
 (1) _LIN_handler                                          2     2      0    2379
                                              0 BANK1      2     2      0
                                NULL *
                 _EUSART_is_rx_ready
                      _LIN_disableRx
                       _LIN_enableRx
                  _LIN_receivePacket
                     _LIN_sendPacket
                     _LIN_startTimer
                             _memset
                         _processLIN *
 ---------------------------------------------------------------------------------
 (2) _processLIN                                           9     9      0    1187
                                             19 BANK0      9     9      0
                      _LIN_getPacket
 ---------------------------------------------------------------------------------
 (3) _LIN_getPacket                                        2     2      0    1138
                                             17 BANK0      2     2      0
                             _memcpy
                             _memset
 ---------------------------------------------------------------------------------
 (4) _memset                                               7     3      4     599
                                              9 BANK0      7     3      4
 ---------------------------------------------------------------------------------
 (4) _memcpy                                               8     5      3     461
                                              9 BANK0      8     5      3
 ---------------------------------------------------------------------------------
 (2) _LIN_startTimer                                       1     1      0      44
                                             10 BANK0      1     1      0
                    _TMR0_WriteTimer
 ---------------------------------------------------------------------------------
 (3) _TMR0_WriteTimer                                      1     1      0      22
                                              9 BANK0      1     1      0
 ---------------------------------------------------------------------------------
 (2) _LIN_sendPacket                                       2     2      0      90
                                             11 BANK0      2     2      0
                       _EUSART_Write
                      _LIN_sendBreak
 ---------------------------------------------------------------------------------
 (3) _LIN_sendBreak                                        0     0      0       0
 ---------------------------------------------------------------------------------
 (3) _EUSART_Write                                         2     2      0      44
                                              9 BANK0      2     2      0
 ---------------------------------------------------------------------------------
 (2) _LIN_receivePacket                                    1     1      0     459
                                             17 BANK0      1     1      0
                        _EUSART_Read
                    _LIN_getChecksum
 ---------------------------------------------------------------------------------
 (3) _LIN_getChecksum                                      8     6      2     435
                                              9 BANK0      8     6      2
 ---------------------------------------------------------------------------------
 (3) _EUSART_Read                                          2     2      0      24
                                              9 BANK0      2     2      0
 ---------------------------------------------------------------------------------
 (2) _LIN_enableRx                                         0     0      0       0
 ---------------------------------------------------------------------------------
 (2) _LIN_disableRx                                        0     0      0       0
 ---------------------------------------------------------------------------------
 (2) _EUSART_is_rx_ready                                   0     0      0       0
 ---------------------------------------------------------------------------------
 (8) NULL(Fake)                                            0     0      0       0
 ---------------------------------------------------------------------------------
 (1) _Clear_No_Call_Warning                                1     1      0     162
             _EUSART_get_last_status
                  _EUSART_is_tx_done
                 _EUSART_is_tx_ready
                    _PIN_MANAGER_IOC
                     _TMR0_ReadTimer
                        _TMR0_Reload
 ---------------------------------------------------------------------------------
 (2) _TMR0_Reload                                          0     0      0       0
 ---------------------------------------------------------------------------------
 (2) _TMR0_ReadTimer                                       1     1      0       7
 ---------------------------------------------------------------------------------
 (2) _PIN_MANAGER_IOC                                      0     0      0       0
 ---------------------------------------------------------------------------------
 (2) _EUSART_is_tx_ready                                   0     0      0       0
 ---------------------------------------------------------------------------------
 (2) _EUSART_is_tx_done                                    0     0      0       0
 ---------------------------------------------------------------------------------
 (2) _EUSART_get_last_status                               0     0      0       0
 ---------------------------------------------------------------------------------
 Estimated maximum stack depth 8
 ---------------------------------------------------------------------------------
 (Depth) Function   	        Calls       Base Space   Used Autos Params    Refs
 ---------------------------------------------------------------------------------
 (6) _INTERRUPT_InterruptManager                           0     0      0    1768
                                NULL *
                 _EUSART_Receive_ISR *
                _EUSART_Transmit_ISR *
                           _TMR0_ISR
 ---------------------------------------------------------------------------------
 (7) _TMR0_ISR                                             0     0      0    1768
                                NULL *
                   _LIN_timerHandler *
       _TMR0_DefaultInterruptHandler *
 ---------------------------------------------------------------------------------
 (8) _TMR0_DefaultInterruptHandler                         0     0      0       0
 ---------------------------------------------------------------------------------
 (8) _LIN_timerHandler                                     1     1      0    1768
                                             13 COMMON     1     1      0
                 _LIN_sendPeriodicTx
                    i1_LIN_stopTimer
 ---------------------------------------------------------------------------------
 (9) i1_LIN_stopTimer                                      0     0      0       0
 ---------------------------------------------------------------------------------
 (9) _LIN_sendPeriodicTx                                   5     5      0    1768
                                              4 BANK0      5     5      0
                    _LIN_queuePacket
                             ___wmul
 ---------------------------------------------------------------------------------
 (10) ___wmul                                              6     2      4     396
                                              0 COMMON     6     2      4
 ---------------------------------------------------------------------------------
 (10) _LIN_queuePacket                                     9     8      1    1260
                                              8 COMMON     5     4      1
                                              0 BANK0      4     4      0
                     _LIN_calcParity
                  i1_LIN_getChecksum
                           i1_memcpy
                           i1_memset
 ---------------------------------------------------------------------------------
 (11) i1_memset                                            7     3      4     148
                                              0 COMMON     7     3      4
 ---------------------------------------------------------------------------------
 (11) i1_memcpy                                            8     5      3     195
                                              0 COMMON     8     5      3
 ---------------------------------------------------------------------------------
 (11) i1_LIN_getChecksum                                   8     6      2     235
                                              0 COMMON     8     6      2
 ---------------------------------------------------------------------------------
 (11) _LIN_calcParity                                      3     3      0     338
                                              0 COMMON     3     3      0
 ---------------------------------------------------------------------------------
 (7) _EUSART_Transmit_ISR                                  1     1      0       0
                                              0 COMMON     1     1      0
 ---------------------------------------------------------------------------------
 (7) _EUSART_Receive_ISR                                   0     0      0       0
                                NULL *
         _EUSART_DefaultErrorHandler *
  _EUSART_DefaultFramingErrorHandler *
  _EUSART_DefaultOverrunErrorHandler *
               _EUSART_RxDataHandler
 ---------------------------------------------------------------------------------
 (8) _EUSART_DefaultOverrunErrorHandler                    0     0      0       0
 ---------------------------------------------------------------------------------
 (8) _EUSART_DefaultFramingErrorHandler                    0     0      0       0
 ---------------------------------------------------------------------------------
 (8) _EUSART_DefaultErrorHandler                           0     0      0       0
               _EUSART_RxDataHandler
 ---------------------------------------------------------------------------------
 (8) _EUSART_RxDataHandler                                 1     1      0       0
                                              0 COMMON     1     1      0
 ---------------------------------------------------------------------------------
 (8) NULL(Fake)                                            0     0      0       0
 ---------------------------------------------------------------------------------
 Estimated maximum stack depth 11
 ---------------------------------------------------------------------------------

 Call Graph Graphs:

 _main (ROOT)
   _Clear_No_Call_Warning
     _EUSART_get_last_status
     _EUSART_is_tx_done
     _EUSART_is_tx_ready
     _PIN_MANAGER_IOC
     _TMR0_ReadTimer
     _TMR0_Reload
   _LIN_handler
     NULL(Fake) *
     _EUSART_is_rx_ready *
     _LIN_disableRx *
     _LIN_enableRx *
     _LIN_receivePacket *
       _EUSART_Read
       _LIN_getChecksum
     _LIN_sendPacket *
       _EUSART_Write
       _LIN_sendBreak
     _LIN_startTimer *
       _TMR0_WriteTimer
     _memset *
     _processLIN *
       _LIN_getPacket
         _memcpy
         _memset
   _SYSTEM_Initialize
     _EUSART_Initialize
       _EUSART_SetErrorHandler
       _EUSART_SetFramingErrorHandler
       _EUSART_SetOverrunErrorHandler
       _EUSART_SetRxInterruptHandler
       _EUSART_SetTxInterruptHandler
     _LIN_Master_Initialize
       _LIN_init
         _LIN_setTimerHandler
           _TMR0_SetInterruptHandler
         _LIN_startPeriod
         _LIN_stopTimer
     _OSCILLATOR_Initialize
     _PIN_MANAGER_Initialize
     _TMR0_Initialize
       _TMR0_SetInterruptHandler
     _WDT_Initialize

 _INTERRUPT_InterruptManager (ROOT)
   NULL(Fake) *
   _EUSART_Receive_ISR *
     NULL(Fake) *
     _EUSART_DefaultErrorHandler *
       _EUSART_RxDataHandler
     _EUSART_DefaultFramingErrorHandler *
     _EUSART_DefaultOverrunErrorHandler *
     _EUSART_RxDataHandler *
   _EUSART_Transmit_ISR *
   _TMR0_ISR *
     NULL(Fake) *
     _LIN_timerHandler *
       _LIN_sendPeriodicTx
         _LIN_queuePacket
           _LIN_calcParity
           i1_LIN_getChecksum
           i1_memcpy
           i1_memset
         ___wmul
       i1_LIN_stopTimer
     _TMR0_DefaultInterruptHandler *

 Address spaces:
Name               Size   Autos  Total    Cost      Usage
BIGRAM             1F0      0       0       0        0.0%
EEDATA             100      0       0       0        0.0%
NULL                 0      0       0       0        0.0%
CODE                 0      0       0       0        0.0%
BITCOMMON            E      0       0       1        0.0%
BITSFR0              0      0       0       1        0.0%
SFR0                 0      0       0       1        0.0%
COMMON               E      E       E       2      100.0%
BITSFR1              0      0       0       2        0.0%
SFR1                 0      0       0       2        0.0%
BITSFR2              0      0       0       3        0.0%
SFR2                 0      0       0       3        0.0%
STACK                0      0       0       3        0.0%
BITSFR3              0      0       0       4        0.0%
SFR3                 0      0       0       4        0.0%
ABS                  0      0      86       4        0.0%
BITBANK0            50      0       0       5        0.0%
BITSFR4              0      0       0       5        0.0%
SFR4                 0      0       0       5        0.0%
BANK0               50     1C      47       6       88.8%
BITSFR5              0      0       0       6        0.0%
SFR5                 0      0       0       6        0.0%
BITBANK1            50      0       0       7        0.0%
BITSFR6              0      0       0       7        0.0%
SFR6                 0      0       0       7        0.0%
BANK1               50      2      31       8       61.3%
BITSFR7              0      0       0       8        0.0%
SFR7                 0      0       0       8        0.0%
BITBANK2            50      0       0       9        0.0%
BITSFR8              0      0       0       9        0.0%
SFR8                 0      0       0       9        0.0%
BANK2               50      0       0      10        0.0%
BITSFR9              0      0       0      10        0.0%
SFR9                 0      0       0      10        0.0%
BITBANK3            50      0       0      11        0.0%
BITSFR10             0      0       0      11        0.0%
SFR10                0      0       0      11        0.0%
BANK3               50      0       0      12        0.0%
BITSFR11             0      0       0      12        0.0%
SFR11                0      0       0      12        0.0%
BITBANK4            50      0       0      13        0.0%
BITSFR12             0      0       0      13        0.0%
SFR12                0      0       0      13        0.0%
BANK4               50      0       0      14        0.0%
BITSFR13             0      0       0      14        0.0%
SFR13                0      0       0      14        0.0%
BITBANK5            50      0       0      15        0.0%
BITSFR14             0      0       0      15        0.0%
SFR14                0      0       0      15        0.0%
BANK5               50      0       0      16        0.0%
BITSFR15             0      0       0      16        0.0%
SFR15                0      0       0      16        0.0%
BITBANK6            10      0       0      17        0.0%
BITSFR16             0      0       0      17        0.0%
SFR16                0      0       0      17        0.0%
BANK6               10      0       0      18        0.0%
BITSFR17             0      0       0      18        0.0%
SFR17                0      0       0      18        0.0%
BITSFR18             0      0       0      19        0.0%
SFR18                0      0       0      19        0.0%
DATA                 0      0      86      19        0.0%
BITSFR19             0      0       0      20        0.0%
SFR19                0      0       0      20        0.0%
BITSFR20             0      0       0      21        0.0%
SFR20                0      0       0      21        0.0%
BITSFR21             0      0       0      22        0.0%
SFR21                0      0       0      22        0.0%
BITSFR22             0      0       0      23        0.0%
SFR22                0      0       0      23        0.0%
BITSFR23             0      0       0      24        0.0%
SFR23                0      0       0      24        0.0%
BITSFR24             0      0       0      25        0.0%
SFR24                0      0       0      25        0.0%
BITSFR25             0      0       0      26        0.0%
SFR25                0      0       0      26        0.0%
BITSFR26             0      0       0      27        0.0%
SFR26                0      0       0      27        0.0%
BITSFR27             0      0       0      28        0.0%
SFR27                0      0       0      28        0.0%
BITSFR28             0      0       0      29        0.0%
SFR28                0      0       0      29        0.0%
BITSFR29             0      0       0      30        0.0%
SFR29                0      0       0      30        0.0%
BITSFR30             0      0       0      31        0.0%
SFR30                0      0       0      31        0.0%
BITSFR31             0      0       0      32        0.0%
SFR31                0      0       0      32        0.0%


Microchip Technology PIC Macro Assembler V2.46 build 20240104201356 
Symbol Table                                                                                   Wed Dec 17 15:38:26 2025

                ?_EUSART_SetRxInterruptHandler 0053                          __end_of_LIN_getPacket 05C0  
                        ??_LIN_setTimerHandler 0055                          __end_of_LIN_disableRx 0718  
                               _scheduleLength 0040                                             l73 065C  
                                           l94 0309                            ___wmul@multiplicand 0072  
                              _timer0ReloadVal 0030                                ?_LIN_calcParity 0070  
                                          l120 0420                                            l113 0454  
                                          l105 036F                                            l123 05BF  
                                          l132 0485                                            l133 0488  
                                          l136 06AE                                            l152 0723  
                                          l161 0717                                            l146 06CF  
                                          l331 0708                                            l164 0736  
                                          l325 0702                                            l149 071F  
                                          l158 0712                                            l334 06F0  
                                          l271 0740                                            l280 0741  
                                          l328 06FC                                            l432 06B5  
                                          l193 06C6                                            l337 06F6  
                                          l274 06D8                                            l186 06A1  
                                          l530 009F                                            l522 0084  
                                          l371 073F                                            l435 06BA  
                                          l531 0090                                            l523 0074  
                                          l516 073E                                            l292 04C3  
                                          l268 03B2                                            l277 073C  
                                          l293 04CD                                            l461 070D  
                                          l429 0683                                            l541 00AD  
                                          l533 0092                                            l525 0076  
                                          l438 071B                                            l287 050B  
                                          l471 06EA                                            l455 0670  
                                          l551 00C6                                            l543 00AE  
                                          l535 0093                                            l527 0077  
                                          l464 0727                                            l296 04E4  
                                          l368 0613                                            l528 0078  
                                          l537 00E2                                            l458 0739  
                                          l562 00EE                                            l546 00C8  
                                          l538 00B7                                            l571 010D  
                                          l555 00D4                                            l547 00C3  
                                          l539 00AB                                            l580 012B  
                                          l564 00F0                                            l573 010E  
                                          l557 00D6                                            l549 00C5  
                                          l566 00F1                                            l559 00D7  
                                          l576 0128                                            l569 010B  
                                          l578 012A                         ??_EUSART_RxDataHandler 0070  
               ?_EUSART_SetFramingErrorHandler 0053                                            wreg 0009  
               __end_of_EUSART_get_last_status 0742                          __end_of_scheduleTable 06DF  
                                 ?_EUSART_Read 0070                         ?_Clear_No_Call_Warning 0070  
                                         l1202 05F9                                           l2100 04CE  
                                         l2020 05ED                                           l2102 04D5  
                                         l2110 04E2                                           l2022 0535  
                                         l2014 05E1                                           l2200 0421  
                                         l2104 04D9                                           l2024 053A  
                                         l2016 05E4                                           l2112 05A2  
                                         l2050 0457                                           l2210 043B  
                                         l2202 0429                                           l2106 04DF  
                                         l2122 070B                                           l2026 053F  
                                         l2018 05E9                                           l2114 05A7  
                                         l2060 0477                                           l2052 045E  
                                         l2212 0451                                           l2204 0434  
                                         l2108 04E0                                           l2028 0543  
                                         l2116 05B1                                           l2044 0649  
                                         l2300 060F                                           l2070 04E5  
                                         l2062 047B                                           l2054 0460  
                                         l2206 0438                                           l2118 05BD  
                                         l2150 0703                                           l2142 06F1  
                                         l2046 0653                                           l2302 0611  
                                         l2310 0718                                           l2080 0501  
                                         l2072 04E5                                           l2056 046A  
                                         l2064 047F                                           l2216 0453  
                                         l2208 043A                                           l2144 06EB  
                                         l2240 0370                                           l2048 0659  
                                         l2232 0694                                           l2304 06AF  
                                         l2320 0668                                           l2312 065D  
                                         l1193 054C                                           l2082 0502  
                                         l2074 04EB                                           l2066 0487  
                                         l2058 046E                                           l2170 03F4  
                                         l2234 06BB                                           l2146 06FD  
                                         l2250 0389                                           l2242 0372  
                                         l2306 06B2                                           l2322 0669  
                                         l2314 0662                                           l2324 0737  
                                         l2420 073E                                           l2164 0713  
                                         l2084 0504                                           l2076 04F7  
                                         l2092 0734                                           l2180 040E  
                                         l2172 03F8                                           l1196 0558  
                                         l2148 06F7                                           l2260 039F  
                                         l2252 038B                                           l2244 037A  
                                         l2308 06B3                                           l2316 0665  
                                         l2086 0507                                           l2078 04FB  
                                         l2094 04BE                                           l2182 0413  
                                         l2174 03FD                                           l2166 03ED  
                                         l2190 06AA                                           l2238 06C1  
                                         l2270 03B0                                           l2262 03A7  
                                         l2254 038D                                           l2246 0384  
                                         l2318 0667                                           l2272 0740  
                                         l2328 0724                                           l2088 0509  
                                         l2096 04BE                                           l2184 041B  
                                         l2176 0403                                           l2168 03F0  
                                         l2192 06AB                                           l2264 03A9  
                                         l2256 038F                                           l2248 0387  
                                         l2274 073A                                           l2194 070E  
                                         l2098 04C8                                           l2178 0406  
                                         l2186 06A4                                           l2266 03AA  
                                         l2258 0397                                           l2290 0604  
                                         l2418 0671                                           l2196 06D0  
                                         l2188 06A6                                           l2268 03AB  
                                         l2292 0606                                           l2284 05FA  
                                         l2700 005B                                           l2278 0741  
                                         l2294 060A                                           l2286 05FF  
                                         l2710 0060                                           l2702 005C  
                                         l2640 02F7                                           l2296 060C  
                                         l2288 0602                                           l2720 0070  
                                         l2712 0061                                           l2704 005D  
                                         l2650 0305                                           l2642 02F8  
                                         l2298 060E                                           l2810 00F2  
                                         l2730 0082                                           l2722 007B  
                                         l2714 0064                                           l2706 005E  
                                         l2660 0323                                           l2652 030D  
                                         l2644 02FE                                           l2812 00F7  
                                         l2820 00FF                                           l2740 0098  
                                         l2732 0088                                           l2804 00E2  
                                         l2724 007E                                           l2716 0067  
                                         l2708 005F                                           l2670 0341  
                                         l2662 0326                                           l2654 0312  
                                         l2646 02FF                                           l2830 0117  
                                         l2822 0103                                           l2814 00F8  
                                         l2806 00E6                                           l2742 0099  
                                         l2734 008C                                           l2726 0080  
                                         l2718 006C                                           l2672 0349  
                                         l2664 032C                                           l2656 0318  
                                         l2648 0302                                           l1936 06E5  
                                         l2840 0133                                           l2824 0107  
                                         l2832 011C                                           l2816 00FD  
                                         l2808 00EA                                           l2760 00B3  
                                         l2752 00A3                                           l2744 009A  
                                         l2736 0094                                           l2728 0081  
                                         l2674 034C                                           l2666 032D  
                                         l2658 031C                                           l2682 0357  
                                         l2842 0134                                           l2834 0120  
                                         l2826 010F                                           l2818 00FE  
                                         l2770 00BB                                           l2754 00A7  
                                         l2746 009C                                           l2738 0097  
                                         l2690 0052                                           l2676 0350  
                                         l2668 0339                                           l2836 0124  
                                         l2828 0116                                           l2772 00BF  
                                         l2756 00AF                                           l2692 0055  
                                         l1974 071C                                           l2838 012C  
                                         l2790 00D0                                           l2758 00B2  
                                         l2694 0056                                           l1976 06C7  
                                         l2792 00D8                                           l2696 0057  
                                         l2874 0361                                           l1978 0720  
                                         l2794 00DD                                           l2698 005A  
                                         l2796 00DE                                           l2788 00CC  
                                         u2200 006C                                           u2201 006B  
                                         u1410 05F9                                           u2130 02FE  
                                         u2210 0070                                           u1411 05F8  
                                         u2131 02FD                                           u2211 006F  
                                         u1500 0501                                           u1420 0558  
                                         u2140 030D                                           u2300 00BF  
                                         u2220 0074                                           u1501 0500  
                                         u1421 0557                                           u2141 030C  
                                         u2301 00BE                                           u2221 0073  
                                         _LATA 010C                                           u1510 04C3  
                                         u2150 0312                                           u2310 00C3  
                                         u2230 0088                                           _LATB 010D  
                                         u1511 04C2                                           u2151 0311  
                                         u2311 00C2                                           u2231 0087  
                                         _LATC 010E                                           u1600 06D7  
                                         u1520 04C8                                           u2160 0318  
                                         u2400 010B                                           u2320 00CC  
                                         u2240 008C                                           u1601 06D5  
                                         u1521 04C7                                           u2161 0317  
                                         u2401 010A                                           u2321 00CB  
                                         u2241 008B                                           _LATE 0110  
                                         u1610 06D8                                           u1530 04DF  
                                         u2170 032C                                           u2410 0120  
                                         u2330 00D0                                           u2250 0090  
                                         u1531 04DE                                           u2171 032B  
                                         u2411 011F                                           u2331 00CF  
                                         u2251 008F                                           u1620 0429  
                                         u2180 0341                                           u2420 0124  
                                         u2340 00D4                                           u2260 00A3  
                                         u1621 0428                                           u2181 0340  
                                         u2421 0123                                           u2341 00D3  
                                         u2261 00A2                                           u1470 0477  
                                         u1630 0451                                           u2190 0349  
                                         u2430 0128                                           u2350 00E6  
                                         u2270 00A7                                           u1471 0476  
                                         u1631 0450                                           u2191 0348  
                                         u2431 0127                                           u2351 00E5  
                                         u2271 00A6                                           u1480 0485  
                                         u2360 00EA                                           u2280 00AB  
                                         u1481 0484                                           u2361 00E9  
                                         u2281 00AA                                           u1490 04EB  
                                         u2370 00EE                                           u2290 00BB  
                                         u1491 04EA                                           u2371 00ED  
                                         u2291 00BA                                           u1580 0403  
                                         u2380 0103                                           u1581 0402  
                                         u2381 0102                                           u1590 041B  
                                         u2390 0107                                           u1591 041A  
                                         u2391 0106                                           u1680 06BA  
                                         u1681 06B9                                           i1l81 01BC  
                                         i1l84 01F5                                           _PLLR 04D6  
                                         _TMR0 0015                                           _WPUB 020D  
                                         _WPUE 0210                                 _LIN_sendPacket 03ED  
                        __end_of_LIN_sendBreak 0737                                           _main 0052  
                                         fsr0h 0005                                           fsr1h 0007  
                                         indf0 0000                                           fsr0l 0004  
                                         indf1 0001                                           fsr1l 0006  
                                         btemp 007E                                           start 0038  
                                processLIN@cmd 0065                       LIN_receivePacket@rxIndex 0039  
                      __end_of_TMR0_Initialize 0671                 ??_TMR0_DefaultInterruptHandler 0070  
                                ?_EUSART_Write 0070                  __end_of_OSCILLATOR_Initialize 06BB  
                                        ?_main 0070                                          i1l132 04B8  
                                        i1l133 04BB                                          i1l302 059F  
                                        i1l126 027B                                          i1l143 0532  
                                        i1l400 0036                                          i1l313 0646  
                                        i1l322 0733                                          i1l316 0743  
                                        i1l309 03EC                                          i1l173 02F6  
                                        i1l149 072B                                          i1l319 072F  
                                   i1memcpy@d1 0074                                          i1l392 0012  
                                        i1l474 0742                                          i1l299 059D  
                                        i1l395 0026                                          i1l468 0693  
                              _TMR0_WriteTimer 0709                                          i1l734 05CA  
                                        i1l399 0036                                          i1l736 05DE  
                                   i1memcpy@s1 0070                                          _RCREG 0199  
                                        _RCSTA 019D                                          _TRISA 008C  
                                        _TRISB 008D                                          _TRISC 008E  
                                        _TRISE 0090                                          _TXREG 019A  
                             __end_of_LIN_init 065D                          __end_of_LIN_stopTimer 0720  
                                        _TXSTA 019E                      ?_TMR0_SetInterruptHandler 0053  
                             __end_of_TMR0_ISR 0694                        __end_of_PIN_MANAGER_IOC 0740  
                               _WDT_Initialize 0718                         __end_of_LIN_sendPacket 0421  
                                        pclath 000A                                 _LIN_startTimer 06A2  
                                        status 0003                                          wtemp0 007E  
                             __end_ofi1_memcpy 057E                               __end_ofi1_memset 062E  
                       ?_LIN_Master_Initialize 0070                               ?_LIN_getChecksum 0053  
                  LIN_queuePacket@tempSchedule 004C                                __initialization 003A  
                                 ?_LIN_handler 0070                                   __end_of_main 013C  
                               ??_EUSART_Write 0053                    ?_INTERRUPT_InterruptManager 0070  
               ??_EUSART_SetRxInterruptHandler 0055                                         ??_main 0066  
                       __end_of_WDT_Initialize 071C      __end_of_EUSART_DefaultFramingErrorHandler 0744  
          ??_EUSART_DefaultFramingErrorHandler 0070             ?_EUSART_DefaultFramingErrorHandler 0070  
            _EUSART_DefaultFramingErrorHandler 0743                     _EUSART_OverrunErrorHandler 0024  
                       __end_of_LIN_startTimer 06AF                                ?_LIN_sendPacket 0070  
                                       _APFCON 011D                                         _ANSELA 018C  
                                       _ANSELB 018D                     __end_of_EUSART_is_rx_ready 06D9  
                                       _BORCON 0116                                         i1l2000 0184  
                                       i1l1202 062D                                         i1l2002 0194  
                                       i1l2010 01CD                                         u110_24 020D  
                                       i1l2012 01F2                                         i1l2004 01A2  
                                       i1l2006 01BF                                         i1l2030 05C0  
                                       u111_20 0212                                         i1l2008 01C1  
                                       i1l2040 05DA                                         i1l2032 05C2  
                                       u111_21 0210                                         u111_22 0213  
                                       i1l2034 05C6                                         i1l2130 02A3  
                                       i1l2036 05CF                                         i1l2140 02E9  
                                       i1l2132 02B8                                         i1l2124 027C  
                                       i1l2220 050C                                         i1l2038 05D4  
                                       i1l2134 02C3                                         i1l2126 027E  
                                       i1l2230 052F                                         i1l2222 0512  
                                       i1l2160 0642                                         i1l2152 062E  
                                       i1l2400 03CE                                         u120_20 0241  
                                       u112_20 0219                                         i1l2136 02C4  
                                       i1l2128 0293                                         i1l2224 051C  
                                       u120_21 023F                                         u112_21 0217  
                                       i1l1193 0571                                         i1l2154 0636  
                                       i1l2402 03D4                                         u120_22 0242  
                                       u112_22 021A                                         i1l2138 02D9  
                                       i1l2162 0728                                         i1l2226 051F  
                                       i1l2410 0684                                         i1l2156 063B  
                                       i1l2404 03D9                                         i1l1196 057D  
                                       i1l2228 0525                                         i1l2412 0685  
                                       i1l2158 0641                                         i1l2406 03E3  
                                       i1l2414 0688                                         i1l2280 072C  
                                       i1l2408 03E9                                         u121_20 0248  
                                       u113_20 0220                                         i1l2416 068E  
                                       u121_21 0246                                         u113_21 021E  
                                       i1l2282 0730                                         i1l2450 0006  
                                       i1l2380 0585                                         i1l2460 0020  
                                       i1l2452 000A                                         i1l2390 03B3  
                                       i1l2382 058C                                         i1l2462 002B  
                                       i1l2454 000E                                         i1l2392 03B9  
                                       i1l2384 0591                                         i1l2464 0030  
                                       i1l2456 0016                                         i1l2394 03BE  
                                       i1l2386 0597                                         i1l2378 057E  
                                       i1l1930 0271                                         i1l2458 001B  
                                       i1l2396 03C4                                         i1l2388 0598  
                                       i1l1932 027A                                         u130_24 0271  
                                       u122_24 0249                                         u114_24 0221  
                                       i1l1940 0491                                         i1l2398 03C9  
                                       i1l1950 04AE                                         i1l1942 0493  
                                       u131_20 0279                                         u123_20 024E  
                                       u115_20 0226                                         u107_20 01FE  
                                       i1l1928 01F7                                         i1l1944 049D  
                                       i1l1952 04B2                                         i1l1960 055F  
                                       u131_21 0277                                         u123_21 024C  
                                       u115_21 0224                                         u107_21 01FC  
                                       u123_22 024F                                         u115_22 0227  
                                       u107_22 01FF                                         i1l1954 04BA  
                                       i1l1946 04A1                                         i1l1938 048A  
                                       i1l1962 0564                                         i1l1970 061D  
                                       i1l1948 04AA                                         i1l1964 0568  
                                       i1l1972 0621                                         i1l1980 013E  
                                       i1l1958 055A                                         i1l1966 0615  
                                       i1l1990 0153                                         i1l1982 0142  
                                       u124_20 0255                                         u116_20 022D  
                                       u108_20 0205                                         i1l1968 0618  
                                       u140_20 0194                                         i1l1984 0144  
                                       i1l1992 0157                                         u124_21 0253  
                                       u116_21 022B                                         u108_21 0203  
                                       u140_21 0193                                         u124_22 0256  
                                       u116_22 022E                                         u108_22 0206  
                                       i1l1994 015D                                         u132_24 027A  
                                       i1l1996 0168                                         i1l1988 014F  
                                       i1l1998 0173                                         u125_20 025C  
                                       u117_20 0234                                         u109_20 020C  
                                       u133_20 04AA                                         u125_21 025A  
                                       u117_21 0232                                         u109_21 020A  
                                       u133_21 04A9                                         u134_20 04B8  
                                       u134_21 04B7                                         u126_24 025D  
                                       u118_24 0235                                         u127_20 0262  
                                       u119_20 023A                                         u135_20 057D  
                                       u143_20 05C6                                         u127_21 0260  
                                       u119_21 0238                                         u135_21 057C  
                                       u143_21 05C5                                         u127_22 0263  
                                       u119_22 023B                                         u128_20 0269  
                                       u136_20 062D                                         u128_21 0267  
                                       u136_21 062C                                         u128_22 026A  
                                       u144_25 05CB                                         u129_20 0270  
                                       u137_20 014E                                         u129_21 026E  
                                       u137_21 014D                                         u145_25 05D0  
                                       u138_20 015D                                         u146_20 05DA  
                                       u154_20 02A3                                         u138_21 015C  
                                       u146_21 05D9                                         u154_21 02A2  
                                       u139_20 0184                                         u155_20 02C3  
                                       u139_21 0183                                         u155_21 02C2  
                                       u180_20 03E3                                         u156_20 02E9  
                                       u164_20 0512                                         u180_21 03E2  
                                       u156_21 02E8                                         u164_21 0511  
                   __end_of_EUSART_is_tx_ready 0741                                         u157_20 0641  
                                       u165_20 051C                                         u181_20 068E  
                                       u157_21 0640                                         u165_21 051B  
                                       u181_21 068D                                         u166_20 0525  
                                       u182_20 000A                                         u166_21 0524  
                                       u182_21 0009                                         u167_20 052F  
                                       u183_20 000E                                         u167_21 052E  
                                       u183_21 000D                                         u176_20 0585  
                                       u184_20 0016                                         u176_21 0584  
                                       u184_21 0015                                         u177_20 0597  
                                       u185_20 001B                                         u177_21 0596  
                                       u185_21 001A                                         u178_20 03BE  
                                       u186_20 0020                                         u178_21 03BD  
                                       u186_21 001F                                         u179_20 03CE  
                                       u187_20 002B                                         u179_21 03CD  
                                       u187_21 002A                                         u188_20 0030  
                                       u188_21 002F                                         _OSCCON 0099  
                                  i1memcpy@tmp 0075                                         _SPBRGH 019C  
                                       _SPBRGL 019B                                         _WDTCON 0097  
                              _LIN_processData 002E                                   ?_TMR0_Reload 0070  
                                       ___wmul 05C0                                _LIN_queuePacket 013C  
                      __end_of_TMR0_WriteTimer 070E                        i1LIN_getChecksum@length 0074  
                          _EUSART_Transmit_ISR 057E                                         _memcpy 0533  
                             ?_TMR0_Initialize 0070                                         _memset 05DF  
                           _LIN_enablePeriodTx 003D                                _LIN_startPeriod 0720  
                              ?_WDT_Initialize 0070       TMR0_SetInterruptHandler@InterruptHandler 0053  
                             ?_PIN_MANAGER_IOC 0070                                ?_LIN_startTimer 0070  
                         ?_EUSART_Transmit_ISR 0070                              _SYSTEM_Initialize 0671  
                      __end_of__initialization 004E                             ?_SYSTEM_Initialize 0070  
         __end_of_EUSART_SetTxInterruptHandler 06F1                   _EUSART_SetTxInterruptHandler 06EB  
                                    ?_LIN_init 0055                                 __pcstackCOMMON 0070  
                                ?_LIN_enableRx 0070                               ??_LIN_calcParity 0070  
                              LIN_sendPacket@i 0056                                   __pidataBANK0 073D  
                          ??_SYSTEM_Initialize 005A                              _LIN_receivePacket 0421  
                                LIN_init@table 0055                                      ?_TMR0_ISR 0070  
                           ?_LIN_receivePacket 0070                                 _OPTION_REGbits 0095  
                                    ?i1_memcpy 0070                                      ?i1_memset 0070  
                         _eusartRxStatusBuffer 00A0                            ??_LIN_receivePacket 005B  
                      ??_Clear_No_Call_Warning 0053                ??_EUSART_SetOverrunErrorHandler 0055  
                    __end_of_SYSTEM_Initialize 0684                          ??_EUSART_Transmit_ISR 0070  
                                   __pbssBANK0 0020                                     __pbssBANK1 00A0  
                         __end_of_EUSART_Write 04E5                    __end_of_LIN_setTimerHandler 06D0  
                      __end_of_LIN_queuePacket 01F6                           LIN_handler@LIN_state 003A  
                    __end_of_LIN_receivePacket 0455                                 ??_LIN_enableRx 0053  
                                   __pmaintext 0052                               _LIN_timerHandler 050C  
                                   ??_LIN_init 0059                            LIN_getChecksum@data 0054  
                ?_EUSART_SetTxInterruptHandler 0053               _EUSART_TxDefaultInterruptHandler 002A  
             __end_of_TMR0_SetInterruptHandler 06EB                                        ?___wmul 0070  
                                   ??_TMR0_ISR 007E                                     __pintentry 0004  
                             ?_TMR0_WriteTimer 0070                        __end_of_LIN_startPeriod 0724  
                                      ?_memcpy 0053                                        _BAUDCON 019F  
                                      ?_memset 0053                   ??_EUSART_DefaultErrorHandler 0071  
                        LIN_getChecksum@length 0057                               _LIN_timerRunning 003E  
                                _eusartRxCount 0032                                     ??i1_memcpy 0073  
                                   ??i1_memset 0074                                        _OSCTUNE 0098  
                     ??_EUSART_SetErrorHandler 0055                        ??_LIN_Master_Initialize 005A  
                                 i1memset@dest 0075                        LIN_getChecksum@checksum 0059  
                         i1LIN_getChecksum@pid 0070                                  _SW_STATE_Data 0042  
                    i1LIN_getChecksum@checksum 0076                                        __ptext1 0671  
                                      __ptext2 0718                                        __ptext3 065D  
                                      __ptext4 05FA                                        __ptext5 06AF  
                                      __ptext6 0694                                        __ptext7 0647  
                                      __ptext8 071C                                        __ptext9 0720  
                        _OSCILLATOR_Initialize 06AF                               ??_LIN_sendPacket 0055  
                     ??_PIN_MANAGER_Initialize 0053                                        clrloop0 06E0  
                         end_of_initialization 004E          __end_of_EUSART_SetOverrunErrorHandler 06FD  
                _EUSART_SetOverrunErrorHandler 06F7                                        memcpy@d 0058  
                                      memcpy@n 0054                                        memcpy@s 0059  
                                      memset@c 0053                                        memset@n 0055  
                                      memset@p 0058                              _EUSART_Initialize 0370  
                             ?_LIN_queuePacket 0078                             ?_EUSART_Initialize 0070  
                            i1_LIN_getChecksum 0489                                      _RCSTAbits 019D  
                            ??i1_LIN_stopTimer 0070                             _EUSART_is_rx_ready 06D0  
                           _EUSART_is_tx_ready 0740                                  _LIN_getPacket 05A0  
                           ?i1_LIN_getChecksum 0070                                 _TMR0_ReadTimer 0737  
                                _LIN_disableRx 0713                               ?_LIN_startPeriod 0070  
                     ??_EUSART_get_last_status 0053                            ??_EUSART_Initialize 0055  
                             ??_WDT_Initialize 0053                 ??_EUSART_SetTxInterruptHandler 0055  
                            LIN_getPacket@data 005C                       _TMR0_SetInterruptHandler 06E5  
                                    _PORTAbits 000C                            ?_EUSART_is_rx_ready 0070  
                                   _processLIN 06BB                            ?_EUSART_is_tx_ready 0070  
                          ??i1_LIN_getChecksum 0072                            LIN_init@tableLength 0059  
                             ??_LIN_startTimer 0054                           __end_of_LIN_enableRx 0713  
                                _scheduleTable 06D9                   LIN_sendPeriodicTx@periodicTx 0051  
                    __end_of_EUSART_Initialize 03B3                           ??_EUSART_is_rx_ready 0053  
                   __end_of_LIN_sendPeriodicTx 02F7                           ??_EUSART_is_tx_ready 0053  
                                _LIN_sendBreak 0734                                      _TXSTAbits 019E  
                    __end_ofi1_LIN_getChecksum 04BC                         __end_of_TMR0_ReadTimer 073A  
                               ?_LIN_getPacket 0070                                 ?_LIN_disableRx 0070  
           __end_of_EUSART_DefaultErrorHandler 0734                     _EUSART_DefaultErrorHandler 0730  
                                    i1memcpy@d 0076                                      i1memcpy@n 0071  
                                    i1memcpy@s 0077                                 __end_of___wmul 05DF  
                                    i1memset@c 0070                                      i1memset@n 0072  
                                    i1memset@p 0076                                   _EUSART_Write 04BC  
                               __end_of_memcpy 0559                         ?_OSCILLATOR_Initialize 0070  
              LIN_sendPeriodicTx@scheduleIndex 0038                                 __end_of_memset 05FA  
                          start_initialization 003A                                  _LIN_stopTimer 071C  
                     __end_of_LIN_timerHandler 0533                                  ??_EUSART_Read 0053  
                __end_of_Clear_No_Call_Warning 073F   EUSART_SetRxInterruptHandler@interruptHandler 0053  
 EUSART_SetTxInterruptHandler@interruptHandler 0053                          LIN_startTimer@timeout 0054  
                               ?_LIN_sendBreak 0070                              LIN_calcParity@CMD 0071  
               ?_EUSART_SetOverrunErrorHandler 0053                              LIN_calcParity@PID 0072  
                   _EUSART_FramingErrorHandler 0026                                ?_TMR0_ReadTimer 0070  
                                     ??___wmul 0074                         _EUSART_SetErrorHandler 0703  
                                  __pdataBANK0 0066                                       ??_memcpy 0056  
                                     ??_memset 0057                           processLIN@tempRxData 005D  
                                   memset@dest 0059                                    ?_processLIN 0070  
                          LIN_init@processData 0057                    __end_of_EUSART_Transmit_ISR 05A0  
                               ?_LIN_stopTimer 0070                                      ___latbits 0002  
                                __pcstackBANK0 004A                                  __pcstackBANK1 00CF  
                            ??_LIN_getChecksum 0055                     __end_of_EUSART_Receive_ISR 03ED  
                            _LIN_timerCallBack 003C               _EUSART_RxDefaultInterruptHandler 0028  
                          __end_of_EUSART_Read 050C                  __end_of_LIN_Master_Initialize 06A2  
                        _TMR0_InterruptHandler 0020                   __end_of_EUSART_RxDataHandler 0647  
                              ??_LIN_getPacket 005B                         _PIN_MANAGER_Initialize 05FA  
                                ??_LIN_handler 00CF                               LIN_getChecksum@i 0058  
                              ??_LIN_disableRx 0053                           EUSART_Read@readValue 0054  
                           LIN_getChecksum@pid 0053                                   _eusartRxHead 0034  
                                 _eusartTxHead 0037                                   _eusartRxTail 0033  
                                 _eusartTxTail 0036                   ??_INTERRUPT_InterruptManager 007E  
                      _eusartTxBufferRemaining 0035                                ??_LIN_sendBreak 0053  
                              i1_LIN_stopTimer 0728                                 _eusartRxBuffer 00A8  
                       _EUSART_get_last_status 0741                              ??_TMR0_Initialize 0055  
                               _eusartTxBuffer 00B0                                 ___wmul@product 0074  
       EUSART_SetErrorHandler@interruptHandler 0053                                       _LATBbits 010D  
                                    clear_ram0 06DF                                       _PIE1bits 0091  
                            _eusartRxLastError 0031                     ??_TMR0_SetInterruptHandler 0055  
                                     _PIR1bits 0011                ??_EUSART_SetFramingErrorHandler 0055  
                                ??_TMR0_Reload 0053                                       _LIN_init 0647  
                            _EUSART_is_tx_done 073A                                   _LIN_enableRx 070E  
                                     _TMR0_ISR 0684      __end_of_EUSART_DefaultOverrunErrorHandler 0730  
          ??_EUSART_DefaultOverrunErrorHandler 0070             ?_EUSART_DefaultOverrunErrorHandler 0070  
            _EUSART_DefaultOverrunErrorHandler 072C                               LIN_getPacket@cmd 005B  
                            ??_PIN_MANAGER_IOC 0053                             ?_EUSART_is_tx_done 0070  
                          __end_of_LIN_handler 0370                              ___wmul@multiplier 0070  
                              ??_LIN_stopTimer 0053                            ??_EUSART_is_tx_done 0053  
                                     i1_memcpy 0559                                       i1_memset 0614  
                                 _LIN_rxPacket 00B8                                    _EUSART_Read 04E5  
                           _LIN_periodCallBack 003B                      __end_of_EUSART_is_tx_done 073D  
                                    memcpy@tmp 0057                          i1LIN_getChecksum@data 0071  
                      ??_OSCILLATOR_Initialize 0053                            _EUSART_ErrorHandler 0022  
                  ?_EUSART_DefaultErrorHandler 0070                             _LIN_sendPeriodicTx 027C  
                          __end_of_TMR0_Reload 0728                        __end_ofi1_LIN_stopTimer 072C  
                          ?_LIN_sendPeriodicTx 0070                           _EUSART_RxDataHandler 062E  
                                     __ptext10 06C7                                       __ptext11 06E5  
                                     __ptext20 05A0                                       __ptext12 0370  
                                     __ptext21 05DF                                       __ptext13 06EB  
                                     __ptext30 04E5                                       __ptext22 0533  
                                     __ptext14 06F1                                       __ptext31 070E  
                                     __ptext23 06A2                                       __ptext15 06F7  
                                     __ptext40 0741                                       __ptext32 0713  
                                     __ptext24 0709                                       __ptext16 06FD  
                                     __ptext33 06D0                                       __ptext25 03ED  
                                     __ptext17 0703                                       __ptext50 0559  
                                     __ptext42 0684                                       __ptext34 073E  
                                     __ptext26 0734                                       __ptext18 02F7  
                                     __ptext51 0489                                       __ptext43 050C  
                                     __ptext35 0724                                       __ptext27 04BC  
                                     __ptext19 06BB                                       __ptext52 01F6  
                                     __ptext44 0742                                       __ptext36 0737  
                                     __ptext28 0421                                       __ptext53 057E  
                                     __ptext45 0728                                       __ptext37 073F  
                                     __ptext29 0455                                       __ptext54 03B3  
                                     __ptext46 027C                                       __ptext38 0740  
                                     __ptext55 072C                                       __ptext47 05C0  
                                     __ptext39 073A                                       __ptext56 0743  
                                     __ptext48 013C                                       __ptext57 0730  
                                     __ptext49 0614                                       __ptext58 062E  
                            ?_LIN_timerHandler 0070                        TMR0_WriteTimer@timerVal 0053  
                           ??_LIN_timerHandler 007D                              ??_TMR0_WriteTimer 0053  
                           i1LIN_getChecksum@i 0075                               ??_TMR0_ReadTimer 0053  
         __end_of_TMR0_DefaultInterruptHandler 0743                   _TMR0_DefaultInterruptHandler 0742  
                                     _schedule 002C                        ?_EUSART_SetErrorHandler 0053  
                         ??_LIN_sendPeriodicTx 004E  EUSART_SetOverrunErrorHandler@interruptHandler 0053  
                                  _LIN_handler 02F7                                       int$flags 007E  
                              _LIN_getChecksum 0455             __end_of_INTERRUPT_InterruptManager 0038  
                   _INTERRUPT_InterruptManager 0004          __end_of_EUSART_SetFramingErrorHandler 0703  
                _EUSART_SetFramingErrorHandler 06FD                                   ??_processLIN 005D  
                                  _LIN_txReady 0041                                    _LIN_timeout 0066  
                               _LIN_calcParity 01F6                                     _INTCONbits 000B  
                        ?_EUSART_RxDataHandler 0070                                       memcpy@d1 005A  
                                     memcpy@s1 0053                            LIN_queuePacket@data 0078  
                          _LIN_setTimerHandler 06C7                                       intlevel1 0000  
                        _Clear_No_Call_Warning 073E                        ?_PIN_MANAGER_Initialize 0070  
               __end_of_EUSART_SetErrorHandler 0709                             __end_of_processLIN 06C7  
         __end_of_EUSART_SetRxInterruptHandler 06F7                   _EUSART_SetRxInterruptHandler 06F1  
                ?_TMR0_DefaultInterruptHandler 0070                                    _TMR0_Reload 0724  
                                   _LIN_packet 00C4                             _EUSART_Receive_ISR 03B3  
                         ?_LIN_setTimerHandler 0070                                     _LIN_period 003F  
EUSART_SetFramingErrorHandler@interruptHandler 0053                         __end_of_LIN_calcParity 027C  
                                __pstringtext1 06D9                             LIN_queuePacket@cmd 004A  
                                   _OPTION_REG 0095                            ?_EUSART_Receive_ISR 0070  
                              _TMR0_Initialize 065D                              ??_LIN_queuePacket 0079  
                             ?i1_LIN_stopTimer 0070                        ?_EUSART_get_last_status 0070  
                           EUSART_Write@txData 0054                 __end_of_PIN_MANAGER_Initialize 0614  
                            ??_LIN_startPeriod 0053                                _PIN_MANAGER_IOC 073F  
                             LIN_queuePacket@i 004B                           ??_EUSART_Receive_ISR 0071  
                      __end_of_LIN_getChecksum 0489                          _LIN_Master_Initialize 0694  
